

Microchip MPLAB XC8 Assembler V2.10 build 88905656 
                                                                                               Wed Apr 22 20:01:15 2020

Microchip MPLAB XC8 C Compiler v2.10 (Free license) build 20190730164152 Og1 
     1                           	processor	16F877A
     2                           	opt	pw 120
     3                           	opt	flic
     4                           	psect	idataBANK3,global,class=CODE,delta=2
     5                           	psect	stringtext,global,reloc=256,class=STRCODE,delta=2
     6                           	psect	cinit,global,class=CODE,merge=1,delta=2
     7                           	psect	bssCOMMON,global,class=COMMON,space=1,delta=1
     8                           	psect	bssBANK3,global,class=BANK3,space=1,delta=1
     9                           	psect	dataBANK3,global,class=BANK3,space=1,delta=1
    10                           	psect	inittext,global,class=CODE,delta=2
    11                           	psect	cstackBANK3,global,class=BANK3,space=1,delta=1
    12                           	psect	cstackBANK1,global,class=BANK1,space=1,delta=1
    13                           	psect	cstackCOMMON,global,class=COMMON,space=1,delta=1
    14                           	psect	cstackBANK0,global,class=BANK0,space=1,delta=1
    15                           	psect	maintext,global,class=CODE,split=1,delta=2
    16                           	psect	text1,local,class=CODE,merge=1,delta=2
    17                           	psect	text2,local,class=CODE,merge=1,delta=2
    18                           	psect	text3,local,class=CODE,merge=1,delta=2
    19                           	psect	text4,local,class=CODE,merge=1,delta=2
    20                           	psect	text5,local,class=CODE,merge=1,delta=2,group=2
    21                           	psect	text6,local,class=CODE,merge=1,delta=2,group=2
    22                           	psect	text7,local,class=CODE,merge=1,delta=2,group=2
    23                           	psect	text8,local,class=CODE,merge=1,delta=2,group=2
    24                           	psect	text9,local,class=CODE,merge=1,delta=2,group=2
    25                           	psect	text10,local,class=CODE,merge=1,delta=2,group=2
    26                           	psect	text11,local,class=CODE,merge=1,delta=2,group=1
    27                           	psect	text12,local,class=CODE,merge=1,delta=2,group=1
    28                           	psect	text13,local,class=CODE,merge=1,delta=2,group=1
    29                           	psect	text14,local,class=CODE,merge=1,delta=2,group=1
    30                           	psect	text15,local,class=CODE,merge=1,delta=2,group=2
    31                           	psect	text16,local,class=CODE,merge=1,delta=2,group=1
    32                           	psect	text17,local,class=CODE,merge=1,delta=2,group=1
    33                           	psect	text18,local,class=CODE,merge=1,delta=2,group=1
    34                           	psect	text19,local,class=CODE,merge=1,delta=2,group=1
    35                           	psect	text20,local,class=CODE,merge=1,delta=2,group=1
    36                           	psect	text21,local,class=CODE,merge=1,delta=2,group=1
    37                           	psect	text22,local,class=CODE,merge=1,delta=2
    38                           	psect	text23,local,class=CODE,merge=1,delta=2,group=1
    39                           	psect	text24,local,class=CODE,merge=1,delta=2,group=1
    40                           	psect	text25,local,class=CODE,merge=1,delta=2
    41                           	psect	text26,local,class=CODE,merge=1,delta=2
    42                           	psect	text27,local,class=CODE,merge=1,delta=2
    43                           	psect	text28,local,class=CODE,merge=1,delta=2,group=1
    44                           	psect	text29,local,class=CODE,merge=1,delta=2,group=1
    45                           	psect	text30,local,class=CODE,merge=1,delta=2
    46                           	psect	text31,local,class=CODE,merge=1,delta=2
    47                           	psect	intentry,global,class=CODE,delta=2
    48                           	dabs	1,0x7E,2
    49  0000                     
    50                           ; Version 2.10
    51                           ; Generated 31/07/2019 GMT
    52                           ; 
    53                           ; Copyright © 2019, Microchip Technology Inc. and its subsidiaries ("Microchip")
    54                           ; All rights reserved.
    55                           ; 
    56                           ; This software is developed by Microchip Technology Inc. and its subsidiaries ("Microch
      +                          ip").
    57                           ; 
    58                           ; Redistribution and use in source and binary forms, with or without modification, are
    59                           ; permitted provided that the following conditions are met:
    60                           ; 
    61                           ;     1. Redistributions of source code must retain the above copyright notice, this lis
      +                          t of
    62                           ;        conditions and the following disclaimer.
    63                           ; 
    64                           ;     2. Redistributions in binary form must reproduce the above copyright notice, this 
      +                          list
    65                           ;        of conditions and the following disclaimer in the documentation and/or other
    66                           ;        materials provided with the distribution.
    67                           ; 
    68                           ;     3. Microchip's name may not be used to endorse or promote products derived from th
      +                          is
    69                           ;        software without specific prior written permission.
    70                           ; 
    71                           ; THIS SOFTWARE IS PROVIDED BY MICROCHIP "AS IS" AND ANY EXPRESS OR IMPLIED WARRANTIES,
    72                           ; INCLUDING, BUT NOT LIMITED TO, THE IMPLIED WARRANTIES OF MERCHANTABILITY AND FITNESS F
      +                          OR
    73                           ; PURPOSE ARE DISCLAIMED.  IN NO EVENT SHALL MICROCHIP BE LIABLE FOR ANY DIRECT, INDIREC
      +                          T,
    74                           ; INCIDENTAL, SPECIAL, EXEMPLARY, OR CONSEQUENTIAL DAMAGES (INCLUDING BUT NOT LIMITED TO
    75                           ; PROCUREMENT OF SUBSTITUTE GOODS OR SERVICES; LOSS OF USE, DATA OR PROFITS; OR BUSINESS
    76                           ; INTERRUPTION) HOWSOEVER CAUSED AND ON ANY THEORY OF LIABILITY, WHETHER IN CONTRACT, ST
      +                          RICT
    77                           ; LIABILITY, OR TORT (INCLUDING NEGLIGENCE OR OTHERWISE) ARISING IN ANY WAY OUT OF THE U
      +                          SE OF
    78                           ; THIS SOFTWARE, EVEN IF ADVISED OF THE POSSIBILITY OF SUCH DAMAGE.
    79                           ; 
    80                           ; 
    81                           ; Code-generator required, PIC16F877A Definitions
    82                           ; 
    83                           ; SFR Addresses
    84  0000                     	;# 
    85  0001                     	;# 
    86  0002                     	;# 
    87  0003                     	;# 
    88  0004                     	;# 
    89  0005                     	;# 
    90  0006                     	;# 
    91  0007                     	;# 
    92  0008                     	;# 
    93  0009                     	;# 
    94  000A                     	;# 
    95  000B                     	;# 
    96  000C                     	;# 
    97  000D                     	;# 
    98  000E                     	;# 
    99  000E                     	;# 
   100  000F                     	;# 
   101  0010                     	;# 
   102  0011                     	;# 
   103  0012                     	;# 
   104  0013                     	;# 
   105  0014                     	;# 
   106  0015                     	;# 
   107  0015                     	;# 
   108  0016                     	;# 
   109  0017                     	;# 
   110  0018                     	;# 
   111  0019                     	;# 
   112  001A                     	;# 
   113  001B                     	;# 
   114  001B                     	;# 
   115  001C                     	;# 
   116  001D                     	;# 
   117  001E                     	;# 
   118  001F                     	;# 
   119  0081                     	;# 
   120  0085                     	;# 
   121  0086                     	;# 
   122  0087                     	;# 
   123  0088                     	;# 
   124  0089                     	;# 
   125  008C                     	;# 
   126  008D                     	;# 
   127  008E                     	;# 
   128  0091                     	;# 
   129  0092                     	;# 
   130  0093                     	;# 
   131  0094                     	;# 
   132  0098                     	;# 
   133  0099                     	;# 
   134  009C                     	;# 
   135  009D                     	;# 
   136  009E                     	;# 
   137  009F                     	;# 
   138  010C                     	;# 
   139  010D                     	;# 
   140  010E                     	;# 
   141  010F                     	;# 
   142  018C                     	;# 
   143  018D                     	;# 
   144  0000                     	;# 
   145  0001                     	;# 
   146  0002                     	;# 
   147  0003                     	;# 
   148  0004                     	;# 
   149  0005                     	;# 
   150  0006                     	;# 
   151  0007                     	;# 
   152  0008                     	;# 
   153  0009                     	;# 
   154  000A                     	;# 
   155  000B                     	;# 
   156  000C                     	;# 
   157  000D                     	;# 
   158  000E                     	;# 
   159  000E                     	;# 
   160  000F                     	;# 
   161  0010                     	;# 
   162  0011                     	;# 
   163  0012                     	;# 
   164  0013                     	;# 
   165  0014                     	;# 
   166  0015                     	;# 
   167  0015                     	;# 
   168  0016                     	;# 
   169  0017                     	;# 
   170  0018                     	;# 
   171  0019                     	;# 
   172  001A                     	;# 
   173  001B                     	;# 
   174  001B                     	;# 
   175  001C                     	;# 
   176  001D                     	;# 
   177  001E                     	;# 
   178  001F                     	;# 
   179  0081                     	;# 
   180  0085                     	;# 
   181  0086                     	;# 
   182  0087                     	;# 
   183  0088                     	;# 
   184  0089                     	;# 
   185  008C                     	;# 
   186  008D                     	;# 
   187  008E                     	;# 
   188  0091                     	;# 
   189  0092                     	;# 
   190  0093                     	;# 
   191  0094                     	;# 
   192  0098                     	;# 
   193  0099                     	;# 
   194  009C                     	;# 
   195  009D                     	;# 
   196  009E                     	;# 
   197  009F                     	;# 
   198  010C                     	;# 
   199  010D                     	;# 
   200  010E                     	;# 
   201  010F                     	;# 
   202  018C                     	;# 
   203  018D                     	;# 
   204  0000                     	;# 
   205  0001                     	;# 
   206  0002                     	;# 
   207  0003                     	;# 
   208  0004                     	;# 
   209  0005                     	;# 
   210  0006                     	;# 
   211  0007                     	;# 
   212  0008                     	;# 
   213  0009                     	;# 
   214  000A                     	;# 
   215  000B                     	;# 
   216  000C                     	;# 
   217  000D                     	;# 
   218  000E                     	;# 
   219  000E                     	;# 
   220  000F                     	;# 
   221  0010                     	;# 
   222  0011                     	;# 
   223  0012                     	;# 
   224  0013                     	;# 
   225  0014                     	;# 
   226  0015                     	;# 
   227  0015                     	;# 
   228  0016                     	;# 
   229  0017                     	;# 
   230  0018                     	;# 
   231  0019                     	;# 
   232  001A                     	;# 
   233  001B                     	;# 
   234  001B                     	;# 
   235  001C                     	;# 
   236  001D                     	;# 
   237  001E                     	;# 
   238  001F                     	;# 
   239  0081                     	;# 
   240  0085                     	;# 
   241  0086                     	;# 
   242  0087                     	;# 
   243  0088                     	;# 
   244  0089                     	;# 
   245  008C                     	;# 
   246  008D                     	;# 
   247  008E                     	;# 
   248  0091                     	;# 
   249  0092                     	;# 
   250  0093                     	;# 
   251  0094                     	;# 
   252  0098                     	;# 
   253  0099                     	;# 
   254  009C                     	;# 
   255  009D                     	;# 
   256  009E                     	;# 
   257  009F                     	;# 
   258  010C                     	;# 
   259  010D                     	;# 
   260  010E                     	;# 
   261  010F                     	;# 
   262  018C                     	;# 
   263  018D                     	;# 
   264  0000                     	;# 
   265  0001                     	;# 
   266  0002                     	;# 
   267  0003                     	;# 
   268  0004                     	;# 
   269  0005                     	;# 
   270  0006                     	;# 
   271  0007                     	;# 
   272  0008                     	;# 
   273  0009                     	;# 
   274  000A                     	;# 
   275  000B                     	;# 
   276  000C                     	;# 
   277  000D                     	;# 
   278  000E                     	;# 
   279  000E                     	;# 
   280  000F                     	;# 
   281  0010                     	;# 
   282  0011                     	;# 
   283  0012                     	;# 
   284  0013                     	;# 
   285  0014                     	;# 
   286  0015                     	;# 
   287  0015                     	;# 
   288  0016                     	;# 
   289  0017                     	;# 
   290  0018                     	;# 
   291  0019                     	;# 
   292  001A                     	;# 
   293  001B                     	;# 
   294  001B                     	;# 
   295  001C                     	;# 
   296  001D                     	;# 
   297  001E                     	;# 
   298  001F                     	;# 
   299  0081                     	;# 
   300  0085                     	;# 
   301  0086                     	;# 
   302  0087                     	;# 
   303  0088                     	;# 
   304  0089                     	;# 
   305  008C                     	;# 
   306  008D                     	;# 
   307  008E                     	;# 
   308  0091                     	;# 
   309  0092                     	;# 
   310  0093                     	;# 
   311  0094                     	;# 
   312  0098                     	;# 
   313  0099                     	;# 
   314  009C                     	;# 
   315  009D                     	;# 
   316  009E                     	;# 
   317  009F                     	;# 
   318  010C                     	;# 
   319  010D                     	;# 
   320  010E                     	;# 
   321  010F                     	;# 
   322  018C                     	;# 
   323  018D                     	;# 
   324                           
   325                           	psect	idataBANK3
   326  1002                     __pidataBANK3:	
   327                           
   328                           ;initializer for _productos
   329  1002  3468               	retlw	low (STR_1| (0+32768))
   330  1003  3498               	retlw	high (STR_1| (0+32768))
   331  1004  34D4               	retlw	low (STR_2| (0+32768))
   332  1005  3498               	retlw	high (STR_2| (0+32768))
   333  1006  34F8               	retlw	low (STR_3| (0+32768))
   334  1007  3498               	retlw	high (STR_3| (0+32768))
   335  1008  3480               	retlw	low (STR_4| (0+32768))
   336  1009  3498               	retlw	high (STR_4| (0+32768))
   337  100A  34C8               	retlw	low (STR_5| (0+32768))
   338  100B  3498               	retlw	high (STR_5| (0+32768))
   339  100C  3498               	retlw	low (STR_6| (0+32768))
   340  100D  3498               	retlw	high (STR_6| (0+32768))
   341  100E  34A4               	retlw	low (STR_7| (0+32768))
   342  100F  3498               	retlw	high (STR_7| (0+32768))
   343  1010  34EC               	retlw	low (STR_8| (0+32768))
   344  1011  3498               	retlw	high (STR_8| (0+32768))
   345  1012  3474               	retlw	low (STR_9| (0+32768))
   346  1013  3498               	retlw	high (STR_9| (0+32768))
   347  1014  34B0               	retlw	low (STR_10| (0+32768))
   348  1015  3498               	retlw	high (STR_10| (0+32768))
   349  1016  348C               	retlw	low (STR_11| (0+32768))
   350  1017  3498               	retlw	high (STR_11| (0+32768))
   351  1018  34BC               	retlw	low (STR_12| (0+32768))
   352  1019  3498               	retlw	high (STR_12| (0+32768))
   353  101A  34E0               	retlw	low (STR_13| (0+32768))
   354  101B  3498               	retlw	high (STR_13| (0+32768))
   355                           
   356                           	psect	stringtext
   357  1800                     __pstringtext:	
   358  1800                     stringtab:	
   359  1800                     __stringtab:	
   360                           
   361                           ;	String table - string pointers are 2 bytes each
   362  1800  1BFF               	btfsc	btemp+1,7
   363  1801  280A               	ljmp	stringcode
   364  1802  1383               	bcf	3,7
   365  1803  187F               	btfsc	btemp+1,0
   366  1804  1783               	bsf	3,7
   367  1805  0800               	movf	0,w
   368  1806  0A84               	incf	4,f
   369  1807  1903               	skipnz
   370  1808  0AFF               	incf	btemp+1,f
   371  1809  0008               	return
   372  180A                     stringcode:	
   373  180A  087F               	movf	btemp+1,w
   374  180B  397F               	andlw	127
   375  180C  008A               	movwf	10
   376  180D  0804               	movf	4,w
   377  180E  0A84               	incf	4,f
   378  180F  1903               	skipnz
   379  1810  0AFF               	incf	btemp+1,f
   380  1811  0082               	movwf	2
   381  1812                     __stringbase:	
   382  1812                     __end_of__stringtab:	
   383  1812                     _digito:	
   384  1812  34FC               	retlw	252
   385  1813  3460               	retlw	96
   386  1814  34DA               	retlw	218
   387  1815  34F2               	retlw	242
   388  1816  3466               	retlw	102
   389  1817  34B6               	retlw	182
   390  1818  34BE               	retlw	190
   391  1819  34E2               	retlw	226
   392  181A  34FE               	retlw	254
   393  181B  34E6               	retlw	230
   394  181C                     __end_of_digito:	
   395  181C                     exp@coeff:	
   396  181C  3400               	retlw	0
   397  181D  3400               	retlw	0
   398  181E  3480               	retlw	128
   399  181F  343F               	retlw	63
   400  1820  3418               	retlw	24
   401  1821  3472               	retlw	114
   402  1822  3431               	retlw	49
   403  1823  343F               	retlw	63
   404  1824  34F0               	retlw	240
   405  1825  34FD               	retlw	253
   406  1826  3475               	retlw	117
   407  1827  343E               	retlw	62
   408  1828  3447               	retlw	71
   409  1829  3458               	retlw	88
   410  182A  3463               	retlw	99
   411  182B  343D               	retlw	61
   412  182C  3458               	retlw	88
   413  182D  3495               	retlw	149
   414  182E  341D               	retlw	29
   415  182F  343C               	retlw	60
   416  1830  3482               	retlw	130
   417  1831  34C4               	retlw	196
   418  1832  34AE               	retlw	174
   419  1833  343A               	retlw	58
   420  1834  34A8               	retlw	168
   421  1835  3478               	retlw	120
   422  1836  3421               	retlw	33
   423  1837  3439               	retlw	57
   424  1838  34EF               	retlw	239
   425  1839  3493               	retlw	147
   426  183A  3480               	retlw	128
   427  183B  3437               	retlw	55
   428  183C  34A0               	retlw	160
   429  183D  3492               	retlw	146
   430  183E  34A7               	retlw	167
   431  183F  3435               	retlw	53
   432  1840  3446               	retlw	70
   433  1841  3456               	retlw	86
   434  1842  3415               	retlw	21
   435  1843  3434               	retlw	52
   436  1844                     __end_ofexp@coeff:	
   437  1844                     log@coeff:	
   438  1844  3400               	retlw	0
   439  1845  3400               	retlw	0
   440  1846  3400               	retlw	0
   441  1847  3400               	retlw	0
   442  1848  34C4               	retlw	196
   443  1849  34FF               	retlw	255
   444  184A  347F               	retlw	127
   445  184B  343F               	retlw	63
   446  184C  3480               	retlw	128
   447  184D  34EF               	retlw	239
   448  184E  34FF               	retlw	255
   449  184F  34BE               	retlw	190
   450  1850  3490               	retlw	144
   451  1851  34E1               	retlw	225
   452  1852  34A9               	retlw	169
   453  1853  343E               	retlw	62
   454  1854  34EC               	retlw	236
   455  1855  3482               	retlw	130
   456  1856  3476               	retlw	118
   457  1857  34BE               	retlw	190
   458  1858  3482               	retlw	130
   459  1859  34AD               	retlw	173
   460  185A  342B               	retlw	43
   461  185B  343E               	retlw	62
   462  185C  340E               	retlw	14
   463  185D  343C               	retlw	60
   464  185E  34C3               	retlw	195
   465  185F  34BD               	retlw	189
   466  1860  3487               	retlw	135
   467  1861  34D1               	retlw	209
   468  1862  3413               	retlw	19
   469  1863  343D               	retlw	61
   470  1864  3441               	retlw	65
   471  1865  3478               	retlw	120
   472  1866  34D3               	retlw	211
   473  1867  34BB               	retlw	187
   474  1868                     __end_oflog@coeff:	
   475  000B                     _INTCONbits	set	11
   476  0003                     _STATUSbits	set	3
   477  001A                     _RCREG	set	26
   478  000B                     _INTCON	set	11
   479  0018                     _RCSTA	set	24
   480  0008                     _PORTD	set	8
   481  0006                     _PORTB	set	6
   482  0065                     _RCIF	set	101
   483  002A                     _RA2	set	42
   484  0029                     _RA1	set	41
   485  002C                     _RA4	set	44
   486  002B                     _RA3	set	43
   487  008C                     _PIE1bits	set	140
   488  0088                     _TRISD	set	136
   489  0086                     _TRISB	set	134
   490  0085                     _TRISA	set	133
   491  0099                     _SPBRG	set	153
   492  0098                     _TXSTA	set	152
   493  0087                     _TRISCbits	set	135
   494  010C                     _EEDATA	set	268
   495  010D                     _EEADR	set	269
   496  018D                     _EECON2	set	397
   497  018C                     _EECON1	set	396
   498  018C                     _EECON1bits	set	396
   499  1868                     STR_1:	
   500  1868  3430               	retlw	48	;'0'
   501  1869  3431               	retlw	49	;'1'
   502  186A  3432               	retlw	50	;'2'
   503  186B  3430               	retlw	48	;'0'
   504  186C  3432               	retlw	50	;'2'
   505  186D  3430               	retlw	48	;'0'
   506  186E  3430               	retlw	48	;'0'
   507  186F  3431               	retlw	49	;'1'
   508  1870  3430               	retlw	48	;'0'
   509  1871  3431               	retlw	49	;'1'
   510  1872  3430               	retlw	48	;'0'
   511  1873  3400               	retlw	0
   512  1874                     STR_9:	
   513  1874  3430               	retlw	48	;'0'
   514  1875  3434               	retlw	52	;'4'
   515  1876  3432               	retlw	50	;'2'
   516  1877  3430               	retlw	48	;'0'
   517  1878  3432               	retlw	50	;'2'
   518  1879  3430               	retlw	48	;'0'
   519  187A  3430               	retlw	48	;'0'
   520  187B  3432               	retlw	50	;'2'
   521  187C  3430               	retlw	48	;'0'
   522  187D  3432               	retlw	50	;'2'
   523  187E  3430               	retlw	48	;'0'
   524  187F  3400               	retlw	0
   525  1880                     STR_4:	
   526  1880  3430               	retlw	48	;'0'
   527  1881  3432               	retlw	50	;'2'
   528  1882  3432               	retlw	50	;'2'
   529  1883  3430               	retlw	48	;'0'
   530  1884  3432               	retlw	50	;'2'
   531  1885  3430               	retlw	48	;'0'
   532  1886  3430               	retlw	48	;'0'
   533  1887  3432               	retlw	50	;'2'
   534  1888  3430               	retlw	48	;'0'
   535  1889  3431               	retlw	49	;'1'
   536  188A  3431               	retlw	49	;'1'
   537  188B  3400               	retlw	0
   538  188C                     STR_11:	
   539  188C  3430               	retlw	48	;'0'
   540  188D  3435               	retlw	53	;'5'
   541  188E  3432               	retlw	50	;'2'
   542  188F  3430               	retlw	48	;'0'
   543  1890  3432               	retlw	50	;'2'
   544  1891  3430               	retlw	48	;'0'
   545  1892  3430               	retlw	48	;'0'
   546  1893  3431               	retlw	49	;'1'
   547  1894  3430               	retlw	48	;'0'
   548  1895  3434               	retlw	52	;'4'
   549  1896  3431               	retlw	49	;'1'
   550  1897  3400               	retlw	0
   551  1898                     STR_6:	
   552  1898  3430               	retlw	48	;'0'
   553  1899  3433               	retlw	51	;'3'
   554  189A  3432               	retlw	50	;'2'
   555  189B  3430               	retlw	48	;'0'
   556  189C  3432               	retlw	50	;'2'
   557  189D  3430               	retlw	48	;'0'
   558  189E  3430               	retlw	48	;'0'
   559  189F  3431               	retlw	49	;'1'
   560  18A0  3430               	retlw	48	;'0'
   561  18A1  3431               	retlw	49	;'1'
   562  18A2  3432               	retlw	50	;'2'
   563  18A3  3400               	retlw	0
   564  18A4                     STR_7:	
   565  18A4  3430               	retlw	48	;'0'
   566  18A5  3433               	retlw	51	;'3'
   567  18A6  3432               	retlw	50	;'2'
   568  18A7  3430               	retlw	48	;'0'
   569  18A8  3432               	retlw	50	;'2'
   570  18A9  3430               	retlw	48	;'0'
   571  18AA  3430               	retlw	48	;'0'
   572  18AB  3432               	retlw	50	;'2'
   573  18AC  3430               	retlw	48	;'0'
   574  18AD  3432               	retlw	50	;'2'
   575  18AE  3433               	retlw	51	;'3'
   576  18AF  3400               	retlw	0
   577  18B0                     STR_10:	
   578  18B0  3430               	retlw	48	;'0'
   579  18B1  3434               	retlw	52	;'4'
   580  18B2  3432               	retlw	50	;'2'
   581  18B3  3430               	retlw	48	;'0'
   582  18B4  3432               	retlw	50	;'2'
   583  18B5  3430               	retlw	48	;'0'
   584  18B6  3430               	retlw	48	;'0'
   585  18B7  3433               	retlw	51	;'3'
   586  18B8  3430               	retlw	48	;'0'
   587  18B9  3432               	retlw	50	;'2'
   588  18BA  3433               	retlw	51	;'3'
   589  18BB  3400               	retlw	0
   590  18BC                     STR_12:	
   591  18BC  3430               	retlw	48	;'0'
   592  18BD  3435               	retlw	53	;'5'
   593  18BE  3432               	retlw	50	;'2'
   594  18BF  3430               	retlw	48	;'0'
   595  18C0  3432               	retlw	50	;'2'
   596  18C1  3430               	retlw	48	;'0'
   597  18C2  3430               	retlw	48	;'0'
   598  18C3  3431               	retlw	49	;'1'
   599  18C4  3430               	retlw	48	;'0'
   600  18C5  3435               	retlw	53	;'5'
   601  18C6  3433               	retlw	51	;'3'
   602  18C7  3400               	retlw	0
   603  18C8                     STR_5:	
   604  18C8  3430               	retlw	48	;'0'
   605  18C9  3432               	retlw	50	;'2'
   606  18CA  3432               	retlw	50	;'2'
   607  18CB  3430               	retlw	48	;'0'
   608  18CC  3432               	retlw	50	;'2'
   609  18CD  3430               	retlw	48	;'0'
   610  18CE  3430               	retlw	48	;'0'
   611  18CF  3433               	retlw	51	;'3'
   612  18D0  3430               	retlw	48	;'0'
   613  18D1  3431               	retlw	49	;'1'
   614  18D2  3435               	retlw	53	;'5'
   615  18D3  3400               	retlw	0
   616  18D4                     STR_2:	
   617  18D4  3430               	retlw	48	;'0'
   618  18D5  3431               	retlw	49	;'1'
   619  18D6  3432               	retlw	50	;'2'
   620  18D7  3430               	retlw	48	;'0'
   621  18D8  3432               	retlw	50	;'2'
   622  18D9  3430               	retlw	48	;'0'
   623  18DA  3430               	retlw	48	;'0'
   624  18DB  3432               	retlw	50	;'2'
   625  18DC  3430               	retlw	48	;'0'
   626  18DD  3432               	retlw	50	;'2'
   627  18DE  3435               	retlw	53	;'5'
   628  18DF  3400               	retlw	0
   629  18E0                     STR_13:	
   630  18E0  3430               	retlw	48	;'0'
   631  18E1  3435               	retlw	53	;'5'
   632  18E2  3432               	retlw	50	;'2'
   633  18E3  3430               	retlw	48	;'0'
   634  18E4  3432               	retlw	50	;'2'
   635  18E5  3430               	retlw	48	;'0'
   636  18E6  3430               	retlw	48	;'0'
   637  18E7  3431               	retlw	49	;'1'
   638  18E8  3430               	retlw	48	;'0'
   639  18E9  3436               	retlw	54	;'6'
   640  18EA  3435               	retlw	53	;'5'
   641  18EB  3400               	retlw	0
   642  18EC                     STR_8:	
   643  18EC  3430               	retlw	48	;'0'
   644  18ED  3434               	retlw	52	;'4'
   645  18EE  3432               	retlw	50	;'2'
   646  18EF  3430               	retlw	48	;'0'
   647  18F0  3432               	retlw	50	;'2'
   648  18F1  3430               	retlw	48	;'0'
   649  18F2  3430               	retlw	48	;'0'
   650  18F3  3431               	retlw	49	;'1'
   651  18F4  3430               	retlw	48	;'0'
   652  18F5  3431               	retlw	49	;'1'
   653  18F6  3436               	retlw	54	;'6'
   654  18F7  3400               	retlw	0
   655  18F8                     STR_3:	
   656  18F8  3430               	retlw	48	;'0'
   657  18F9  3432               	retlw	50	;'2'
   658  18FA  3432               	retlw	50	;'2'
   659  18FB  3430               	retlw	48	;'0'
   660  18FC  3432               	retlw	50	;'2'
   661  18FD  3430               	retlw	48	;'0'
   662  18FE  3430               	retlw	48	;'0'
   663  18FF  3431               	retlw	49	;'1'
   664  1900  3430               	retlw	48	;'0'
   665  1901  3430               	retlw	48	;'0'
   666  1902  3437               	retlw	55	;'7'
   667  1903  3400               	retlw	0
   668                           
   669                           ; #config settings
   670  0000                     
   671                           	psect	cinit
   672  0015                     start_initialization:	
   673  0015                     __initialization:	
   674                           
   675                           ; Initialize objects allocated to BANK3
   676  0015  1783               	bsf	3,7	;select IRP bank2
   677  0016  30AA               	movlw	low (__pdataBANK3+26)
   678  0017  00FD               	movwf	btemp+-1
   679  0018  3010               	movlw	high __pidataBANK3
   680  0019  00FE               	movwf	btemp
   681  001A  3002               	movlw	low __pidataBANK3
   682  001B  00FF               	movwf	btemp+1
   683  001C  3090               	movlw	low __pdataBANK3
   684  001D  0084               	movwf	4
   685  001E  120A  118A  27EF  120A  118A  	fcall	init_ram0
   686                           
   687                           ; Clear objects allocated to BANK3
   688  0023  1683               	bsf	3,5	;RP0=1, select bank3
   689  0024  1703               	bsf	3,6	;RP1=1, select bank3
   690  0025  01C4               	clrf	__pbssBANK3& (0+127)
   691  0026  01C5               	clrf	(__pbssBANK3+1)& (0+127)
   692  0027  01C6               	clrf	(__pbssBANK3+2)& (0+127)
   693  0028  01C7               	clrf	(__pbssBANK3+3)& (0+127)
   694  0029  01C8               	clrf	(__pbssBANK3+4)& (0+127)
   695  002A  01C9               	clrf	(__pbssBANK3+5)& (0+127)
   696  002B  01CA               	clrf	(__pbssBANK3+6)& (0+127)
   697  002C  01CB               	clrf	(__pbssBANK3+7)& (0+127)
   698  002D  01CC               	clrf	(__pbssBANK3+8)& (0+127)
   699  002E  01CD               	clrf	(__pbssBANK3+9)& (0+127)
   700  002F  01CE               	clrf	(__pbssBANK3+10)& (0+127)
   701  0030  01CF               	clrf	(__pbssBANK3+11)& (0+127)
   702  0031  01D0               	clrf	(__pbssBANK3+12)& (0+127)
   703  0032  01D1               	clrf	(__pbssBANK3+13)& (0+127)
   704  0033  01D2               	clrf	(__pbssBANK3+14)& (0+127)
   705                           
   706                           ; Clear objects allocated to COMMON
   707  0034  01F9               	clrf	__pbssCOMMON& (0+127)
   708  0035  01FA               	clrf	(__pbssCOMMON+1)& (0+127)
   709  0036  01FB               	clrf	(__pbssCOMMON+2)& (0+127)
   710  0037  01FC               	clrf	(__pbssCOMMON+3)& (0+127)
   711  0038                     end_of_initialization:	
   712                           ;End of C runtime variable initialization code
   713                           
   714  0038                     __end_of__initialization:	
   715  0038  0183               	clrf	3
   716  0039  160A  118A  2B0C   	ljmp	_main	;jump to C main() function
   717                           
   718                           	psect	bssCOMMON
   719  0079                     __pbssCOMMON:	
   720  0079                     _errno:	
   721  0079                     	ds	2
   722  007B                     _auxCuenta:	
   723  007B                     	ds	2
   724                           
   725                           	psect	bssBANK3
   726  01C4                     __pbssBANK3:	
   727  01C4                     _codigoEntrada:	
   728  01C4                     	ds	9
   729  01CD                     _prodIngresados:	
   730  01CD                     	ds	2
   731  01CF                     _huboInt:	
   732  01CF                     	ds	2
   733  01D1                     _cuenta:	
   734  01D1                     	ds	2
   735                           
   736                           	psect	dataBANK3
   737  0190                     __pdataBANK3:	
   738  0190                     _productos:	
   739  0190                     	ds	26
   740                           
   741                           	psect	inittext
   742  07EB                     init_fetch0:	
   743                           ;	Called with low address in FSR and high address in W
   744                           
   745  07EB  087E               	movf	btemp,w
   746  07EC  008A               	movwf	10
   747  07ED  087F               	movf	btemp+1,w
   748  07EE  0082               	movwf	2
   749  07EF                     init_ram0:	
   750                           ;Called with:
   751                           ;	high address of idata address in btemp 
   752                           ;	low address of idata address in btemp+1 
   753                           ;	low address of data in FSR
   754                           ;	high address + 1 of data in btemp-1
   755                           
   756  07EF  120A  118A  27EB  120A  118A  	fcall	init_fetch0
   757  07F4  0080               	movwf	0
   758  07F5  0A84               	incf	4,f
   759  07F6  0804               	movf	4,w
   760  07F7  067D               	xorwf	btemp+-1,w
   761  07F8  1903               	btfsc	3,2
   762  07F9  3400               	retlw	0
   763  07FA  0AFF               	incf	btemp+1,f
   764  07FB  1903               	btfsc	3,2
   765  07FC  0AFE               	incf	btemp,f
   766  07FD  2FEF               	goto	init_ram0
   767                           
   768                           	psect	cstackBANK3
   769  01AA                     __pcstackBANK3:	
   770  01AA                     EEPROM_search@precio:	
   771                           
   772                           ; 2 bytes @ 0x0
   773  01AA                     	ds	2
   774  01AC                     _EEPROM_search$958:	
   775                           
   776                           ; 4 bytes @ 0x2
   777  01AC                     	ds	4
   778  01B0                     _EEPROM_search$959:	
   779                           
   780                           ; 4 bytes @ 0x6
   781  01B0                     	ds	4
   782  01B4                     EEPROM_search@esta:	
   783                           
   784                           ; 2 bytes @ 0xA
   785  01B4                     	ds	2
   786  01B6                     EEPROM_search@direccion:	
   787                           
   788                           ; 2 bytes @ 0xC
   789  01B6                     	ds	2
   790  01B8                     EEPROM_search@i:	
   791                           
   792                           ; 2 bytes @ 0xE
   793  01B8                     	ds	2
   794  01BA                     EEPROM_search@numProd:	
   795                           
   796                           ; 2 bytes @ 0x10
   797  01BA                     	ds	2
   798  01BC                     ??_main:	
   799                           
   800                           ; 1 bytes @ 0x12
   801  01BC                     	ds	8
   802                           
   803                           	psect	cstackBANK1
   804  00A0                     __pcstackBANK1:	
   805  00A0                     ?_floor:	
   806  00A0                     ?_eval_poly:	
   807                           ; 4 bytes @ 0x0
   808                           
   809  00A0                     ?___flsub:	
   810                           ; 4 bytes @ 0x0
   811                           
   812  00A0                     ___flsub@a:	
   813                           ; 4 bytes @ 0x0
   814                           
   815  00A0                     floor@x:	
   816                           ; 4 bytes @ 0x0
   817                           
   818  00A0                     eval_poly@x:	
   819                           ; 4 bytes @ 0x0
   820                           
   821                           
   822                           ; 4 bytes @ 0x0
   823  00A0                     	ds	4
   824  00A4                     eval_poly@d:	
   825  00A4                     ___flsub@b:	
   826                           ; 2 bytes @ 0x4
   827                           
   828  00A4                     floor@i:	
   829                           ; 4 bytes @ 0x4
   830                           
   831                           
   832                           ; 4 bytes @ 0x4
   833  00A4                     	ds	2
   834  00A6                     eval_poly@n:	
   835                           
   836                           ; 2 bytes @ 0x6
   837  00A6                     	ds	2
   838  00A8                     ??_eval_poly:	
   839  00A8                     floor@expon:	
   840                           ; 1 bytes @ 0x8
   841                           
   842                           
   843                           ; 2 bytes @ 0x8
   844  00A8                     	ds	8
   845  00B0                     eval_poly@res:	
   846                           
   847                           ; 4 bytes @ 0x10
   848  00B0                     	ds	4
   849  00B4                     ?_log:	
   850  00B4                     ?_ldexp:	
   851                           ; 4 bytes @ 0x14
   852                           
   853  00B4                     ldexp@value:	
   854                           ; 4 bytes @ 0x14
   855                           
   856  00B4                     log@x:	
   857                           ; 4 bytes @ 0x14
   858                           
   859                           
   860                           ; 4 bytes @ 0x14
   861  00B4                     	ds	4
   862  00B8                     ldexp@newexp:	
   863  00B8                     log@exponent:	
   864                           ; 2 bytes @ 0x18
   865                           
   866                           
   867                           ; 2 bytes @ 0x18
   868  00B8                     	ds	2
   869  00BA                     ??_ldexp:	
   870                           
   871                           ; 1 bytes @ 0x1A
   872  00BA                     	ds	2
   873  00BC                     ?_exp:	
   874  00BC                     exp@x:	
   875                           ; 4 bytes @ 0x1C
   876                           
   877                           
   878                           ; 4 bytes @ 0x1C
   879  00BC                     	ds	4
   880  00C0                     ??_exp:	
   881                           
   882                           ; 1 bytes @ 0x20
   883  00C0                     	ds	1
   884  00C1                     _exp$962:	
   885                           
   886                           ; 4 bytes @ 0x21
   887  00C1                     	ds	4
   888  00C5                     exp@exponent:	
   889                           
   890                           ; 2 bytes @ 0x25
   891  00C5                     	ds	2
   892  00C7                     exp@sign:	
   893                           
   894                           ; 1 bytes @ 0x27
   895  00C7                     	ds	1
   896  00C8                     ?_pow:	
   897  00C8                     pow@x:	
   898                           ; 4 bytes @ 0x28
   899                           
   900                           
   901                           ; 4 bytes @ 0x28
   902  00C8                     	ds	4
   903  00CC                     pow@y:	
   904                           
   905                           ; 4 bytes @ 0x2C
   906  00CC                     	ds	4
   907  00D0                     ??_pow:	
   908                           
   909                           ; 1 bytes @ 0x30
   910  00D0                     	ds	1
   911  00D1                     _pow$960:	
   912                           
   913                           ; 4 bytes @ 0x31
   914  00D1                     	ds	4
   915  00D5                     _pow$961:	
   916                           
   917                           ; 4 bytes @ 0x35
   918  00D5                     	ds	4
   919  00D9                     pow@sign:	
   920                           
   921                           ; 1 bytes @ 0x39
   922  00D9                     	ds	1
   923  00DA                     pow@yi:	
   924                           
   925                           ; 4 bytes @ 0x3A
   926  00DA                     	ds	4
   927  00DE                     ?_EEPROM_search:	
   928                           
   929                           ; 2 bytes @ 0x3E
   930  00DE                     	ds	2
   931  00E0                     ??_EEPROM_search:	
   932                           
   933                           ; 1 bytes @ 0x40
   934  00E0                     	ds	3
   935  00E3                     ??_accionesPuertoSerial:	
   936                           
   937                           ; 1 bytes @ 0x43
   938  00E3                     	ds	3
   939  00E6                     accionesPuertoSerial@i:	
   940                           
   941                           ; 2 bytes @ 0x46
   942  00E6                     	ds	2
   943  00E8                     accionesPuertoSerial@Aux:	
   944                           
   945                           ; 2 bytes @ 0x48
   946  00E8                     	ds	2
   947  00EA                     main@i:	
   948                           
   949                           ; 2 bytes @ 0x4A
   950  00EA                     	ds	2
   951  00EC                     main@j:	
   952                           
   953                           ; 2 bytes @ 0x4C
   954  00EC                     	ds	2
   955                           
   956                           	psect	cstackCOMMON
   957  0070                     __pcstackCOMMON:	
   958  0070                     ?_eeprom_read:	
   959  0070                     ?_iniciar_usart:	
   960                           ; 1 bytes @ 0x0
   961                           
   962  0070                     ?_bailenLeds:	
   963                           ; 1 bytes @ 0x0
   964                           
   965  0070                     ?_accionesAceptar:	
   966                           ; 1 bytes @ 0x0
   967                           
   968  0070                     ?_accionesDeshacer:	
   969                           ; 1 bytes @ 0x0
   970                           
   971  0070                     ?_accionesPuertoSerial:	
   972                           ; 1 bytes @ 0x0
   973                           
   974  0070                     ?_main:	
   975                           ; 1 bytes @ 0x0
   976                           
   977  0070                     ?_int_usart:	
   978                           ; 1 bytes @ 0x0
   979                           
   980  0070                     ??_int_usart:	
   981                           ; 1 bytes @ 0x0
   982                           
   983                           
   984                           ; 1 bytes @ 0x0
   985  0070                     	ds	5
   986  0075                     int_usart@recibir:	
   987                           
   988                           ; 2 bytes @ 0x5
   989  0075                     	ds	2
   990  0077                     int_usart@i:	
   991                           
   992                           ; 2 bytes @ 0x7
   993  0077                     	ds	2
   994                           
   995                           	psect	cstackBANK0
   996  0020                     __pcstackBANK0:	
   997  0020                     ?___flge:	
   998  0020                     ??_eeprom_read:	
   999                           ; 1 bit 
  1000                           
  1001  0020                     ??_iniciar_usart:	
  1002                           ; 1 bytes @ 0x0
  1003                           
  1004  0020                     ??_bailenLeds:	
  1005                           ; 1 bytes @ 0x0
  1006                           
  1007  0020                     ?___bmul:	
  1008                           ; 1 bytes @ 0x0
  1009                           
  1010  0020                     ?__Umul8_16:	
  1011                           ; 1 bytes @ 0x0
  1012                           
  1013  0020                     ?___lwdiv:	
  1014                           ; 2 bytes @ 0x0
  1015                           
  1016  0020                     ?___lwmod:	
  1017                           ; 2 bytes @ 0x0
  1018                           
  1019  0020                     ?___flneg:	
  1020                           ; 2 bytes @ 0x0
  1021                           
  1022  0020                     ?___fldiv:	
  1023                           ; 4 bytes @ 0x0
  1024                           
  1025  0020                     ?___xxtofl:	
  1026                           ; 4 bytes @ 0x0
  1027                           
  1028  0020                     ___bmul@multiplicand:	
  1029                           ; 4 bytes @ 0x0
  1030                           
  1031  0020                     __Umul8_16@multiplicand:	
  1032                           ; 1 bytes @ 0x0
  1033                           
  1034  0020                     ___lwdiv@divisor:	
  1035                           ; 1 bytes @ 0x0
  1036                           
  1037  0020                     ___lwmod@divisor:	
  1038                           ; 2 bytes @ 0x0
  1039                           
  1040  0020                     ___flge@ff1:	
  1041                           ; 2 bytes @ 0x0
  1042                           
  1043  0020                     ___flneg@f1:	
  1044                           ; 4 bytes @ 0x0
  1045                           
  1046  0020                     ___fldiv@a:	
  1047                           ; 4 bytes @ 0x0
  1048                           
  1049  0020                     ___xxtofl@val:	
  1050                           ; 4 bytes @ 0x0
  1051                           
  1052                           
  1053                           ; 4 bytes @ 0x0
  1054  0020                     	ds	1
  1055  0021                     ??___bmul:	
  1056  0021                     eeprom_read@addr:	
  1057                           ; 1 bytes @ 0x1
  1058                           
  1059                           
  1060                           ; 1 bytes @ 0x1
  1061  0021                     	ds	1
  1062  0022                     ??__Umul8_16:	
  1063  0022                     ___bmul@product:	
  1064                           ; 1 bytes @ 0x2
  1065                           
  1066  0022                     bailenLeds@i:	
  1067                           ; 1 bytes @ 0x2
  1068                           
  1069  0022                     ___lwdiv@dividend:	
  1070                           ; 2 bytes @ 0x2
  1071                           
  1072  0022                     ___lwmod@dividend:	
  1073                           ; 2 bytes @ 0x2
  1074                           
  1075                           
  1076                           ; 2 bytes @ 0x2
  1077  0022                     	ds	1
  1078  0023                     ___bmul@multiplier:	
  1079                           
  1080                           ; 1 bytes @ 0x3
  1081  0023                     	ds	1
  1082  0024                     ?_eeprom_write:	
  1083  0024                     ??___flneg:	
  1084                           ; 1 bytes @ 0x4
  1085                           
  1086  0024                     ??___lwdiv:	
  1087                           ; 1 bytes @ 0x4
  1088                           
  1089  0024                     ??___lwmod:	
  1090                           ; 1 bytes @ 0x4
  1091                           
  1092  0024                     ??___xxtofl:	
  1093                           ; 1 bytes @ 0x4
  1094                           
  1095  0024                     ?___wmul:	
  1096                           ; 1 bytes @ 0x4
  1097                           
  1098  0024                     eeprom_write@value:	
  1099                           ; 2 bytes @ 0x4
  1100                           
  1101  0024                     ___wmul@multiplier:	
  1102                           ; 1 bytes @ 0x4
  1103                           
  1104  0024                     __Umul8_16@product:	
  1105                           ; 2 bytes @ 0x4
  1106                           
  1107  0024                     ___flge@ff2:	
  1108                           ; 2 bytes @ 0x4
  1109                           
  1110  0024                     ___fldiv@b:	
  1111                           ; 4 bytes @ 0x4
  1112                           
  1113                           
  1114                           ; 4 bytes @ 0x4
  1115  0024                     	ds	1
  1116  0025                     ??_eeprom_write:	
  1117  0025                     ___lwmod@counter:	
  1118                           ; 1 bytes @ 0x5
  1119                           
  1120  0025                     ___lwdiv@quotient:	
  1121                           ; 1 bytes @ 0x5
  1122                           
  1123                           
  1124                           ; 2 bytes @ 0x5
  1125  0025                     	ds	1
  1126  0026                     eeprom_write@addr:	
  1127  0026                     ___wmul@multiplicand:	
  1128                           ; 1 bytes @ 0x6
  1129                           
  1130  0026                     __Umul8_16@word_mpld:	
  1131                           ; 2 bytes @ 0x6
  1132                           
  1133                           
  1134                           ; 2 bytes @ 0x6
  1135  0026                     	ds	1
  1136  0027                     ___lwdiv@counter:	
  1137                           
  1138                           ; 1 bytes @ 0x7
  1139  0027                     	ds	1
  1140  0028                     ?_mostrarDigitos:	
  1141  0028                     ??___wmul:	
  1142                           ; 1 bytes @ 0x8
  1143                           
  1144  0028                     ??___flge:	
  1145                           ; 1 bytes @ 0x8
  1146                           
  1147  0028                     ??___fldiv:	
  1148                           ; 1 bytes @ 0x8
  1149                           
  1150  0028                     ___xxtofl@sign:	
  1151                           ; 1 bytes @ 0x8
  1152                           
  1153  0028                     __Umul8_16@multiplier:	
  1154                           ; 1 bytes @ 0x8
  1155                           
  1156  0028                     mostrarDigitos@num:	
  1157                           ; 1 bytes @ 0x8
  1158                           
  1159  0028                     ___wmul@product:	
  1160                           ; 2 bytes @ 0x8
  1161                           
  1162                           
  1163                           ; 2 bytes @ 0x8
  1164  0028                     	ds	1
  1165  0029                     ___xxtofl@exp:	
  1166                           
  1167                           ; 1 bytes @ 0x9
  1168  0029                     	ds	1
  1169  002A                     ??_mostrarDigitos:	
  1170  002A                     ___xxtofl@arg:	
  1171                           ; 1 bytes @ 0xA
  1172                           
  1173                           
  1174                           ; 4 bytes @ 0xA
  1175  002A                     	ds	2
  1176  002C                     ??_accionesAceptar:	
  1177  002C                     ??_accionesDeshacer:	
  1178                           ; 1 bytes @ 0xC
  1179                           
  1180                           
  1181                           ; 1 bytes @ 0xC
  1182  002C                     	ds	1
  1183  002D                     ___fldiv@rem:	
  1184                           
  1185                           ; 4 bytes @ 0xD
  1186  002D                     	ds	1
  1187  002E                     ?___fleq:	
  1188  002E                     ?___fltol:	
  1189                           ; 1 bit 
  1190                           
  1191  002E                     ___fleq@ff1:	
  1192                           ; 4 bytes @ 0xE
  1193                           
  1194  002E                     ___fltol@f1:	
  1195                           ; 4 bytes @ 0xE
  1196                           
  1197                           
  1198                           ; 4 bytes @ 0xE
  1199  002E                     	ds	3
  1200  0031                     ___fldiv@sign:	
  1201                           
  1202                           ; 1 bytes @ 0x11
  1203  0031                     	ds	1
  1204  0032                     ??___fltol:	
  1205  0032                     ___fldiv@new_exp:	
  1206                           ; 1 bytes @ 0x12
  1207                           
  1208  0032                     ___fleq@ff2:	
  1209                           ; 2 bytes @ 0x12
  1210                           
  1211                           
  1212                           ; 4 bytes @ 0x12
  1213  0032                     	ds	2
  1214  0034                     ___fldiv@grs:	
  1215                           
  1216                           ; 4 bytes @ 0x14
  1217  0034                     	ds	2
  1218  0036                     ??___fleq:	
  1219                           
  1220                           ; 1 bytes @ 0x16
  1221  0036                     	ds	1
  1222  0037                     ___fltol@sign1:	
  1223                           
  1224                           ; 1 bytes @ 0x17
  1225  0037                     	ds	1
  1226  0038                     ___fltol@exp1:	
  1227  0038                     ___fldiv@bexp:	
  1228                           ; 1 bytes @ 0x18
  1229                           
  1230                           
  1231                           ; 1 bytes @ 0x18
  1232  0038                     	ds	1
  1233  0039                     ___fldiv@aexp:	
  1234                           
  1235                           ; 1 bytes @ 0x19
  1236  0039                     	ds	1
  1237  003A                     ?_frexp:	
  1238  003A                     frexp@value:	
  1239                           ; 4 bytes @ 0x1A
  1240                           
  1241                           
  1242                           ; 4 bytes @ 0x1A
  1243  003A                     	ds	4
  1244  003E                     frexp@eptr:	
  1245                           
  1246                           ; 1 bytes @ 0x1E
  1247  003E                     	ds	1
  1248  003F                     ??_frexp:	
  1249                           
  1250                           ; 1 bytes @ 0x1F
  1251  003F                     	ds	2
  1252  0041                     ?___flmul:	
  1253  0041                     ___flmul@b:	
  1254                           ; 4 bytes @ 0x21
  1255                           
  1256                           
  1257                           ; 4 bytes @ 0x21
  1258  0041                     	ds	4
  1259  0045                     ___flmul@a:	
  1260                           
  1261                           ; 4 bytes @ 0x25
  1262  0045                     	ds	4
  1263  0049                     ??___flmul:	
  1264                           
  1265                           ; 1 bytes @ 0x29
  1266  0049                     	ds	5
  1267  004E                     ___flmul@sign:	
  1268                           
  1269                           ; 1 bytes @ 0x2E
  1270  004E                     	ds	1
  1271  004F                     ___flmul@grs:	
  1272                           
  1273                           ; 4 bytes @ 0x2F
  1274  004F                     	ds	4
  1275  0053                     ___flmul@aexp:	
  1276                           
  1277                           ; 1 bytes @ 0x33
  1278  0053                     	ds	1
  1279  0054                     ___flmul@bexp:	
  1280                           
  1281                           ; 1 bytes @ 0x34
  1282  0054                     	ds	1
  1283  0055                     ___flmul@prod:	
  1284                           
  1285                           ; 4 bytes @ 0x35
  1286  0055                     	ds	4
  1287  0059                     ___flmul@temp:	
  1288                           
  1289                           ; 2 bytes @ 0x39
  1290  0059                     	ds	2
  1291  005B                     ?___fladd:	
  1292  005B                     ___fladd@b:	
  1293                           ; 4 bytes @ 0x3B
  1294                           
  1295                           
  1296                           ; 4 bytes @ 0x3B
  1297  005B                     	ds	4
  1298  005F                     ___fladd@a:	
  1299                           
  1300                           ; 4 bytes @ 0x3F
  1301  005F                     	ds	4
  1302  0063                     ??___fladd:	
  1303                           
  1304                           ; 1 bytes @ 0x43
  1305  0063                     	ds	8
  1306  006B                     ___fladd@signs:	
  1307                           
  1308                           ; 1 bytes @ 0x4B
  1309  006B                     	ds	1
  1310  006C                     ___fladd@aexp:	
  1311                           
  1312                           ; 1 bytes @ 0x4C
  1313  006C                     	ds	1
  1314  006D                     ___fladd@bexp:	
  1315                           
  1316                           ; 1 bytes @ 0x4D
  1317  006D                     	ds	1
  1318  006E                     ___fladd@grs:	
  1319                           
  1320                           ; 1 bytes @ 0x4E
  1321  006E                     	ds	1
  1322  006F                     ??_log:	
  1323  006F                     ??_floor:	
  1324                           ; 1 bytes @ 0x4F
  1325                           
  1326  006F                     ??___flsub:	
  1327                           ; 1 bytes @ 0x4F
  1328                           
  1329                           
  1330                           ; 1 bytes @ 0x4F
  1331  006F                     	ds	1
  1332                           
  1333                           	psect	maintext
  1334  130C                     __pmaintext:	
  1335 ;;
  1336 ;;Main: autosize = 0, tempsize = 8, incstack = 0, save=0
  1337 ;;
  1338 ;; *************** function _main *****************
  1339 ;; Defined at:
  1340 ;;		line 185 in file "main.c"
  1341 ;; Parameters:    Size  Location     Type
  1342 ;;		None
  1343 ;; Auto vars:     Size  Location     Type
  1344 ;;  j               2   76[BANK1 ] short 
  1345 ;;  i               2   74[BANK1 ] short 
  1346 ;; Return value:  Size  Location     Type
  1347 ;;                  1    wreg      void 
  1348 ;; Registers used:
  1349 ;;		wreg, fsr0l, fsr0h, status,2, status,0, btemp+1, pclath, cstack
  1350 ;; Tracked objects:
  1351 ;;		On entry : B00/0
  1352 ;;		On exit  : 0/0
  1353 ;;		Unchanged: 0/0
  1354 ;; Data sizes:     COMMON   BANK0   BANK1   BANK3   BANK2
  1355 ;;      Params:         0       0       0       0       0
  1356 ;;      Locals:         0       0       4       0       0
  1357 ;;      Temps:          0       0       0       8       0
  1358 ;;      Totals:         0       0       4       8       0
  1359 ;;Total ram usage:       12 bytes
  1360 ;; Hardware stack levels required when called:    8
  1361 ;; This function calls:
  1362 ;;		___bmul
  1363 ;;		_accionesAceptar
  1364 ;;		_accionesDeshacer
  1365 ;;		_accionesPuertoSerial
  1366 ;;		_eeprom_read
  1367 ;;		_eeprom_write
  1368 ;;		_iniciar_usart
  1369 ;; This function is called by:
  1370 ;;		Startup code after reset
  1371 ;; This function uses a non-reentrant model
  1372 ;;
  1373                           
  1374                           
  1375                           ;psect for function _main
  1376  130C                     _main:	
  1377  130C                     l3244:	
  1378                           ;incstack = 0
  1379 ;; using string table level
  1380                           ; Regs used in _main: [wreg-fsr0h+status,2+status,0+btemp+1+pclath+cstack]
  1381                           
  1382                           
  1383                           ;main.c: 188:     TRISA = 0x06;
  1384  130C  3006               	movlw	6
  1385  130D  1683               	bsf	3,5	;RP0=1, select bank1
  1386  130E  1303               	bcf	3,6	;RP1=0, select bank1
  1387  130F  0085               	movwf	5	;volatile
  1388  1310                     l3246:	
  1389                           
  1390                           ;main.c: 189:     TRISB = 0x00;
  1391  1310  0186               	clrf	6	;volatile
  1392  1311                     l3248:	
  1393                           
  1394                           ;main.c: 190:     TRISD = 0x00;
  1395  1311  0188               	clrf	8	;volatile
  1396                           
  1397                           ;main.c: 191:     INTCON = 0b11000000;
  1398  1312  30C0               	movlw	192
  1399  1313  008B               	movwf	11	;volatile
  1400  1314                     l3250:	
  1401                           
  1402                           ;main.c: 192:     PIE1bits.RCIE=1;
  1403  1314  168C               	bsf	12,5	;volatile
  1404  1315                     l3252:	
  1405                           
  1406                           ;main.c: 194:     iniciar_usart();
  1407  1315  160A  158A  2546  160A  118A  	fcall	_iniciar_usart
  1408  131A                     l3254:	
  1409                           
  1410                           ;main.c: 197:     if (eeprom_read(0x00) != '0') {
  1411  131A  3000               	movlw	0
  1412  131B  160A  158A  2589  160A  118A  	fcall	_eeprom_read
  1413  1320  3A30               	xorlw	48
  1414  1321  1903               	skipnz
  1415  1322  2B24               	goto	u4741
  1416  1323  2B25               	goto	u4740
  1417  1324                     u4741:	
  1418  1324  2BAB               	goto	l109
  1419  1325                     u4740:	
  1420  1325                     l3256:	
  1421                           
  1422                           ;main.c: 199:         for(short int i = 0; i < 13; i++) {
  1423  1325  1683               	bsf	3,5	;RP0=1, select bank1
  1424  1326  1303               	bcf	3,6	;RP1=0, select bank1
  1425  1327  01EA               	clrf	main@i^(0+128)
  1426  1328  01EB               	clrf	(main@i+1)^(0+128)
  1427  1329                     l3262:	
  1428                           
  1429                           ;main.c: 200:             for(short int j = 0; j < (8 + 3); j++) {
  1430  1329  1683               	bsf	3,5	;RP0=1, select bank1
  1431  132A  1303               	bcf	3,6	;RP1=0, select bank1
  1432  132B  01EC               	clrf	main@j^(0+128)
  1433  132C  01ED               	clrf	(main@j+1)^(0+128)
  1434  132D                     l3268:	
  1435                           
  1436                           ;main.c: 201:                 eeprom_write(0x00+(8 + 3)*i + j,(productos[i])[j]);
  1437  132D  1683               	bsf	3,5	;RP0=1, select bank1
  1438  132E  1303               	bcf	3,6	;RP1=0, select bank1
  1439  132F  086A               	movf	main@i^(0+128),w
  1440  1330  1683               	bsf	3,5	;RP0=1, select bank3
  1441  1331  1703               	bsf	3,6	;RP1=1, select bank3
  1442  1332  00BC               	movwf	??_main^(0+384)
  1443  1333  073C               	addwf	??_main^(0+384),w
  1444  1334  3E90               	addlw	(low (_productos| (0+256)))& (0+255)
  1445  1335  0084               	movwf	4
  1446  1336  1783               	bsf	3,7	;select IRP bank3
  1447  1337  0800               	movf	0,w
  1448  1338  00BD               	movwf	(??_main+1)^(0+384)
  1449  1339  0A84               	incf	4,f
  1450  133A  0800               	movf	0,w
  1451  133B  00BE               	movwf	((??_main+1)^(0+384)+1)
  1452  133C  1683               	bsf	3,5	;RP0=1, select bank1
  1453  133D  1303               	bcf	3,6	;RP1=0, select bank1
  1454  133E  086C               	movf	main@j^(0+128),w
  1455  133F  1683               	bsf	3,5	;RP0=1, select bank3
  1456  1340  1703               	bsf	3,6	;RP1=1, select bank3
  1457  1341  073D               	addwf	(??_main+1)^(0+384),w
  1458  1342  00C0               	movwf	(??_main+4)^(0+384)
  1459  1343  083E               	movf	(??_main+2)^(0+384),w
  1460  1344  00BF               	movwf	(??_main+3)^(0+384)
  1461  1345  1803               	skipnc
  1462  1346  0ABF               	incf	(??_main+3)^(0+384),f
  1463  1347  1683               	bsf	3,5	;RP0=1, select bank1
  1464  1348  1303               	bcf	3,6	;RP1=0, select bank1
  1465  1349  1FEC               	btfss	main@j^(0+128),7
  1466  134A  2B4E               	goto	u4750
  1467  134B  1683               	bsf	3,5	;RP0=1, select bank3
  1468  134C  1703               	bsf	3,6	;RP1=1, select bank3
  1469  134D  03BF               	decf	(??_main+3)^(0+384),f
  1470  134E                     u4750:	
  1471  134E  1683               	bsf	3,5	;RP0=1, select bank3
  1472  134F  1703               	bsf	3,6	;RP1=1, select bank3
  1473  1350  083F               	movf	(??_main+3)^(0+384),w
  1474  1351  00C1               	movwf	((??_main+4)^(0+384)+1)
  1475  1352  0841               	movf	(??_main+5)^(0+384),w
  1476  1353  1283               	bcf	3,5	;RP0=0, select bank0
  1477  1354  1303               	bcf	3,6	;RP1=0, select bank0
  1478  1355  00FF               	movwf	btemp+1
  1479  1356  1683               	bsf	3,5	;RP0=1, select bank3
  1480  1357  1703               	bsf	3,6	;RP1=1, select bank3
  1481  1358  0840               	movf	(??_main+4)^(0+384),w
  1482  1359  0084               	movwf	4
  1483  135A  1283               	bcf	3,5	;RP0=0, select bank0
  1484  135B  1303               	bcf	3,6	;RP1=0, select bank0
  1485  135C  160A  158A  2000  160A  118A  	fcall	stringtab
  1486  1361  1683               	bsf	3,5	;RP0=1, select bank3
  1487  1362  1703               	bsf	3,6	;RP1=1, select bank3
  1488  1363  00C2               	movwf	(??_main+6)^(0+384)
  1489  1364  0842               	movf	(??_main+6)^(0+384),w
  1490  1365  1283               	bcf	3,5	;RP0=0, select bank0
  1491  1366  1303               	bcf	3,6	;RP1=0, select bank0
  1492  1367  00A4               	movwf	eeprom_write@value
  1493  1368  300B               	movlw	11
  1494  1369  1683               	bsf	3,5	;RP0=1, select bank3
  1495  136A  1703               	bsf	3,6	;RP1=1, select bank3
  1496  136B  00C3               	movwf	(??_main+7)^(0+384)
  1497  136C  0843               	movf	(??_main+7)^(0+384),w
  1498  136D  1283               	bcf	3,5	;RP0=0, select bank0
  1499  136E  1303               	bcf	3,6	;RP1=0, select bank0
  1500  136F  00A0               	movwf	___bmul@multiplicand
  1501  1370  1683               	bsf	3,5	;RP0=1, select bank1
  1502  1371  1303               	bcf	3,6	;RP1=0, select bank1
  1503  1372  086A               	movf	main@i^(0+128),w
  1504  1373  160A  158A  2555  160A  118A  	fcall	___bmul
  1505  1378  1683               	bsf	3,5	;RP0=1, select bank1
  1506  1379  1303               	bcf	3,6	;RP1=0, select bank1
  1507  137A  076C               	addwf	main@j^(0+128),w
  1508  137B  160A  158A  25EF  160A  118A  	fcall	_eeprom_write
  1509  1380                     l3270:	
  1510                           
  1511                           ;main.c: 202:             }
  1512  1380  3001               	movlw	1
  1513  1381  1683               	bsf	3,5	;RP0=1, select bank1
  1514  1382  1303               	bcf	3,6	;RP1=0, select bank1
  1515  1383  07EC               	addwf	main@j^(0+128),f
  1516  1384  1803               	skipnc
  1517  1385  0AED               	incf	(main@j+1)^(0+128),f
  1518  1386  3000               	movlw	0
  1519  1387  07ED               	addwf	(main@j+1)^(0+128),f
  1520  1388                     l3272:	
  1521  1388  086D               	movf	(main@j+1)^(0+128),w
  1522  1389  3A80               	xorlw	128
  1523  138A  00FF               	movwf	btemp+1
  1524  138B  3080               	movlw	128
  1525  138C  027F               	subwf	btemp+1,w
  1526  138D  1D03               	skipz
  1527  138E  2B91               	goto	u4765
  1528  138F  300B               	movlw	11
  1529  1390  026C               	subwf	main@j^(0+128),w
  1530  1391                     u4765:	
  1531  1391  1C03               	skipc
  1532  1392  2B94               	goto	u4761
  1533  1393  2B95               	goto	u4760
  1534  1394                     u4761:	
  1535  1394  2B2D               	goto	l3268
  1536  1395                     u4760:	
  1537  1395                     l3274:	
  1538                           
  1539                           ;main.c: 203:         }
  1540  1395  3001               	movlw	1
  1541  1396  1683               	bsf	3,5	;RP0=1, select bank1
  1542  1397  1303               	bcf	3,6	;RP1=0, select bank1
  1543  1398  07EA               	addwf	main@i^(0+128),f
  1544  1399  1803               	skipnc
  1545  139A  0AEB               	incf	(main@i+1)^(0+128),f
  1546  139B  3000               	movlw	0
  1547  139C  07EB               	addwf	(main@i+1)^(0+128),f
  1548  139D                     l3276:	
  1549  139D  086B               	movf	(main@i+1)^(0+128),w
  1550  139E  3A80               	xorlw	128
  1551  139F  00FF               	movwf	btemp+1
  1552  13A0  3080               	movlw	128
  1553  13A1  027F               	subwf	btemp+1,w
  1554  13A2  1D03               	skipz
  1555  13A3  2BA6               	goto	u4775
  1556  13A4  300D               	movlw	13
  1557  13A5  026A               	subwf	main@i^(0+128),w
  1558  13A6                     u4775:	
  1559  13A6  1C03               	skipc
  1560  13A7  2BA9               	goto	u4771
  1561  13A8  2BAA               	goto	u4770
  1562  13A9                     u4771:	
  1563  13A9  2B29               	goto	l3262
  1564  13AA                     u4770:	
  1565  13AA  2BAB               	goto	l109
  1566  13AB                     l104:	
  1567                           ;main.c: 204:     }
  1568                           
  1569  13AB                     l109:	
  1570                           ;main.c: 206:     while(1) {
  1571                           
  1572                           
  1573                           ;main.c: 208:         if(RA1 == 1) {
  1574  13AB  1283               	bcf	3,5	;RP0=0, select bank0
  1575  13AC  1303               	bcf	3,6	;RP1=0, select bank0
  1576  13AD  1C85               	btfss	5,1	;volatile
  1577  13AE  2BB0               	goto	u4781
  1578  13AF  2BB1               	goto	u4780
  1579  13B0                     u4781:	
  1580  13B0  2BB7               	goto	l110
  1581  13B1                     u4780:	
  1582  13B1                     l3278:	
  1583                           
  1584                           ;main.c: 209:             accionesAceptar();
  1585  13B1  160A  158A  256C  160A  118A  	fcall	_accionesAceptar
  1586                           
  1587                           ;main.c: 210:         }
  1588  13B6  2BAB               	goto	l109
  1589  13B7                     l110:	
  1590                           ;main.c: 211:         else if(RA2 == 1){
  1591                           
  1592  13B7  1D05               	btfss	5,2	;volatile
  1593  13B8  2BBA               	goto	u4791
  1594  13B9  2BBB               	goto	u4790
  1595  13BA                     u4791:	
  1596  13BA  2BC1               	goto	l3282
  1597  13BB                     u4790:	
  1598  13BB                     l3280:	
  1599                           
  1600                           ;main.c: 212:             accionesDeshacer();
  1601  13BB  160A  158A  25A8  160A  118A  	fcall	_accionesDeshacer
  1602                           
  1603                           ;main.c: 213:         }
  1604  13C0  2BAB               	goto	l109
  1605  13C1                     l3282:	
  1606  13C1  1683               	bsf	3,5	;RP0=1, select bank3
  1607  13C2  1703               	bsf	3,6	;RP1=1, select bank3
  1608  13C3  084F               	movf	_huboInt^(0+384),w
  1609  13C4  0450               	iorwf	(_huboInt+1)^(0+384),w
  1610  13C5  1903               	btfsc	3,2
  1611  13C6  2BC8               	goto	u4801
  1612  13C7  2BC9               	goto	u4800
  1613  13C8                     u4801:	
  1614  13C8  2BAB               	goto	l104
  1615  13C9                     u4800:	
  1616  13C9                     l3284:	
  1617                           
  1618                           ;main.c: 215:             accionesPuertoSerial();
  1619  13C9  160A  118A  206E  160A  118A  	fcall	_accionesPuertoSerial
  1620  13CE  2BAB               	goto	l109
  1621  13CF  120A  118A  2812   	ljmp	start
  1622  13D2                     __end_of_main:	
  1623                           
  1624                           	psect	text1
  1625  1D46                     __ptext1:	
  1626 ;; *************** function _iniciar_usart *****************
  1627 ;; Defined at:
  1628 ;;		line 74 in file "main.c"
  1629 ;; Parameters:    Size  Location     Type
  1630 ;;		None
  1631 ;; Auto vars:     Size  Location     Type
  1632 ;;		None
  1633 ;; Return value:  Size  Location     Type
  1634 ;;                  1    wreg      void 
  1635 ;; Registers used:
  1636 ;;		wreg
  1637 ;; Tracked objects:
  1638 ;;		On entry : 0/0
  1639 ;;		On exit  : 0/0
  1640 ;;		Unchanged: 0/0
  1641 ;; Data sizes:     COMMON   BANK0   BANK1   BANK3   BANK2
  1642 ;;      Params:         0       0       0       0       0
  1643 ;;      Locals:         0       0       0       0       0
  1644 ;;      Temps:          0       0       0       0       0
  1645 ;;      Totals:         0       0       0       0       0
  1646 ;;Total ram usage:        0 bytes
  1647 ;; Hardware stack levels used:    1
  1648 ;; Hardware stack levels required when called:    1
  1649 ;; This function calls:
  1650 ;;		Nothing
  1651 ;; This function is called by:
  1652 ;;		_main
  1653 ;; This function uses a non-reentrant model
  1654 ;;
  1655                           
  1656                           
  1657                           ;psect for function _iniciar_usart
  1658  1D46                     _iniciar_usart:	
  1659  1D46                     l2972:	
  1660                           ;incstack = 0
  1661                           ; Regs used in _iniciar_usart: [wreg]
  1662                           
  1663                           
  1664                           ;main.c: 75:      TRISCbits.TRISC7=1;
  1665  1D46  1683               	bsf	3,5	;RP0=1, select bank1
  1666  1D47  1303               	bcf	3,6	;RP1=0, select bank1
  1667  1D48  1787               	bsf	7,7	;volatile
  1668                           
  1669                           ;main.c: 76:      TRISCbits.TRISC6=0;
  1670  1D49  1307               	bcf	7,6	;volatile
  1671  1D4A                     l2974:	
  1672                           
  1673                           ;main.c: 77:      TXSTA=0b00100110;
  1674  1D4A  3026               	movlw	38
  1675  1D4B  0098               	movwf	24	;volatile
  1676                           
  1677                           ;main.c: 78:      RCSTA=0b10010000;
  1678  1D4C  3090               	movlw	144
  1679  1D4D  1283               	bcf	3,5	;RP0=0, select bank0
  1680  1D4E  1303               	bcf	3,6	;RP1=0, select bank0
  1681  1D4F  0098               	movwf	24	;volatile
  1682                           
  1683                           ;main.c: 79:      SPBRG=22;
  1684  1D50  3016               	movlw	22
  1685  1D51  1683               	bsf	3,5	;RP0=1, select bank1
  1686  1D52  1303               	bcf	3,6	;RP1=0, select bank1
  1687  1D53  0099               	movwf	25	;volatile
  1688  1D54                     l65:	
  1689  1D54  0008               	return
  1690  1D55                     __end_of_iniciar_usart:	
  1691                           
  1692                           	psect	text2
  1693  1DEF                     __ptext2:	
  1694 ;; *************** function _eeprom_write *****************
  1695 ;; Defined at:
  1696 ;;		line 6 in file "C:\Program Files (x86)\Microchip\xc8\v2.10\pic\sources\c90\pic\__eewrite.c"
  1697 ;; Parameters:    Size  Location     Type
  1698 ;;  addr            1    wreg     unsigned char 
  1699 ;;  value           1    4[BANK0 ] unsigned char 
  1700 ;; Auto vars:     Size  Location     Type
  1701 ;;  addr            1    6[BANK0 ] unsigned char 
  1702 ;; Return value:  Size  Location     Type
  1703 ;;                  1    wreg      void 
  1704 ;; Registers used:
  1705 ;;		wreg, status,2, status,0
  1706 ;; Tracked objects:
  1707 ;;		On entry : 0/0
  1708 ;;		On exit  : 0/0
  1709 ;;		Unchanged: 0/0
  1710 ;; Data sizes:     COMMON   BANK0   BANK1   BANK3   BANK2
  1711 ;;      Params:         0       1       0       0       0
  1712 ;;      Locals:         0       1       0       0       0
  1713 ;;      Temps:          0       1       0       0       0
  1714 ;;      Totals:         0       3       0       0       0
  1715 ;;Total ram usage:        3 bytes
  1716 ;; Hardware stack levels used:    1
  1717 ;; Hardware stack levels required when called:    1
  1718 ;; This function calls:
  1719 ;;		Nothing
  1720 ;; This function is called by:
  1721 ;;		_main
  1722 ;; This function uses a non-reentrant model
  1723 ;;
  1724                           
  1725                           
  1726                           ;psect for function _eeprom_write
  1727  1DEF                     _eeprom_write:	
  1728                           
  1729                           ;incstack = 0
  1730                           ; Regs used in _eeprom_write: [wreg+status,2+status,0]
  1731                           ;eeprom_write@addr stored from wreg
  1732  1DEF  1283               	bcf	3,5	;RP0=0, select bank0
  1733  1DF0  1303               	bcf	3,6	;RP1=0, select bank0
  1734  1DF1  00A6               	movwf	eeprom_write@addr
  1735  1DF2                     l242:	
  1736                           ;C:\Program Files (x86)\Microchip\xc8\v2.10\pic\sources\c90\pic\__eewrite.c: 6: eeprom_w
      +                          rite(unsigned char addr, unsigned char value);C:\Program Files (x86)\Microchip\xc8\v2.10
      +                          \pic\sources\c90\pic\__eewrite.c: 7: {;C:\Program Files (x86)\Microchip\xc8\v2.10\pic\so
      +                          urces\c90\pic\__eewrite.c: 8:  do{ while (EECON1bits.WR) { continue; } EEADR = (addr); E
      +                          EDATA = (value); EECON1 &= 0x3F; STATUSbits.CARRY = 0; if (INTCONbits.GIE) { STATUSbits.
      +                          CARRY = 1; } INTCONbits.GIE = 0; EECON1bits.WREN = 1; EECON2 = 0x55; EECON2 = 0xAA; EECO
      +                          N1bits.WR = 1; EECON1bits.WREN = 0; if (STATUSbits.CARRY) { INTCONbits.GIE = 1; } } whil
      +                          e (0);
  1737                           
  1738  1DF2                     l243:	
  1739  1DF2  1683               	bsf	3,5	;RP0=1, select bank3
  1740  1DF3  1703               	bsf	3,6	;RP1=1, select bank3
  1741  1DF4  188C               	btfsc	12,1	;volsfr
  1742  1DF5  2DF7               	goto	u4421
  1743  1DF6  2DF8               	goto	u4420
  1744  1DF7                     u4421:	
  1745  1DF7  2DF2               	goto	l243
  1746  1DF8                     u4420:	
  1747  1DF8                     l3018:	
  1748  1DF8  1283               	bcf	3,5	;RP0=0, select bank0
  1749  1DF9  1303               	bcf	3,6	;RP1=0, select bank0
  1750  1DFA  0826               	movf	eeprom_write@addr,w
  1751  1DFB  1283               	bcf	3,5	;RP0=0, select bank2
  1752  1DFC  1703               	bsf	3,6	;RP1=1, select bank2
  1753  1DFD  008D               	movwf	13	;volatile
  1754  1DFE  1283               	bcf	3,5	;RP0=0, select bank0
  1755  1DFF  1303               	bcf	3,6	;RP1=0, select bank0
  1756  1E00  0824               	movf	eeprom_write@value,w
  1757  1E01  1283               	bcf	3,5	;RP0=0, select bank2
  1758  1E02  1703               	bsf	3,6	;RP1=1, select bank2
  1759  1E03  008C               	movwf	12	;volatile
  1760  1E04                     l3020:	
  1761  1E04  303F               	movlw	63
  1762  1E05  1283               	bcf	3,5	;RP0=0, select bank0
  1763  1E06  1303               	bcf	3,6	;RP1=0, select bank0
  1764  1E07  00A5               	movwf	??_eeprom_write
  1765  1E08  0825               	movf	??_eeprom_write,w
  1766  1E09  1683               	bsf	3,5	;RP0=1, select bank3
  1767  1E0A  1703               	bsf	3,6	;RP1=1, select bank3
  1768  1E0B  058C               	andwf	12,f	;volsfr
  1769  1E0C                     l3022:	
  1770  1E0C  1283               	bcf	3,5	;RP0=0, select bank0
  1771  1E0D  1303               	bcf	3,6	;RP1=0, select bank0
  1772  1E0E  1003               	bcf	3,0	;volatile
  1773  1E0F                     l3024:	
  1774  1E0F  1F8B               	btfss	11,7	;volatile
  1775  1E10  2E12               	goto	u4431
  1776  1E11  2E13               	goto	u4430
  1777  1E12                     u4431:	
  1778  1E12  2E14               	goto	l246
  1779  1E13                     u4430:	
  1780  1E13                     l3026:	
  1781  1E13  1403               	bsf	3,0	;volatile
  1782  1E14                     l246:	
  1783  1E14  138B               	bcf	11,7	;volatile
  1784  1E15  1683               	bsf	3,5	;RP0=1, select bank3
  1785  1E16  1703               	bsf	3,6	;RP1=1, select bank3
  1786  1E17  150C               	bsf	12,2	;volsfr
  1787  1E18                     l3028:	
  1788  1E18  3055               	movlw	85
  1789  1E19  008D               	movwf	13	;volsfr
  1790  1E1A  30AA               	movlw	170
  1791  1E1B  008D               	movwf	13	;volsfr
  1792  1E1C                     l3030:	
  1793  1E1C  148C               	bsf	12,1	;volsfr
  1794  1E1D                     l3032:	
  1795  1E1D  110C               	bcf	12,2	;volsfr
  1796  1E1E                     l3034:	
  1797  1E1E  1283               	bcf	3,5	;RP0=0, select bank0
  1798  1E1F  1303               	bcf	3,6	;RP1=0, select bank0
  1799  1E20  1C03               	btfss	3,0	;volatile
  1800  1E21  2E23               	goto	u4441
  1801  1E22  2E24               	goto	u4440
  1802  1E23                     u4441:	
  1803  1E23  2E25               	goto	l249
  1804  1E24                     u4440:	
  1805  1E24                     l3036:	
  1806  1E24  178B               	bsf	11,7	;volatile
  1807  1E25                     l249:	
  1808  1E25  0008               	return
  1809  1E26                     __end_of_eeprom_write:	
  1810                           
  1811                           	psect	text3
  1812  106E                     __ptext3:	
  1813 ;; *************** function _accionesPuertoSerial *****************
  1814 ;; Defined at:
  1815 ;;		line 155 in file "main.c"
  1816 ;; Parameters:    Size  Location     Type
  1817 ;;		None
  1818 ;; Auto vars:     Size  Location     Type
  1819 ;;  i               2   70[BANK1 ] int 
  1820 ;;  Aux             2   72[BANK1 ] short 
  1821 ;; Return value:  Size  Location     Type
  1822 ;;                  1    wreg      void 
  1823 ;; Registers used:
  1824 ;;		wreg, fsr0l, fsr0h, status,2, status,0, btemp+1, pclath, cstack
  1825 ;; Tracked objects:
  1826 ;;		On entry : 0/0
  1827 ;;		On exit  : 0/0
  1828 ;;		Unchanged: 0/0
  1829 ;; Data sizes:     COMMON   BANK0   BANK1   BANK3   BANK2
  1830 ;;      Params:         0       0       0       0       0
  1831 ;;      Locals:         0       0       4       0       0
  1832 ;;      Temps:          0       0       3       0       0
  1833 ;;      Totals:         0       0       7       0       0
  1834 ;;Total ram usage:        7 bytes
  1835 ;; Hardware stack levels used:    1
  1836 ;; Hardware stack levels required when called:    7
  1837 ;; This function calls:
  1838 ;;		_EEPROM_search
  1839 ;;		_mostrarDigitos
  1840 ;; This function is called by:
  1841 ;;		_main
  1842 ;; This function uses a non-reentrant model
  1843 ;;
  1844                           
  1845                           
  1846                           ;psect for function _accionesPuertoSerial
  1847  106E                     _accionesPuertoSerial:	
  1848  106E                     l3214:	
  1849                           ;incstack = 0
  1850                           ; Regs used in _accionesPuertoSerial: [wreg-fsr0h+status,2+status,0+btemp+1+pclath+cstac
      +                          k]
  1851                           
  1852                           
  1853                           ;main.c: 157:     short int Aux = 0;
  1854  106E  1683               	bsf	3,5	;RP0=1, select bank1
  1855  106F  1303               	bcf	3,6	;RP1=0, select bank1
  1856  1070  01E8               	clrf	accionesPuertoSerial@Aux^(0+128)
  1857  1071  01E9               	clrf	(accionesPuertoSerial@Aux+1)^(0+128)
  1858                           
  1859                           ;main.c: 159:     for (int i = 0; i < 8; i++ ) {
  1860  1072  01E6               	clrf	accionesPuertoSerial@i^(0+128)
  1861  1073  01E7               	clrf	(accionesPuertoSerial@i+1)^(0+128)
  1862  1074                     l3220:	
  1863                           
  1864                           ;main.c: 160:         Aux += (codigoEntrada[i] - '0');
  1865  1074  1683               	bsf	3,5	;RP0=1, select bank1
  1866  1075  1303               	bcf	3,6	;RP1=0, select bank1
  1867  1076  0866               	movf	accionesPuertoSerial@i^(0+128),w
  1868  1077  3EC4               	addlw	(low (_codigoEntrada| (0+256)))& (0+255)
  1869  1078  0084               	movwf	4
  1870  1079  1783               	bsf	3,7	;select IRP bank3
  1871  107A  0800               	movf	0,w
  1872  107B  3ED0               	addlw	208
  1873  107C  00E3               	movwf	??_accionesPuertoSerial^(0+128)
  1874  107D  30FF               	movlw	255
  1875  107E  1803               	skipnc
  1876  107F  3000               	movlw	0
  1877  1080  00E4               	movwf	(??_accionesPuertoSerial^(0+128)+1)
  1878  1081  0863               	movf	??_accionesPuertoSerial^(0+128),w
  1879  1082  07E8               	addwf	accionesPuertoSerial@Aux^(0+128),f
  1880  1083  1803               	skipnc
  1881  1084  0AE9               	incf	(accionesPuertoSerial@Aux+1)^(0+128),f
  1882  1085  0864               	movf	(??_accionesPuertoSerial+1)^(0+128),w
  1883  1086  07E9               	addwf	(accionesPuertoSerial@Aux+1)^(0+128),f
  1884  1087                     l3222:	
  1885                           
  1886                           ;main.c: 161:     }
  1887  1087  3001               	movlw	1
  1888  1088  07E6               	addwf	accionesPuertoSerial@i^(0+128),f
  1889  1089  1803               	skipnc
  1890  108A  0AE7               	incf	(accionesPuertoSerial@i+1)^(0+128),f
  1891  108B  3000               	movlw	0
  1892  108C  07E7               	addwf	(accionesPuertoSerial@i+1)^(0+128),f
  1893  108D                     l3224:	
  1894  108D  0867               	movf	(accionesPuertoSerial@i+1)^(0+128),w
  1895  108E  3A80               	xorlw	128
  1896  108F  00FF               	movwf	btemp+1
  1897  1090  3080               	movlw	128
  1898  1091  027F               	subwf	btemp+1,w
  1899  1092  1D03               	skipz
  1900  1093  2896               	goto	u4715
  1901  1094  3008               	movlw	8
  1902  1095  0266               	subwf	accionesPuertoSerial@i^(0+128),w
  1903  1096                     u4715:	
  1904  1096  1C03               	skipc
  1905  1097  2899               	goto	u4711
  1906  1098  289A               	goto	u4710
  1907  1099                     u4711:	
  1908  1099  2874               	goto	l3220
  1909  109A                     u4710:	
  1910  109A                     l3226:	
  1911                           
  1912                           ;main.c: 163:     if (Aux == (codigoEntrada[8] - '0')) {
  1913  109A  1683               	bsf	3,5	;RP0=1, select bank3
  1914  109B  1703               	bsf	3,6	;RP1=1, select bank3
  1915  109C  084C               	movf	(_codigoEntrada^(0+384)+8),w
  1916  109D  3ED0               	addlw	208
  1917  109E  1683               	bsf	3,5	;RP0=1, select bank1
  1918  109F  1303               	bcf	3,6	;RP1=0, select bank1
  1919  10A0  00E3               	movwf	??_accionesPuertoSerial^(0+128)
  1920  10A1  30FF               	movlw	255
  1921  10A2  1803               	skipnc
  1922  10A3  3000               	movlw	0
  1923  10A4  00E4               	movwf	(??_accionesPuertoSerial^(0+128)+1)
  1924  10A5  0869               	movf	(accionesPuertoSerial@Aux+1)^(0+128),w
  1925  10A6  0664               	xorwf	(??_accionesPuertoSerial+1)^(0+128),w
  1926  10A7  1D03               	skipz
  1927  10A8  28AB               	goto	u4725
  1928  10A9  0868               	movf	accionesPuertoSerial@Aux^(0+128),w
  1929  10AA  0663               	xorwf	??_accionesPuertoSerial^(0+128),w
  1930  10AB                     u4725:	
  1931  10AB  1D03               	skipz
  1932  10AC  28AE               	goto	u4721
  1933  10AD  28AF               	goto	u4720
  1934  10AE                     u4721:	
  1935  10AE  28EF               	goto	l96
  1936  10AF                     u4720:	
  1937  10AF                     l3228:	
  1938                           
  1939                           ;main.c: 165:         Aux = EEPROM_search();
  1940  10AF  120A  158A  2337  160A  118A  	fcall	_EEPROM_search
  1941  10B4  1683               	bsf	3,5	;RP0=1, select bank1
  1942  10B5  1303               	bcf	3,6	;RP1=0, select bank1
  1943  10B6  085F               	movf	(?_EEPROM_search+1)^(0+128),w
  1944  10B7  00E9               	movwf	(accionesPuertoSerial@Aux+1)^(0+128)
  1945  10B8  085E               	movf	?_EEPROM_search^(0+128),w
  1946  10B9  00E8               	movwf	accionesPuertoSerial@Aux^(0+128)
  1947  10BA                     l3230:	
  1948                           
  1949                           ;main.c: 167:         if ((cuenta + Aux) <= 999) {
  1950  10BA  1683               	bsf	3,5	;RP0=1, select bank3
  1951  10BB  1703               	bsf	3,6	;RP1=1, select bank3
  1952  10BC  0851               	movf	_cuenta^(0+384),w
  1953  10BD  1683               	bsf	3,5	;RP0=1, select bank1
  1954  10BE  1303               	bcf	3,6	;RP1=0, select bank1
  1955  10BF  0768               	addwf	accionesPuertoSerial@Aux^(0+128),w
  1956  10C0  00E3               	movwf	??_accionesPuertoSerial^(0+128)
  1957  10C1  1683               	bsf	3,5	;RP0=1, select bank3
  1958  10C2  1703               	bsf	3,6	;RP1=1, select bank3
  1959  10C3  0852               	movf	(_cuenta+1)^(0+384),w
  1960  10C4  1803               	skipnc
  1961  10C5  0A52               	incf	(_cuenta+1)^(0+384),w
  1962  10C6  1683               	bsf	3,5	;RP0=1, select bank1
  1963  10C7  1303               	bcf	3,6	;RP1=0, select bank1
  1964  10C8  0769               	addwf	(accionesPuertoSerial@Aux+1)^(0+128),w
  1965  10C9  00E4               	movwf	(??_accionesPuertoSerial+1)^(0+128)
  1966  10CA  3003               	movlw	3
  1967  10CB  0264               	subwf	(??_accionesPuertoSerial+1)^(0+128),w
  1968  10CC  30E8               	movlw	232
  1969  10CD  1903               	skipnz
  1970  10CE  0263               	subwf	??_accionesPuertoSerial^(0+128),w
  1971  10CF  1803               	skipnc
  1972  10D0  28D2               	goto	u4731
  1973  10D1  28D3               	goto	u4730
  1974  10D2                     u4731:	
  1975  10D2  28EF               	goto	l96
  1976  10D3                     u4730:	
  1977  10D3                     l3232:	
  1978                           
  1979                           ;main.c: 169:             cuenta += Aux;
  1980  10D3  0868               	movf	accionesPuertoSerial@Aux^(0+128),w
  1981  10D4  1683               	bsf	3,5	;RP0=1, select bank3
  1982  10D5  1703               	bsf	3,6	;RP1=1, select bank3
  1983  10D6  07D1               	addwf	_cuenta^(0+384),f
  1984  10D7  1803               	skipnc
  1985  10D8  0AD2               	incf	(_cuenta+1)^(0+384),f
  1986  10D9  1683               	bsf	3,5	;RP0=1, select bank1
  1987  10DA  1303               	bcf	3,6	;RP1=0, select bank1
  1988  10DB  0869               	movf	(accionesPuertoSerial@Aux+1)^(0+128),w
  1989  10DC  1683               	bsf	3,5	;RP0=1, select bank3
  1990  10DD  1703               	bsf	3,6	;RP1=1, select bank3
  1991  10DE  07D2               	addwf	(_cuenta+1)^(0+384),f
  1992  10DF                     l3234:	
  1993                           
  1994                           ;main.c: 170:             mostrarDigitos(cuenta);
  1995  10DF  0852               	movf	(_cuenta+1)^(0+384),w
  1996  10E0  1283               	bcf	3,5	;RP0=0, select bank0
  1997  10E1  1303               	bcf	3,6	;RP1=0, select bank0
  1998  10E2  00A9               	movwf	mostrarDigitos@num+1
  1999  10E3  1683               	bsf	3,5	;RP0=1, select bank3
  2000  10E4  1703               	bsf	3,6	;RP1=1, select bank3
  2001  10E5  0851               	movf	_cuenta^(0+384),w
  2002  10E6  1283               	bcf	3,5	;RP0=0, select bank0
  2003  10E7  1303               	bcf	3,6	;RP1=0, select bank0
  2004  10E8  00A8               	movwf	mostrarDigitos@num
  2005  10E9  160A  118A  21A9  160A  118A  	fcall	_mostrarDigitos
  2006                           
  2007                           ;main.c: 171:         }
  2008  10EE  2904               	goto	l99
  2009  10EF                     l96:	
  2010                           ;main.c: 172:         else {
  2011                           
  2012                           
  2013                           ;main.c: 173:             RA4 = 1;
  2014  10EF  1283               	bcf	3,5	;RP0=0, select bank0
  2015  10F0  1303               	bcf	3,6	;RP1=0, select bank0
  2016  10F1  1605               	bsf	5,4	;volatile
  2017  10F2                     l3236:	
  2018                           
  2019                           ;main.c: 174:             _delay((unsigned long)((1000)*(3579545/4000.0)));
  2020  10F2  3005               	movlw	5
  2021  10F3  1683               	bsf	3,5	;RP0=1, select bank1
  2022  10F4  1303               	bcf	3,6	;RP1=0, select bank1
  2023  10F5  00E5               	movwf	(??_accionesPuertoSerial^(0+128)+2)
  2024  10F6  308B               	movlw	139
  2025  10F7  00E4               	movwf	(??_accionesPuertoSerial^(0+128)+1)
  2026  10F8  302A               	movlw	42
  2027  10F9  00E3               	movwf	??_accionesPuertoSerial^(0+128)
  2028  10FA                     u4817:	
  2029  10FA  0BE3               	decfsz	??_accionesPuertoSerial^(0+128),f
  2030  10FB  28FA               	goto	u4817
  2031  10FC  0BE4               	decfsz	(??_accionesPuertoSerial^(0+128)+1),f
  2032  10FD  28FA               	goto	u4817
  2033  10FE  0BE5               	decfsz	(??_accionesPuertoSerial^(0+128)+2),f
  2034  10FF  28FA               	goto	u4817
  2035  1100  0000               	nop
  2036  1101                     l3238:	
  2037                           
  2038                           ;main.c: 175:             RA4 = 0;
  2039  1101  1283               	bcf	3,5	;RP0=0, select bank0
  2040  1102  1303               	bcf	3,6	;RP1=0, select bank0
  2041  1103  1205               	bcf	5,4	;volatile
  2042  1104                     l99:	
  2043  1104  0008               	return
  2044  1105                     __end_of_accionesPuertoSerial:	
  2045                           
  2046                           	psect	text4
  2047  0B37                     __ptext4:	
  2048 ;; *************** function _EEPROM_search *****************
  2049 ;; Defined at:
  2050 ;;		line 113 in file "main.c"
  2051 ;; Parameters:    Size  Location     Type
  2052 ;;		None
  2053 ;; Auto vars:     Size  Location     Type
  2054 ;;  i               2   14[BANK3 ] int 
  2055 ;;  numProd         2   16[BANK3 ] short 
  2056 ;;  direccion       2   12[BANK3 ] short 
  2057 ;;  esta            2   10[BANK3 ] short 
  2058 ;;  precio          2    0[BANK3 ] short 
  2059 ;; Return value:  Size  Location     Type
  2060 ;;                  2   62[BANK1 ] short 
  2061 ;; Registers used:
  2062 ;;		wreg, fsr0l, fsr0h, status,2, status,0, btemp+1, pclath, cstack
  2063 ;; Tracked objects:
  2064 ;;		On entry : 0/0
  2065 ;;		On exit  : 0/0
  2066 ;;		Unchanged: 0/0
  2067 ;; Data sizes:     COMMON   BANK0   BANK1   BANK3   BANK2
  2068 ;;      Params:         0       0       2       0       0
  2069 ;;      Locals:         0       0       0      18       0
  2070 ;;      Temps:          0       0       3       0       0
  2071 ;;      Totals:         0       0       5      18       0
  2072 ;;Total ram usage:       23 bytes
  2073 ;; Hardware stack levels used:    1
  2074 ;; Hardware stack levels required when called:    6
  2075 ;; This function calls:
  2076 ;;		___bmul
  2077 ;;		___fltol
  2078 ;;		___wmul
  2079 ;;		___xxtofl
  2080 ;;		_eeprom_read
  2081 ;;		_pow
  2082 ;; This function is called by:
  2083 ;;		_accionesPuertoSerial
  2084 ;; This function uses a non-reentrant model
  2085 ;;
  2086                           
  2087                           
  2088                           ;psect for function _EEPROM_search
  2089  0B37                     _EEPROM_search:	
  2090  0B37                     l3162:	
  2091                           ;incstack = 0
  2092                           ; Regs used in _EEPROM_search: [wreg-fsr0h+status,2+status,0+btemp+1+pclath+cstack]
  2093                           
  2094                           
  2095                           ;main.c: 115:     short int esta = 0;
  2096  0B37  1683               	bsf	3,5	;RP0=1, select bank3
  2097  0B38  1703               	bsf	3,6	;RP1=1, select bank3
  2098  0B39  01B4               	clrf	EEPROM_search@esta^(0+384)
  2099  0B3A  01B5               	clrf	(EEPROM_search@esta+1)^(0+384)
  2100                           
  2101                           ;main.c: 116:     short int direccion = 0;
  2102  0B3B  01B6               	clrf	EEPROM_search@direccion^(0+384)
  2103  0B3C  01B7               	clrf	(EEPROM_search@direccion+1)^(0+384)
  2104                           
  2105                           ;main.c: 117:     short int numProd = 0;
  2106  0B3D  01BA               	clrf	EEPROM_search@numProd^(0+384)
  2107  0B3E  01BB               	clrf	(EEPROM_search@numProd+1)^(0+384)
  2108  0B3F                     l3164:	
  2109                           
  2110                           ;main.c: 118:     short int precio = -1;
  2111  0B3F  30FF               	movlw	255
  2112  0B40  00AA               	movwf	EEPROM_search@precio^(0+384)
  2113  0B41  30FF               	movlw	255
  2114  0B42  00AB               	movwf	(EEPROM_search@precio^(0+384)+1)
  2115                           
  2116                           ;main.c: 120:     while (esta < 8 && direccion < (8 + 3)*13) {
  2117  0B43  2B93               	goto	l3190
  2118  0B44                     l3166:	
  2119                           
  2120                           ;main.c: 122:         for(int i = 0; i < 8; i++) {
  2121  0B44  1683               	bsf	3,5	;RP0=1, select bank3
  2122  0B45  1703               	bsf	3,6	;RP1=1, select bank3
  2123  0B46  01B8               	clrf	EEPROM_search@i^(0+384)
  2124  0B47  01B9               	clrf	(EEPROM_search@i+1)^(0+384)
  2125  0B48                     l3172:	
  2126                           
  2127                           ;main.c: 125:             if(codigoEntrada[i] == eeprom_read(direccion)) {
  2128  0B48  1683               	bsf	3,5	;RP0=1, select bank3
  2129  0B49  1703               	bsf	3,6	;RP1=1, select bank3
  2130  0B4A  0838               	movf	EEPROM_search@i^(0+384),w
  2131  0B4B  3EC4               	addlw	(low (_codigoEntrada| (0+256)))& (0+255)
  2132  0B4C  0084               	movwf	4
  2133  0B4D  0836               	movf	EEPROM_search@direccion^(0+384),w
  2134  0B4E  160A  158A  2589  120A  158A  	fcall	_eeprom_read
  2135  0B53  1783               	bsf	3,7	;select IRP bank3
  2136  0B54  0600               	xorwf	0,w
  2137  0B55  1D03               	skipz
  2138  0B56  2B58               	goto	u4651
  2139  0B57  2B59               	goto	u4650
  2140  0B58                     u4651:	
  2141  0B58  2B62               	goto	l3176
  2142  0B59                     u4650:	
  2143  0B59                     l3174:	
  2144                           
  2145                           ;main.c: 126:                 esta++;
  2146  0B59  3001               	movlw	1
  2147  0B5A  1683               	bsf	3,5	;RP0=1, select bank3
  2148  0B5B  1703               	bsf	3,6	;RP1=1, select bank3
  2149  0B5C  07B4               	addwf	EEPROM_search@esta^(0+384),f
  2150  0B5D  1803               	skipnc
  2151  0B5E  0AB5               	incf	(EEPROM_search@esta+1)^(0+384),f
  2152  0B5F  3000               	movlw	0
  2153  0B60  07B5               	addwf	(EEPROM_search@esta+1)^(0+384),f
  2154                           
  2155                           ;main.c: 127:             }
  2156  0B61  2B6A               	goto	l3180
  2157  0B62                     l3176:	
  2158                           
  2159                           ;main.c: 129:                 esta = 0;
  2160  0B62  1683               	bsf	3,5	;RP0=1, select bank3
  2161  0B63  1703               	bsf	3,6	;RP1=1, select bank3
  2162  0B64  01B4               	clrf	EEPROM_search@esta^(0+384)
  2163  0B65  01B5               	clrf	(EEPROM_search@esta+1)^(0+384)
  2164  0B66                     l3178:	
  2165                           
  2166                           ;main.c: 130:                 i = 8;
  2167  0B66  3008               	movlw	8
  2168  0B67  00B8               	movwf	EEPROM_search@i^(0+384)
  2169  0B68  3000               	movlw	0
  2170  0B69  00B9               	movwf	(EEPROM_search@i^(0+384)+1)
  2171  0B6A                     l3180:	
  2172                           
  2173                           ;main.c: 132:             direccion++;
  2174  0B6A  3001               	movlw	1
  2175  0B6B  07B6               	addwf	EEPROM_search@direccion^(0+384),f
  2176  0B6C  1803               	skipnc
  2177  0B6D  0AB7               	incf	(EEPROM_search@direccion+1)^(0+384),f
  2178  0B6E  3000               	movlw	0
  2179  0B6F  07B7               	addwf	(EEPROM_search@direccion+1)^(0+384),f
  2180  0B70                     l3182:	
  2181                           
  2182                           ;main.c: 133:         }
  2183  0B70  3001               	movlw	1
  2184  0B71  07B8               	addwf	EEPROM_search@i^(0+384),f
  2185  0B72  1803               	skipnc
  2186  0B73  0AB9               	incf	(EEPROM_search@i+1)^(0+384),f
  2187  0B74  3000               	movlw	0
  2188  0B75  07B9               	addwf	(EEPROM_search@i+1)^(0+384),f
  2189  0B76                     l3184:	
  2190  0B76  0839               	movf	(EEPROM_search@i+1)^(0+384),w
  2191  0B77  3A80               	xorlw	128
  2192  0B78  00FF               	movwf	btemp+1
  2193  0B79  3080               	movlw	128
  2194  0B7A  027F               	subwf	btemp+1,w
  2195  0B7B  1D03               	skipz
  2196  0B7C  2B7F               	goto	u4665
  2197  0B7D  3008               	movlw	8
  2198  0B7E  0238               	subwf	EEPROM_search@i^(0+384),w
  2199  0B7F                     u4665:	
  2200  0B7F  1C03               	skipc
  2201  0B80  2B82               	goto	u4661
  2202  0B81  2B83               	goto	u4660
  2203  0B82                     u4661:	
  2204  0B82  2B48               	goto	l3172
  2205  0B83                     u4660:	
  2206  0B83                     l3186:	
  2207                           
  2208                           ;main.c: 135:         direccion = direccion + 3;
  2209  0B83  1683               	bsf	3,5	;RP0=1, select bank3
  2210  0B84  1703               	bsf	3,6	;RP1=1, select bank3
  2211  0B85  0836               	movf	EEPROM_search@direccion^(0+384),w
  2212  0B86  3E03               	addlw	3
  2213  0B87  00B6               	movwf	EEPROM_search@direccion^(0+384)
  2214  0B88  0837               	movf	(EEPROM_search@direccion+1)^(0+384),w
  2215  0B89  1803               	skipnc
  2216  0B8A  3E01               	addlw	1
  2217  0B8B  3E00               	addlw	0
  2218  0B8C  00B7               	movwf	(EEPROM_search@direccion+1)^(0+384)
  2219  0B8D                     l3188:	
  2220                           
  2221                           ;main.c: 136:         numProd++;
  2222  0B8D  3001               	movlw	1
  2223  0B8E  07BA               	addwf	EEPROM_search@numProd^(0+384),f
  2224  0B8F  1803               	skipnc
  2225  0B90  0ABB               	incf	(EEPROM_search@numProd+1)^(0+384),f
  2226  0B91  3000               	movlw	0
  2227  0B92  07BB               	addwf	(EEPROM_search@numProd+1)^(0+384),f
  2228  0B93                     l3190:	
  2229                           
  2230                           ;main.c: 120:     while (esta < 8 && direccion < (8 + 3)*13) {
  2231  0B93  0835               	movf	(EEPROM_search@esta+1)^(0+384),w
  2232  0B94  3A80               	xorlw	128
  2233  0B95  00FF               	movwf	btemp+1
  2234  0B96  3080               	movlw	128
  2235  0B97  027F               	subwf	btemp+1,w
  2236  0B98  1D03               	skipz
  2237  0B99  2B9C               	goto	u4675
  2238  0B9A  3008               	movlw	8
  2239  0B9B  0234               	subwf	EEPROM_search@esta^(0+384),w
  2240  0B9C                     u4675:	
  2241  0B9C  1803               	skipnc
  2242  0B9D  2B9F               	goto	u4671
  2243  0B9E  2BA0               	goto	u4670
  2244  0B9F                     u4671:	
  2245  0B9F  2BAF               	goto	l3194
  2246  0BA0                     u4670:	
  2247  0BA0                     l3192:	
  2248  0BA0  1683               	bsf	3,5	;RP0=1, select bank3
  2249  0BA1  1703               	bsf	3,6	;RP1=1, select bank3
  2250  0BA2  0837               	movf	(EEPROM_search@direccion+1)^(0+384),w
  2251  0BA3  3A80               	xorlw	128
  2252  0BA4  00FF               	movwf	btemp+1
  2253  0BA5  3080               	movlw	128
  2254  0BA6  027F               	subwf	btemp+1,w
  2255  0BA7  1D03               	skipz
  2256  0BA8  2BAB               	goto	u4685
  2257  0BA9  308F               	movlw	143
  2258  0BAA  0236               	subwf	EEPROM_search@direccion^(0+384),w
  2259  0BAB                     u4685:	
  2260  0BAB  1C03               	skipc
  2261  0BAC  2BAE               	goto	u4681
  2262  0BAD  2BAF               	goto	u4680
  2263  0BAE                     u4681:	
  2264  0BAE  2B44               	goto	l3166
  2265  0BAF                     u4680:	
  2266  0BAF                     l3194:	
  2267                           
  2268                           ;main.c: 138:     numProd--;
  2269  0BAF  30FF               	movlw	255
  2270  0BB0  1683               	bsf	3,5	;RP0=1, select bank3
  2271  0BB1  1703               	bsf	3,6	;RP1=1, select bank3
  2272  0BB2  07BA               	addwf	EEPROM_search@numProd^(0+384),f
  2273  0BB3  1803               	skipnc
  2274  0BB4  0ABB               	incf	(EEPROM_search@numProd+1)^(0+384),f
  2275  0BB5  30FF               	movlw	255
  2276  0BB6  07BB               	addwf	(EEPROM_search@numProd+1)^(0+384),f
  2277  0BB7                     l3196:	
  2278                           
  2279                           ;main.c: 140:     if ( (esta == 8) && !( prodIngresados & (int) pow(2,numProd) ) ) {
  2280  0BB7  3008               	movlw	8
  2281  0BB8  0634               	xorwf	EEPROM_search@esta^(0+384),w
  2282  0BB9  0435               	iorwf	(EEPROM_search@esta+1)^(0+384),w
  2283  0BBA  1D03               	btfss	3,2
  2284  0BBB  2BBD               	goto	u4691
  2285  0BBC  2BBE               	goto	u4690
  2286  0BBD                     u4691:	
  2287  0BBD  2D7C               	goto	l3210
  2288  0BBE                     u4690:	
  2289  0BBE                     l3198:	
  2290  0BBE  083A               	movf	EEPROM_search@numProd^(0+384),w
  2291  0BBF  1283               	bcf	3,5	;RP0=0, select bank0
  2292  0BC0  1303               	bcf	3,6	;RP1=0, select bank0
  2293  0BC1  00A0               	movwf	___xxtofl@val
  2294  0BC2  1683               	bsf	3,5	;RP0=1, select bank3
  2295  0BC3  1703               	bsf	3,6	;RP1=1, select bank3
  2296  0BC4  083B               	movf	(EEPROM_search@numProd+1)^(0+384),w
  2297  0BC5  1283               	bcf	3,5	;RP0=0, select bank0
  2298  0BC6  1303               	bcf	3,6	;RP1=0, select bank0
  2299  0BC7  00A1               	movwf	___xxtofl@val+1
  2300  0BC8  3000               	movlw	0
  2301  0BC9  1BA1               	btfsc	___xxtofl@val+1,7
  2302  0BCA  30FF               	movlw	255
  2303  0BCB  00A2               	movwf	___xxtofl@val+2
  2304  0BCC  00A3               	movwf	___xxtofl@val+3
  2305  0BCD  3001               	movlw	1
  2306  0BCE  160A  118A  2250  120A  158A  	fcall	___xxtofl
  2307  0BD3  1283               	bcf	3,5	;RP0=0, select bank0
  2308  0BD4  1303               	bcf	3,6	;RP1=0, select bank0
  2309  0BD5  0823               	movf	?___xxtofl+3,w
  2310  0BD6  1683               	bsf	3,5	;RP0=1, select bank3
  2311  0BD7  1703               	bsf	3,6	;RP1=1, select bank3
  2312  0BD8  00AF               	movwf	(_EEPROM_search$958+3)^(0+384)
  2313  0BD9  1283               	bcf	3,5	;RP0=0, select bank0
  2314  0BDA  1303               	bcf	3,6	;RP1=0, select bank0
  2315  0BDB  0822               	movf	?___xxtofl+2,w
  2316  0BDC  1683               	bsf	3,5	;RP0=1, select bank3
  2317  0BDD  1703               	bsf	3,6	;RP1=1, select bank3
  2318  0BDE  00AE               	movwf	(_EEPROM_search$958+2)^(0+384)
  2319  0BDF  1283               	bcf	3,5	;RP0=0, select bank0
  2320  0BE0  1303               	bcf	3,6	;RP1=0, select bank0
  2321  0BE1  0821               	movf	?___xxtofl+1,w
  2322  0BE2  1683               	bsf	3,5	;RP0=1, select bank3
  2323  0BE3  1703               	bsf	3,6	;RP1=1, select bank3
  2324  0BE4  00AD               	movwf	(_EEPROM_search$958+1)^(0+384)
  2325  0BE5  1283               	bcf	3,5	;RP0=0, select bank0
  2326  0BE6  1303               	bcf	3,6	;RP1=0, select bank0
  2327  0BE7  0820               	movf	?___xxtofl,w
  2328  0BE8  1683               	bsf	3,5	;RP0=1, select bank3
  2329  0BE9  1703               	bsf	3,6	;RP1=1, select bank3
  2330  0BEA  00AC               	movwf	_EEPROM_search$958^(0+384)
  2331  0BEB                     l3200:	
  2332  0BEB  082F               	movf	(_EEPROM_search$958+3)^(0+384),w
  2333  0BEC  1683               	bsf	3,5	;RP0=1, select bank1
  2334  0BED  1303               	bcf	3,6	;RP1=0, select bank1
  2335  0BEE  00CF               	movwf	(pow@y+3)^(0+128)
  2336  0BEF  1683               	bsf	3,5	;RP0=1, select bank3
  2337  0BF0  1703               	bsf	3,6	;RP1=1, select bank3
  2338  0BF1  082E               	movf	(_EEPROM_search$958+2)^(0+384),w
  2339  0BF2  1683               	bsf	3,5	;RP0=1, select bank1
  2340  0BF3  1303               	bcf	3,6	;RP1=0, select bank1
  2341  0BF4  00CE               	movwf	(pow@y+2)^(0+128)
  2342  0BF5  1683               	bsf	3,5	;RP0=1, select bank3
  2343  0BF6  1703               	bsf	3,6	;RP1=1, select bank3
  2344  0BF7  082D               	movf	(_EEPROM_search$958+1)^(0+384),w
  2345  0BF8  1683               	bsf	3,5	;RP0=1, select bank1
  2346  0BF9  1303               	bcf	3,6	;RP1=0, select bank1
  2347  0BFA  00CD               	movwf	(pow@y+1)^(0+128)
  2348  0BFB  1683               	bsf	3,5	;RP0=1, select bank3
  2349  0BFC  1703               	bsf	3,6	;RP1=1, select bank3
  2350  0BFD  082C               	movf	_EEPROM_search$958^(0+384),w
  2351  0BFE  1683               	bsf	3,5	;RP0=1, select bank1
  2352  0BFF  1303               	bcf	3,6	;RP1=0, select bank1
  2353  0C00  00CC               	movwf	pow@y^(0+128)
  2354  0C01  3040               	movlw	64
  2355  0C02  00CB               	movwf	(pow@x+3)^(0+128)
  2356  0C03  3000               	movlw	0
  2357  0C04  00CA               	movwf	(pow@x+2)^(0+128)
  2358  0C05  3000               	movlw	0
  2359  0C06  00C9               	movwf	(pow@x+1)^(0+128)
  2360  0C07  3000               	movlw	0
  2361  0C08  00C8               	movwf	pow@x^(0+128)
  2362  0C09  120A  158A  20FC  120A  158A  	fcall	_pow
  2363  0C0E  1683               	bsf	3,5	;RP0=1, select bank1
  2364  0C0F  1303               	bcf	3,6	;RP1=0, select bank1
  2365  0C10  084B               	movf	(?_pow+3)^(0+128),w
  2366  0C11  1683               	bsf	3,5	;RP0=1, select bank3
  2367  0C12  1703               	bsf	3,6	;RP1=1, select bank3
  2368  0C13  00B3               	movwf	(_EEPROM_search$959+3)^(0+384)
  2369  0C14  1683               	bsf	3,5	;RP0=1, select bank1
  2370  0C15  1303               	bcf	3,6	;RP1=0, select bank1
  2371  0C16  084A               	movf	(?_pow+2)^(0+128),w
  2372  0C17  1683               	bsf	3,5	;RP0=1, select bank3
  2373  0C18  1703               	bsf	3,6	;RP1=1, select bank3
  2374  0C19  00B2               	movwf	(_EEPROM_search$959+2)^(0+384)
  2375  0C1A  1683               	bsf	3,5	;RP0=1, select bank1
  2376  0C1B  1303               	bcf	3,6	;RP1=0, select bank1
  2377  0C1C  0849               	movf	(?_pow+1)^(0+128),w
  2378  0C1D  1683               	bsf	3,5	;RP0=1, select bank3
  2379  0C1E  1703               	bsf	3,6	;RP1=1, select bank3
  2380  0C1F  00B1               	movwf	(_EEPROM_search$959+1)^(0+384)
  2381  0C20  1683               	bsf	3,5	;RP0=1, select bank1
  2382  0C21  1303               	bcf	3,6	;RP1=0, select bank1
  2383  0C22  0848               	movf	?_pow^(0+128),w
  2384  0C23  1683               	bsf	3,5	;RP0=1, select bank3
  2385  0C24  1703               	bsf	3,6	;RP1=1, select bank3
  2386  0C25  00B0               	movwf	_EEPROM_search$959^(0+384)
  2387  0C26                     l3202:	
  2388  0C26  0833               	movf	(_EEPROM_search$959+3)^(0+384),w
  2389  0C27  1283               	bcf	3,5	;RP0=0, select bank0
  2390  0C28  1303               	bcf	3,6	;RP1=0, select bank0
  2391  0C29  00B1               	movwf	___fltol@f1+3
  2392  0C2A  1683               	bsf	3,5	;RP0=1, select bank3
  2393  0C2B  1703               	bsf	3,6	;RP1=1, select bank3
  2394  0C2C  0832               	movf	(_EEPROM_search$959+2)^(0+384),w
  2395  0C2D  1283               	bcf	3,5	;RP0=0, select bank0
  2396  0C2E  1303               	bcf	3,6	;RP1=0, select bank0
  2397  0C2F  00B0               	movwf	___fltol@f1+2
  2398  0C30  1683               	bsf	3,5	;RP0=1, select bank3
  2399  0C31  1703               	bsf	3,6	;RP1=1, select bank3
  2400  0C32  0831               	movf	(_EEPROM_search$959+1)^(0+384),w
  2401  0C33  1283               	bcf	3,5	;RP0=0, select bank0
  2402  0C34  1303               	bcf	3,6	;RP1=0, select bank0
  2403  0C35  00AF               	movwf	___fltol@f1+1
  2404  0C36  1683               	bsf	3,5	;RP0=1, select bank3
  2405  0C37  1703               	bsf	3,6	;RP1=1, select bank3
  2406  0C38  0830               	movf	_EEPROM_search$959^(0+384),w
  2407  0C39  1283               	bcf	3,5	;RP0=0, select bank0
  2408  0C3A  1303               	bcf	3,6	;RP1=0, select bank0
  2409  0C3B  00AE               	movwf	___fltol@f1
  2410  0C3C  160A  158A  2784  120A  158A  	fcall	___fltol
  2411  0C41  1683               	bsf	3,5	;RP0=1, select bank3
  2412  0C42  1703               	bsf	3,6	;RP1=1, select bank3
  2413  0C43  084D               	movf	_prodIngresados^(0+384),w
  2414  0C44  1283               	bcf	3,5	;RP0=0, select bank0
  2415  0C45  1303               	bcf	3,6	;RP1=0, select bank0
  2416  0C46  052E               	andwf	?___fltol,w
  2417  0C47  1683               	bsf	3,5	;RP0=1, select bank1
  2418  0C48  1303               	bcf	3,6	;RP1=0, select bank1
  2419  0C49  00E0               	movwf	??_EEPROM_search^(0+128)
  2420  0C4A  1683               	bsf	3,5	;RP0=1, select bank3
  2421  0C4B  1703               	bsf	3,6	;RP1=1, select bank3
  2422  0C4C  084E               	movf	(_prodIngresados+1)^(0+384),w
  2423  0C4D  1283               	bcf	3,5	;RP0=0, select bank0
  2424  0C4E  1303               	bcf	3,6	;RP1=0, select bank0
  2425  0C4F  052F               	andwf	?___fltol+1,w
  2426  0C50  1683               	bsf	3,5	;RP0=1, select bank1
  2427  0C51  1303               	bcf	3,6	;RP1=0, select bank1
  2428  0C52  00E1               	movwf	(??_EEPROM_search+1)^(0+128)
  2429  0C53  0860               	movf	??_EEPROM_search^(0+128),w
  2430  0C54  0461               	iorwf	(??_EEPROM_search^(0+128)+1),w
  2431  0C55  1D03               	btfss	3,2
  2432  0C56  2C58               	goto	u4701
  2433  0C57  2C59               	goto	u4700
  2434  0C58                     u4701:	
  2435  0C58  2D7C               	goto	l3210
  2436  0C59                     u4700:	
  2437  0C59                     l3204:	
  2438                           
  2439                           ;main.c: 143:         precio =(short int) ( 100*(eeprom_read( numProd*(8 + 3) + 8 ) - '0
      +                          ') );
  2440  0C59  300B               	movlw	11
  2441  0C5A  00E0               	movwf	??_EEPROM_search^(0+128)
  2442  0C5B  0860               	movf	??_EEPROM_search^(0+128),w
  2443  0C5C  1283               	bcf	3,5	;RP0=0, select bank0
  2444  0C5D  1303               	bcf	3,6	;RP1=0, select bank0
  2445  0C5E  00A0               	movwf	___bmul@multiplicand
  2446  0C5F  1683               	bsf	3,5	;RP0=1, select bank3
  2447  0C60  1703               	bsf	3,6	;RP1=1, select bank3
  2448  0C61  083A               	movf	EEPROM_search@numProd^(0+384),w
  2449  0C62  160A  158A  2555  120A  158A  	fcall	___bmul
  2450  0C67  3E08               	addlw	8
  2451  0C68  160A  158A  2589  120A  158A  	fcall	_eeprom_read
  2452  0C6D  3ED0               	addlw	208
  2453  0C6E  1283               	bcf	3,5	;RP0=0, select bank0
  2454  0C6F  1303               	bcf	3,6	;RP1=0, select bank0
  2455  0C70  00A4               	movwf	___wmul@multiplier
  2456  0C71  30FF               	movlw	255
  2457  0C72  1803               	skipnc
  2458  0C73  3000               	movlw	0
  2459  0C74  00A5               	movwf	___wmul@multiplier+1
  2460  0C75  3064               	movlw	100
  2461  0C76  00A6               	movwf	___wmul@multiplicand
  2462  0C77  3000               	movlw	0
  2463  0C78  00A7               	movwf	___wmul@multiplicand+1
  2464  0C79  160A  158A  25C8  120A  158A  	fcall	___wmul
  2465  0C7E  1283               	bcf	3,5	;RP0=0, select bank0
  2466  0C7F  1303               	bcf	3,6	;RP1=0, select bank0
  2467  0C80  0825               	movf	?___wmul+1,w
  2468  0C81  1683               	bsf	3,5	;RP0=1, select bank3
  2469  0C82  1703               	bsf	3,6	;RP1=1, select bank3
  2470  0C83  00AB               	movwf	(EEPROM_search@precio+1)^(0+384)
  2471  0C84  1283               	bcf	3,5	;RP0=0, select bank0
  2472  0C85  1303               	bcf	3,6	;RP1=0, select bank0
  2473  0C86  0824               	movf	?___wmul,w
  2474  0C87  1683               	bsf	3,5	;RP0=1, select bank3
  2475  0C88  1703               	bsf	3,6	;RP1=1, select bank3
  2476  0C89  00AA               	movwf	EEPROM_search@precio^(0+384)
  2477                           
  2478                           ;main.c: 144:         precio += (short int) ( 10*(eeprom_read( numProd*(8 + 3) + 8 + 1) 
      +                          - '0') );
  2479  0C8A  300B               	movlw	11
  2480  0C8B  1683               	bsf	3,5	;RP0=1, select bank1
  2481  0C8C  1303               	bcf	3,6	;RP1=0, select bank1
  2482  0C8D  00E0               	movwf	??_EEPROM_search^(0+128)
  2483  0C8E  0860               	movf	??_EEPROM_search^(0+128),w
  2484  0C8F  1283               	bcf	3,5	;RP0=0, select bank0
  2485  0C90  1303               	bcf	3,6	;RP1=0, select bank0
  2486  0C91  00A0               	movwf	___bmul@multiplicand
  2487  0C92  1683               	bsf	3,5	;RP0=1, select bank3
  2488  0C93  1703               	bsf	3,6	;RP1=1, select bank3
  2489  0C94  083A               	movf	EEPROM_search@numProd^(0+384),w
  2490  0C95  160A  158A  2555  120A  158A  	fcall	___bmul
  2491  0C9A  3E09               	addlw	9
  2492  0C9B  160A  158A  2589  120A  158A  	fcall	_eeprom_read
  2493  0CA0  3ED0               	addlw	208
  2494  0CA1  1283               	bcf	3,5	;RP0=0, select bank0
  2495  0CA2  1303               	bcf	3,6	;RP1=0, select bank0
  2496  0CA3  00A4               	movwf	___wmul@multiplier
  2497  0CA4  30FF               	movlw	255
  2498  0CA5  1803               	skipnc
  2499  0CA6  3000               	movlw	0
  2500  0CA7  00A5               	movwf	___wmul@multiplier+1
  2501  0CA8  300A               	movlw	10
  2502  0CA9  00A6               	movwf	___wmul@multiplicand
  2503  0CAA  3000               	movlw	0
  2504  0CAB  00A7               	movwf	___wmul@multiplicand+1
  2505  0CAC  160A  158A  25C8  120A  158A  	fcall	___wmul
  2506  0CB1  1283               	bcf	3,5	;RP0=0, select bank0
  2507  0CB2  1303               	bcf	3,6	;RP1=0, select bank0
  2508  0CB3  0824               	movf	?___wmul,w
  2509  0CB4  1683               	bsf	3,5	;RP0=1, select bank3
  2510  0CB5  1703               	bsf	3,6	;RP1=1, select bank3
  2511  0CB6  07AA               	addwf	EEPROM_search@precio^(0+384),f
  2512  0CB7  1803               	skipnc
  2513  0CB8  0AAB               	incf	(EEPROM_search@precio+1)^(0+384),f
  2514  0CB9  1283               	bcf	3,5	;RP0=0, select bank0
  2515  0CBA  1303               	bcf	3,6	;RP1=0, select bank0
  2516  0CBB  0825               	movf	?___wmul+1,w
  2517  0CBC  1683               	bsf	3,5	;RP0=1, select bank3
  2518  0CBD  1703               	bsf	3,6	;RP1=1, select bank3
  2519  0CBE  07AB               	addwf	(EEPROM_search@precio+1)^(0+384),f
  2520                           
  2521                           ;main.c: 145:         precio += (short int) ( eeprom_read( numProd*(8 + 3) + 8 + 2) - '0
      +                          ');
  2522  0CBF  300B               	movlw	11
  2523  0CC0  1683               	bsf	3,5	;RP0=1, select bank1
  2524  0CC1  1303               	bcf	3,6	;RP1=0, select bank1
  2525  0CC2  00E0               	movwf	??_EEPROM_search^(0+128)
  2526  0CC3  0860               	movf	??_EEPROM_search^(0+128),w
  2527  0CC4  1283               	bcf	3,5	;RP0=0, select bank0
  2528  0CC5  1303               	bcf	3,6	;RP1=0, select bank0
  2529  0CC6  00A0               	movwf	___bmul@multiplicand
  2530  0CC7  1683               	bsf	3,5	;RP0=1, select bank3
  2531  0CC8  1703               	bsf	3,6	;RP1=1, select bank3
  2532  0CC9  083A               	movf	EEPROM_search@numProd^(0+384),w
  2533  0CCA  160A  158A  2555  120A  158A  	fcall	___bmul
  2534  0CCF  3E0A               	addlw	10
  2535  0CD0  160A  158A  2589  120A  158A  	fcall	_eeprom_read
  2536  0CD5  3ED0               	addlw	208
  2537  0CD6  1683               	bsf	3,5	;RP0=1, select bank1
  2538  0CD7  1303               	bcf	3,6	;RP1=0, select bank1
  2539  0CD8  00E1               	movwf	(??_EEPROM_search+1)^(0+128)
  2540  0CD9  30FF               	movlw	255
  2541  0CDA  1803               	skipnc
  2542  0CDB  3000               	movlw	0
  2543  0CDC  00E2               	movwf	((??_EEPROM_search+1)^(0+128)+1)
  2544  0CDD  0861               	movf	(??_EEPROM_search+1)^(0+128),w
  2545  0CDE  1683               	bsf	3,5	;RP0=1, select bank3
  2546  0CDF  1703               	bsf	3,6	;RP1=1, select bank3
  2547  0CE0  07AA               	addwf	EEPROM_search@precio^(0+384),f
  2548  0CE1  1803               	skipnc
  2549  0CE2  0AAB               	incf	(EEPROM_search@precio+1)^(0+384),f
  2550  0CE3  1683               	bsf	3,5	;RP0=1, select bank1
  2551  0CE4  1303               	bcf	3,6	;RP1=0, select bank1
  2552  0CE5  0862               	movf	(??_EEPROM_search+2)^(0+128),w
  2553  0CE6  1683               	bsf	3,5	;RP0=1, select bank3
  2554  0CE7  1703               	bsf	3,6	;RP1=1, select bank3
  2555  0CE8  07AB               	addwf	(EEPROM_search@precio+1)^(0+384),f
  2556                           
  2557                           ;main.c: 148:         prodIngresados = prodIngresados | ((int) pow(2,numProd));
  2558  0CE9  083A               	movf	EEPROM_search@numProd^(0+384),w
  2559  0CEA  1283               	bcf	3,5	;RP0=0, select bank0
  2560  0CEB  1303               	bcf	3,6	;RP1=0, select bank0
  2561  0CEC  00A0               	movwf	___xxtofl@val
  2562  0CED  1683               	bsf	3,5	;RP0=1, select bank3
  2563  0CEE  1703               	bsf	3,6	;RP1=1, select bank3
  2564  0CEF  083B               	movf	(EEPROM_search@numProd+1)^(0+384),w
  2565  0CF0  1283               	bcf	3,5	;RP0=0, select bank0
  2566  0CF1  1303               	bcf	3,6	;RP1=0, select bank0
  2567  0CF2  00A1               	movwf	___xxtofl@val+1
  2568  0CF3  3000               	movlw	0
  2569  0CF4  1BA1               	btfsc	___xxtofl@val+1,7
  2570  0CF5  30FF               	movlw	255
  2571  0CF6  00A2               	movwf	___xxtofl@val+2
  2572  0CF7  00A3               	movwf	___xxtofl@val+3
  2573  0CF8  3001               	movlw	1
  2574  0CF9  160A  118A  2250  120A  158A  	fcall	___xxtofl
  2575  0CFE  1283               	bcf	3,5	;RP0=0, select bank0
  2576  0CFF  1303               	bcf	3,6	;RP1=0, select bank0
  2577  0D00  0823               	movf	?___xxtofl+3,w
  2578  0D01  1683               	bsf	3,5	;RP0=1, select bank3
  2579  0D02  1703               	bsf	3,6	;RP1=1, select bank3
  2580  0D03  00AF               	movwf	(_EEPROM_search$958+3)^(0+384)
  2581  0D04  1283               	bcf	3,5	;RP0=0, select bank0
  2582  0D05  1303               	bcf	3,6	;RP1=0, select bank0
  2583  0D06  0822               	movf	?___xxtofl+2,w
  2584  0D07  1683               	bsf	3,5	;RP0=1, select bank3
  2585  0D08  1703               	bsf	3,6	;RP1=1, select bank3
  2586  0D09  00AE               	movwf	(_EEPROM_search$958+2)^(0+384)
  2587  0D0A  1283               	bcf	3,5	;RP0=0, select bank0
  2588  0D0B  1303               	bcf	3,6	;RP1=0, select bank0
  2589  0D0C  0821               	movf	?___xxtofl+1,w
  2590  0D0D  1683               	bsf	3,5	;RP0=1, select bank3
  2591  0D0E  1703               	bsf	3,6	;RP1=1, select bank3
  2592  0D0F  00AD               	movwf	(_EEPROM_search$958+1)^(0+384)
  2593  0D10  1283               	bcf	3,5	;RP0=0, select bank0
  2594  0D11  1303               	bcf	3,6	;RP1=0, select bank0
  2595  0D12  0820               	movf	?___xxtofl,w
  2596  0D13  1683               	bsf	3,5	;RP0=1, select bank3
  2597  0D14  1703               	bsf	3,6	;RP1=1, select bank3
  2598  0D15  00AC               	movwf	_EEPROM_search$958^(0+384)
  2599  0D16                     l3206:	
  2600                           
  2601                           ;main.c: 148:         prodIngresados = prodIngresados | ((int) pow(2,numProd));
  2602  0D16  082F               	movf	(_EEPROM_search$958+3)^(0+384),w
  2603  0D17  1683               	bsf	3,5	;RP0=1, select bank1
  2604  0D18  1303               	bcf	3,6	;RP1=0, select bank1
  2605  0D19  00CF               	movwf	(pow@y+3)^(0+128)
  2606  0D1A  1683               	bsf	3,5	;RP0=1, select bank3
  2607  0D1B  1703               	bsf	3,6	;RP1=1, select bank3
  2608  0D1C  082E               	movf	(_EEPROM_search$958+2)^(0+384),w
  2609  0D1D  1683               	bsf	3,5	;RP0=1, select bank1
  2610  0D1E  1303               	bcf	3,6	;RP1=0, select bank1
  2611  0D1F  00CE               	movwf	(pow@y+2)^(0+128)
  2612  0D20  1683               	bsf	3,5	;RP0=1, select bank3
  2613  0D21  1703               	bsf	3,6	;RP1=1, select bank3
  2614  0D22  082D               	movf	(_EEPROM_search$958+1)^(0+384),w
  2615  0D23  1683               	bsf	3,5	;RP0=1, select bank1
  2616  0D24  1303               	bcf	3,6	;RP1=0, select bank1
  2617  0D25  00CD               	movwf	(pow@y+1)^(0+128)
  2618  0D26  1683               	bsf	3,5	;RP0=1, select bank3
  2619  0D27  1703               	bsf	3,6	;RP1=1, select bank3
  2620  0D28  082C               	movf	_EEPROM_search$958^(0+384),w
  2621  0D29  1683               	bsf	3,5	;RP0=1, select bank1
  2622  0D2A  1303               	bcf	3,6	;RP1=0, select bank1
  2623  0D2B  00CC               	movwf	pow@y^(0+128)
  2624  0D2C  3040               	movlw	64
  2625  0D2D  00CB               	movwf	(pow@x+3)^(0+128)
  2626  0D2E  3000               	movlw	0
  2627  0D2F  00CA               	movwf	(pow@x+2)^(0+128)
  2628  0D30  3000               	movlw	0
  2629  0D31  00C9               	movwf	(pow@x+1)^(0+128)
  2630  0D32  3000               	movlw	0
  2631  0D33  00C8               	movwf	pow@x^(0+128)
  2632  0D34  120A  158A  20FC  120A  158A  	fcall	_pow
  2633  0D39  1683               	bsf	3,5	;RP0=1, select bank1
  2634  0D3A  1303               	bcf	3,6	;RP1=0, select bank1
  2635  0D3B  084B               	movf	(?_pow+3)^(0+128),w
  2636  0D3C  1683               	bsf	3,5	;RP0=1, select bank3
  2637  0D3D  1703               	bsf	3,6	;RP1=1, select bank3
  2638  0D3E  00B3               	movwf	(_EEPROM_search$959+3)^(0+384)
  2639  0D3F  1683               	bsf	3,5	;RP0=1, select bank1
  2640  0D40  1303               	bcf	3,6	;RP1=0, select bank1
  2641  0D41  084A               	movf	(?_pow+2)^(0+128),w
  2642  0D42  1683               	bsf	3,5	;RP0=1, select bank3
  2643  0D43  1703               	bsf	3,6	;RP1=1, select bank3
  2644  0D44  00B2               	movwf	(_EEPROM_search$959+2)^(0+384)
  2645  0D45  1683               	bsf	3,5	;RP0=1, select bank1
  2646  0D46  1303               	bcf	3,6	;RP1=0, select bank1
  2647  0D47  0849               	movf	(?_pow+1)^(0+128),w
  2648  0D48  1683               	bsf	3,5	;RP0=1, select bank3
  2649  0D49  1703               	bsf	3,6	;RP1=1, select bank3
  2650  0D4A  00B1               	movwf	(_EEPROM_search$959+1)^(0+384)
  2651  0D4B  1683               	bsf	3,5	;RP0=1, select bank1
  2652  0D4C  1303               	bcf	3,6	;RP1=0, select bank1
  2653  0D4D  0848               	movf	?_pow^(0+128),w
  2654  0D4E  1683               	bsf	3,5	;RP0=1, select bank3
  2655  0D4F  1703               	bsf	3,6	;RP1=1, select bank3
  2656  0D50  00B0               	movwf	_EEPROM_search$959^(0+384)
  2657  0D51                     l3208:	
  2658                           
  2659                           ;main.c: 148:         prodIngresados = prodIngresados | ((int) pow(2,numProd));
  2660  0D51  0833               	movf	(_EEPROM_search$959+3)^(0+384),w
  2661  0D52  1283               	bcf	3,5	;RP0=0, select bank0
  2662  0D53  1303               	bcf	3,6	;RP1=0, select bank0
  2663  0D54  00B1               	movwf	___fltol@f1+3
  2664  0D55  1683               	bsf	3,5	;RP0=1, select bank3
  2665  0D56  1703               	bsf	3,6	;RP1=1, select bank3
  2666  0D57  0832               	movf	(_EEPROM_search$959+2)^(0+384),w
  2667  0D58  1283               	bcf	3,5	;RP0=0, select bank0
  2668  0D59  1303               	bcf	3,6	;RP1=0, select bank0
  2669  0D5A  00B0               	movwf	___fltol@f1+2
  2670  0D5B  1683               	bsf	3,5	;RP0=1, select bank3
  2671  0D5C  1703               	bsf	3,6	;RP1=1, select bank3
  2672  0D5D  0831               	movf	(_EEPROM_search$959+1)^(0+384),w
  2673  0D5E  1283               	bcf	3,5	;RP0=0, select bank0
  2674  0D5F  1303               	bcf	3,6	;RP1=0, select bank0
  2675  0D60  00AF               	movwf	___fltol@f1+1
  2676  0D61  1683               	bsf	3,5	;RP0=1, select bank3
  2677  0D62  1703               	bsf	3,6	;RP1=1, select bank3
  2678  0D63  0830               	movf	_EEPROM_search$959^(0+384),w
  2679  0D64  1283               	bcf	3,5	;RP0=0, select bank0
  2680  0D65  1303               	bcf	3,6	;RP1=0, select bank0
  2681  0D66  00AE               	movwf	___fltol@f1
  2682  0D67  160A  158A  2784  120A  158A  	fcall	___fltol
  2683  0D6C  1683               	bsf	3,5	;RP0=1, select bank3
  2684  0D6D  1703               	bsf	3,6	;RP1=1, select bank3
  2685  0D6E  084D               	movf	_prodIngresados^(0+384),w
  2686  0D6F  1283               	bcf	3,5	;RP0=0, select bank0
  2687  0D70  1303               	bcf	3,6	;RP1=0, select bank0
  2688  0D71  042E               	iorwf	?___fltol,w
  2689  0D72  1683               	bsf	3,5	;RP0=1, select bank3
  2690  0D73  1703               	bsf	3,6	;RP1=1, select bank3
  2691  0D74  00CD               	movwf	_prodIngresados^(0+384)
  2692  0D75  084E               	movf	(_prodIngresados+1)^(0+384),w
  2693  0D76  1283               	bcf	3,5	;RP0=0, select bank0
  2694  0D77  1303               	bcf	3,6	;RP1=0, select bank0
  2695  0D78  042F               	iorwf	?___fltol+1,w
  2696  0D79  1683               	bsf	3,5	;RP0=1, select bank3
  2697  0D7A  1703               	bsf	3,6	;RP1=1, select bank3
  2698  0D7B  00CE               	movwf	(_prodIngresados+1)^(0+384)
  2699  0D7C                     l3210:	
  2700                           
  2701                           ;main.c: 152:     return precio;
  2702  0D7C  1683               	bsf	3,5	;RP0=1, select bank3
  2703  0D7D  1703               	bsf	3,6	;RP1=1, select bank3
  2704  0D7E  082B               	movf	(EEPROM_search@precio+1)^(0+384),w
  2705  0D7F  1683               	bsf	3,5	;RP0=1, select bank1
  2706  0D80  1303               	bcf	3,6	;RP1=0, select bank1
  2707  0D81  00DF               	movwf	(?_EEPROM_search+1)^(0+128)
  2708  0D82  1683               	bsf	3,5	;RP0=1, select bank3
  2709  0D83  1703               	bsf	3,6	;RP1=1, select bank3
  2710  0D84  082A               	movf	EEPROM_search@precio^(0+384),w
  2711  0D85  1683               	bsf	3,5	;RP0=1, select bank1
  2712  0D86  1303               	bcf	3,6	;RP1=0, select bank1
  2713  0D87  00DE               	movwf	?_EEPROM_search^(0+128)
  2714  0D88                     l90:	
  2715  0D88  0008               	return
  2716  0D89                     __end_of_EEPROM_search:	
  2717                           
  2718                           	psect	text5
  2719  08FC                     __ptext5:	
  2720 ;; *************** function _pow *****************
  2721 ;; Defined at:
  2722 ;;		line 5 in file "C:\Program Files (x86)\Microchip\xc8\v2.10\pic\sources\c90\common\pow.c"
  2723 ;; Parameters:    Size  Location     Type
  2724 ;;  x               4   40[BANK1 ] short 
  2725 ;;  y               4   44[BANK1 ] short 
  2726 ;; Auto vars:     Size  Location     Type
  2727 ;;  yi              4   58[BANK1 ] unsigned long 
  2728 ;;  sign            1   57[BANK1 ] unsigned char 
  2729 ;; Return value:  Size  Location     Type
  2730 ;;                  4   40[BANK1 ] unsigned char 
  2731 ;; Registers used:
  2732 ;;		wreg, fsr0l, fsr0h, status,2, status,0, btemp+1, pclath, cstack
  2733 ;; Tracked objects:
  2734 ;;		On entry : 0/0
  2735 ;;		On exit  : 0/0
  2736 ;;		Unchanged: 0/0
  2737 ;; Data sizes:     COMMON   BANK0   BANK1   BANK3   BANK2
  2738 ;;      Params:         0       0       8       0       0
  2739 ;;      Locals:         0       0      13       0       0
  2740 ;;      Temps:          0       0       1       0       0
  2741 ;;      Totals:         0       0      22       0       0
  2742 ;;Total ram usage:       22 bytes
  2743 ;; Hardware stack levels used:    1
  2744 ;; Hardware stack levels required when called:    5
  2745 ;; This function calls:
  2746 ;;		___fleq
  2747 ;;		___flge
  2748 ;;		___flmul
  2749 ;;		___flneg
  2750 ;;		___fltol
  2751 ;;		___xxtofl
  2752 ;;		_exp
  2753 ;;		_log
  2754 ;; This function is called by:
  2755 ;;		_EEPROM_search
  2756 ;; This function uses a non-reentrant model
  2757 ;;
  2758                           
  2759                           
  2760                           ;psect for function _pow
  2761  08FC                     _pow:	
  2762  08FC                     l3122:	
  2763                           ;incstack = 0
  2764                           ; Regs used in _pow: [wreg-fsr0h+status,2+status,0+btemp+1+pclath+cstack]
  2765                           
  2766  08FC  1683               	bsf	3,5	;RP0=1, select bank1
  2767  08FD  1303               	bcf	3,6	;RP1=0, select bank1
  2768  08FE  01D9               	clrf	pow@sign^(0+128)
  2769  08FF                     l3124:	
  2770  08FF  084B               	movf	(pow@x+3)^(0+128),w
  2771  0900  1283               	bcf	3,5	;RP0=0, select bank0
  2772  0901  1303               	bcf	3,6	;RP1=0, select bank0
  2773  0902  00B1               	movwf	___fleq@ff1+3
  2774  0903  1683               	bsf	3,5	;RP0=1, select bank1
  2775  0904  1303               	bcf	3,6	;RP1=0, select bank1
  2776  0905  084A               	movf	(pow@x+2)^(0+128),w
  2777  0906  1283               	bcf	3,5	;RP0=0, select bank0
  2778  0907  1303               	bcf	3,6	;RP1=0, select bank0
  2779  0908  00B0               	movwf	___fleq@ff1+2
  2780  0909  1683               	bsf	3,5	;RP0=1, select bank1
  2781  090A  1303               	bcf	3,6	;RP1=0, select bank1
  2782  090B  0849               	movf	(pow@x+1)^(0+128),w
  2783  090C  1283               	bcf	3,5	;RP0=0, select bank0
  2784  090D  1303               	bcf	3,6	;RP1=0, select bank0
  2785  090E  00AF               	movwf	___fleq@ff1+1
  2786  090F  1683               	bsf	3,5	;RP0=1, select bank1
  2787  0910  1303               	bcf	3,6	;RP1=0, select bank1
  2788  0911  0848               	movf	pow@x^(0+128),w
  2789  0912  1283               	bcf	3,5	;RP0=0, select bank0
  2790  0913  1303               	bcf	3,6	;RP1=0, select bank0
  2791  0914  00AE               	movwf	___fleq@ff1
  2792  0915  3000               	movlw	0
  2793  0916  00B5               	movwf	___fleq@ff2+3
  2794  0917  3000               	movlw	0
  2795  0918  00B4               	movwf	___fleq@ff2+2
  2796  0919  3000               	movlw	0
  2797  091A  00B3               	movwf	___fleq@ff2+1
  2798  091B  3000               	movlw	0
  2799  091C  00B2               	movwf	___fleq@ff2
  2800  091D  160A  158A  2734  120A  158A  	fcall	___fleq
  2801  0922  1C03               	btfss	3,0
  2802  0923  2925               	goto	u4591
  2803  0924  2926               	goto	u4590
  2804  0925                     u4591:	
  2805  0925  2960               	goto	l3132
  2806  0926                     u4590:	
  2807  0926                     l3126:	
  2808  0926  3000               	movlw	0
  2809  0927  1283               	bcf	3,5	;RP0=0, select bank0
  2810  0928  1303               	bcf	3,6	;RP1=0, select bank0
  2811  0929  00A3               	movwf	___flge@ff1+3
  2812  092A  3000               	movlw	0
  2813  092B  00A2               	movwf	___flge@ff1+2
  2814  092C  3000               	movlw	0
  2815  092D  00A1               	movwf	___flge@ff1+1
  2816  092E  3000               	movlw	0
  2817  092F  00A0               	movwf	___flge@ff1
  2818  0930  1683               	bsf	3,5	;RP0=1, select bank1
  2819  0931  1303               	bcf	3,6	;RP1=0, select bank1
  2820  0932  084F               	movf	(pow@y+3)^(0+128),w
  2821  0933  1283               	bcf	3,5	;RP0=0, select bank0
  2822  0934  1303               	bcf	3,6	;RP1=0, select bank0
  2823  0935  00A7               	movwf	___flge@ff2+3
  2824  0936  1683               	bsf	3,5	;RP0=1, select bank1
  2825  0937  1303               	bcf	3,6	;RP1=0, select bank1
  2826  0938  084E               	movf	(pow@y+2)^(0+128),w
  2827  0939  1283               	bcf	3,5	;RP0=0, select bank0
  2828  093A  1303               	bcf	3,6	;RP1=0, select bank0
  2829  093B  00A6               	movwf	___flge@ff2+2
  2830  093C  1683               	bsf	3,5	;RP0=1, select bank1
  2831  093D  1303               	bcf	3,6	;RP1=0, select bank1
  2832  093E  084D               	movf	(pow@y+1)^(0+128),w
  2833  093F  1283               	bcf	3,5	;RP0=0, select bank0
  2834  0940  1303               	bcf	3,6	;RP1=0, select bank0
  2835  0941  00A5               	movwf	___flge@ff2+1
  2836  0942  1683               	bsf	3,5	;RP0=1, select bank1
  2837  0943  1303               	bcf	3,6	;RP1=0, select bank1
  2838  0944  084C               	movf	pow@y^(0+128),w
  2839  0945  1283               	bcf	3,5	;RP0=0, select bank0
  2840  0946  1303               	bcf	3,6	;RP1=0, select bank0
  2841  0947  00A4               	movwf	___flge@ff2
  2842  0948  160A  118A  2105  120A  158A  	fcall	___flge
  2843  094D  1C03               	btfss	3,0
  2844  094E  2950               	goto	u4601
  2845  094F  2951               	goto	u4600
  2846  0950                     u4601:	
  2847  0950  2955               	goto	l705
  2848  0951                     u4600:	
  2849  0951                     l3128:	
  2850  0951  3021               	movlw	33
  2851  0952  00F9               	movwf	_errno
  2852  0953  3000               	movlw	0
  2853  0954  00FA               	movwf	_errno+1
  2854  0955                     l705:	
  2855  0955  3000               	movlw	0
  2856  0956  1683               	bsf	3,5	;RP0=1, select bank1
  2857  0957  1303               	bcf	3,6	;RP1=0, select bank1
  2858  0958  00CB               	movwf	(?_pow+3)^(0+128)
  2859  0959  3000               	movlw	0
  2860  095A  00CA               	movwf	(?_pow+2)^(0+128)
  2861  095B  3000               	movlw	0
  2862  095C  00C9               	movwf	(?_pow+1)^(0+128)
  2863  095D  3000               	movlw	0
  2864  095E  00C8               	movwf	?_pow^(0+128)
  2865  095F  2B36               	goto	l706
  2866  0960                     l3132:	
  2867  0960  1683               	bsf	3,5	;RP0=1, select bank1
  2868  0961  1303               	bcf	3,6	;RP1=0, select bank1
  2869  0962  084F               	movf	(pow@y+3)^(0+128),w
  2870  0963  1283               	bcf	3,5	;RP0=0, select bank0
  2871  0964  1303               	bcf	3,6	;RP1=0, select bank0
  2872  0965  00B1               	movwf	___fleq@ff1+3
  2873  0966  1683               	bsf	3,5	;RP0=1, select bank1
  2874  0967  1303               	bcf	3,6	;RP1=0, select bank1
  2875  0968  084E               	movf	(pow@y+2)^(0+128),w
  2876  0969  1283               	bcf	3,5	;RP0=0, select bank0
  2877  096A  1303               	bcf	3,6	;RP1=0, select bank0
  2878  096B  00B0               	movwf	___fleq@ff1+2
  2879  096C  1683               	bsf	3,5	;RP0=1, select bank1
  2880  096D  1303               	bcf	3,6	;RP1=0, select bank1
  2881  096E  084D               	movf	(pow@y+1)^(0+128),w
  2882  096F  1283               	bcf	3,5	;RP0=0, select bank0
  2883  0970  1303               	bcf	3,6	;RP1=0, select bank0
  2884  0971  00AF               	movwf	___fleq@ff1+1
  2885  0972  1683               	bsf	3,5	;RP0=1, select bank1
  2886  0973  1303               	bcf	3,6	;RP1=0, select bank1
  2887  0974  084C               	movf	pow@y^(0+128),w
  2888  0975  1283               	bcf	3,5	;RP0=0, select bank0
  2889  0976  1303               	bcf	3,6	;RP1=0, select bank0
  2890  0977  00AE               	movwf	___fleq@ff1
  2891  0978  3000               	movlw	0
  2892  0979  00B5               	movwf	___fleq@ff2+3
  2893  097A  3000               	movlw	0
  2894  097B  00B4               	movwf	___fleq@ff2+2
  2895  097C  3000               	movlw	0
  2896  097D  00B3               	movwf	___fleq@ff2+1
  2897  097E  3000               	movlw	0
  2898  097F  00B2               	movwf	___fleq@ff2
  2899  0980  160A  158A  2734  120A  158A  	fcall	___fleq
  2900  0985  1C03               	btfss	3,0
  2901  0986  2988               	goto	u4611
  2902  0987  2989               	goto	u4610
  2903  0988                     u4611:	
  2904  0988  2994               	goto	l3138
  2905  0989                     u4610:	
  2906  0989                     l3134:	
  2907  0989  303F               	movlw	63
  2908  098A  1683               	bsf	3,5	;RP0=1, select bank1
  2909  098B  1303               	bcf	3,6	;RP1=0, select bank1
  2910  098C  00CB               	movwf	(?_pow+3)^(0+128)
  2911  098D  3080               	movlw	128
  2912  098E  00CA               	movwf	(?_pow+2)^(0+128)
  2913  098F  3000               	movlw	0
  2914  0990  00C9               	movwf	(?_pow+1)^(0+128)
  2915  0991  3000               	movlw	0
  2916  0992  00C8               	movwf	?_pow^(0+128)
  2917  0993  2B36               	goto	l706
  2918  0994                     l3138:	
  2919  0994  1683               	bsf	3,5	;RP0=1, select bank1
  2920  0995  1303               	bcf	3,6	;RP1=0, select bank1
  2921  0996  084B               	movf	(pow@x+3)^(0+128),w
  2922  0997  1283               	bcf	3,5	;RP0=0, select bank0
  2923  0998  1303               	bcf	3,6	;RP1=0, select bank0
  2924  0999  00A3               	movwf	___flge@ff1+3
  2925  099A  1683               	bsf	3,5	;RP0=1, select bank1
  2926  099B  1303               	bcf	3,6	;RP1=0, select bank1
  2927  099C  084A               	movf	(pow@x+2)^(0+128),w
  2928  099D  1283               	bcf	3,5	;RP0=0, select bank0
  2929  099E  1303               	bcf	3,6	;RP1=0, select bank0
  2930  099F  00A2               	movwf	___flge@ff1+2
  2931  09A0  1683               	bsf	3,5	;RP0=1, select bank1
  2932  09A1  1303               	bcf	3,6	;RP1=0, select bank1
  2933  09A2  0849               	movf	(pow@x+1)^(0+128),w
  2934  09A3  1283               	bcf	3,5	;RP0=0, select bank0
  2935  09A4  1303               	bcf	3,6	;RP1=0, select bank0
  2936  09A5  00A1               	movwf	___flge@ff1+1
  2937  09A6  1683               	bsf	3,5	;RP0=1, select bank1
  2938  09A7  1303               	bcf	3,6	;RP1=0, select bank1
  2939  09A8  0848               	movf	pow@x^(0+128),w
  2940  09A9  1283               	bcf	3,5	;RP0=0, select bank0
  2941  09AA  1303               	bcf	3,6	;RP1=0, select bank0
  2942  09AB  00A0               	movwf	___flge@ff1
  2943  09AC  3000               	movlw	0
  2944  09AD  00A7               	movwf	___flge@ff2+3
  2945  09AE  3000               	movlw	0
  2946  09AF  00A6               	movwf	___flge@ff2+2
  2947  09B0  3000               	movlw	0
  2948  09B1  00A5               	movwf	___flge@ff2+1
  2949  09B2  3000               	movlw	0
  2950  09B3  00A4               	movwf	___flge@ff2
  2951  09B4  160A  118A  2105  120A  158A  	fcall	___flge
  2952  09B9  1803               	btfsc	3,0
  2953  09BA  29BC               	goto	u4621
  2954  09BB  29BD               	goto	u4620
  2955  09BC                     u4621:	
  2956  09BC  2A82               	goto	l3150
  2957  09BD                     u4620:	
  2958  09BD                     l3140:	
  2959  09BD  1683               	bsf	3,5	;RP0=1, select bank1
  2960  09BE  1303               	bcf	3,6	;RP1=0, select bank1
  2961  09BF  084F               	movf	(pow@y+3)^(0+128),w
  2962  09C0  1283               	bcf	3,5	;RP0=0, select bank0
  2963  09C1  1303               	bcf	3,6	;RP1=0, select bank0
  2964  09C2  00B1               	movwf	___fltol@f1+3
  2965  09C3  1683               	bsf	3,5	;RP0=1, select bank1
  2966  09C4  1303               	bcf	3,6	;RP1=0, select bank1
  2967  09C5  084E               	movf	(pow@y+2)^(0+128),w
  2968  09C6  1283               	bcf	3,5	;RP0=0, select bank0
  2969  09C7  1303               	bcf	3,6	;RP1=0, select bank0
  2970  09C8  00B0               	movwf	___fltol@f1+2
  2971  09C9  1683               	bsf	3,5	;RP0=1, select bank1
  2972  09CA  1303               	bcf	3,6	;RP1=0, select bank1
  2973  09CB  084D               	movf	(pow@y+1)^(0+128),w
  2974  09CC  1283               	bcf	3,5	;RP0=0, select bank0
  2975  09CD  1303               	bcf	3,6	;RP1=0, select bank0
  2976  09CE  00AF               	movwf	___fltol@f1+1
  2977  09CF  1683               	bsf	3,5	;RP0=1, select bank1
  2978  09D0  1303               	bcf	3,6	;RP1=0, select bank1
  2979  09D1  084C               	movf	pow@y^(0+128),w
  2980  09D2  1283               	bcf	3,5	;RP0=0, select bank0
  2981  09D3  1303               	bcf	3,6	;RP1=0, select bank0
  2982  09D4  00AE               	movwf	___fltol@f1
  2983  09D5  160A  158A  2784  120A  158A  	fcall	___fltol
  2984  09DA  1283               	bcf	3,5	;RP0=0, select bank0
  2985  09DB  1303               	bcf	3,6	;RP1=0, select bank0
  2986  09DC  0831               	movf	?___fltol+3,w
  2987  09DD  1683               	bsf	3,5	;RP0=1, select bank1
  2988  09DE  1303               	bcf	3,6	;RP1=0, select bank1
  2989  09DF  00DD               	movwf	(pow@yi+3)^(0+128)
  2990  09E0  1283               	bcf	3,5	;RP0=0, select bank0
  2991  09E1  1303               	bcf	3,6	;RP1=0, select bank0
  2992  09E2  0830               	movf	?___fltol+2,w
  2993  09E3  1683               	bsf	3,5	;RP0=1, select bank1
  2994  09E4  1303               	bcf	3,6	;RP1=0, select bank1
  2995  09E5  00DC               	movwf	(pow@yi+2)^(0+128)
  2996  09E6  1283               	bcf	3,5	;RP0=0, select bank0
  2997  09E7  1303               	bcf	3,6	;RP1=0, select bank0
  2998  09E8  082F               	movf	?___fltol+1,w
  2999  09E9  1683               	bsf	3,5	;RP0=1, select bank1
  3000  09EA  1303               	bcf	3,6	;RP1=0, select bank1
  3001  09EB  00DB               	movwf	(pow@yi+1)^(0+128)
  3002  09EC  1283               	bcf	3,5	;RP0=0, select bank0
  3003  09ED  1303               	bcf	3,6	;RP1=0, select bank0
  3004  09EE  082E               	movf	?___fltol,w
  3005  09EF  1683               	bsf	3,5	;RP0=1, select bank1
  3006  09F0  1303               	bcf	3,6	;RP1=0, select bank1
  3007  09F1  00DA               	movwf	pow@yi^(0+128)
  3008  09F2  085D               	movf	(pow@yi+3)^(0+128),w
  3009  09F3  1283               	bcf	3,5	;RP0=0, select bank0
  3010  09F4  1303               	bcf	3,6	;RP1=0, select bank0
  3011  09F5  00A3               	movwf	___xxtofl@val+3
  3012  09F6  1683               	bsf	3,5	;RP0=1, select bank1
  3013  09F7  1303               	bcf	3,6	;RP1=0, select bank1
  3014  09F8  085C               	movf	(pow@yi+2)^(0+128),w
  3015  09F9  1283               	bcf	3,5	;RP0=0, select bank0
  3016  09FA  1303               	bcf	3,6	;RP1=0, select bank0
  3017  09FB  00A2               	movwf	___xxtofl@val+2
  3018  09FC  1683               	bsf	3,5	;RP0=1, select bank1
  3019  09FD  1303               	bcf	3,6	;RP1=0, select bank1
  3020  09FE  085B               	movf	(pow@yi+1)^(0+128),w
  3021  09FF  1283               	bcf	3,5	;RP0=0, select bank0
  3022  0A00  1303               	bcf	3,6	;RP1=0, select bank0
  3023  0A01  00A1               	movwf	___xxtofl@val+1
  3024  0A02  1683               	bsf	3,5	;RP0=1, select bank1
  3025  0A03  1303               	bcf	3,6	;RP1=0, select bank1
  3026  0A04  085A               	movf	pow@yi^(0+128),w
  3027  0A05  1283               	bcf	3,5	;RP0=0, select bank0
  3028  0A06  1303               	bcf	3,6	;RP1=0, select bank0
  3029  0A07  00A0               	movwf	___xxtofl@val
  3030  0A08  3000               	movlw	0
  3031  0A09  160A  118A  2250  120A  158A  	fcall	___xxtofl
  3032  0A0E  1283               	bcf	3,5	;RP0=0, select bank0
  3033  0A0F  1303               	bcf	3,6	;RP1=0, select bank0
  3034  0A10  0823               	movf	?___xxtofl+3,w
  3035  0A11  00B1               	movwf	___fleq@ff1+3
  3036  0A12  0822               	movf	?___xxtofl+2,w
  3037  0A13  00B0               	movwf	___fleq@ff1+2
  3038  0A14  0821               	movf	?___xxtofl+1,w
  3039  0A15  00AF               	movwf	___fleq@ff1+1
  3040  0A16  0820               	movf	?___xxtofl,w
  3041  0A17  00AE               	movwf	___fleq@ff1
  3042  0A18  1683               	bsf	3,5	;RP0=1, select bank1
  3043  0A19  1303               	bcf	3,6	;RP1=0, select bank1
  3044  0A1A  084F               	movf	(pow@y+3)^(0+128),w
  3045  0A1B  1283               	bcf	3,5	;RP0=0, select bank0
  3046  0A1C  1303               	bcf	3,6	;RP1=0, select bank0
  3047  0A1D  00B5               	movwf	___fleq@ff2+3
  3048  0A1E  1683               	bsf	3,5	;RP0=1, select bank1
  3049  0A1F  1303               	bcf	3,6	;RP1=0, select bank1
  3050  0A20  084E               	movf	(pow@y+2)^(0+128),w
  3051  0A21  1283               	bcf	3,5	;RP0=0, select bank0
  3052  0A22  1303               	bcf	3,6	;RP1=0, select bank0
  3053  0A23  00B4               	movwf	___fleq@ff2+2
  3054  0A24  1683               	bsf	3,5	;RP0=1, select bank1
  3055  0A25  1303               	bcf	3,6	;RP1=0, select bank1
  3056  0A26  084D               	movf	(pow@y+1)^(0+128),w
  3057  0A27  1283               	bcf	3,5	;RP0=0, select bank0
  3058  0A28  1303               	bcf	3,6	;RP1=0, select bank0
  3059  0A29  00B3               	movwf	___fleq@ff2+1
  3060  0A2A  1683               	bsf	3,5	;RP0=1, select bank1
  3061  0A2B  1303               	bcf	3,6	;RP1=0, select bank1
  3062  0A2C  084C               	movf	pow@y^(0+128),w
  3063  0A2D  1283               	bcf	3,5	;RP0=0, select bank0
  3064  0A2E  1303               	bcf	3,6	;RP1=0, select bank0
  3065  0A2F  00B2               	movwf	___fleq@ff2
  3066  0A30  160A  158A  2734  120A  158A  	fcall	___fleq
  3067  0A35  1803               	btfsc	3,0
  3068  0A36  2A38               	goto	u4631
  3069  0A37  2A39               	goto	u4630
  3070  0A38                     u4631:	
  3071  0A38  2A48               	goto	l3146
  3072  0A39                     u4630:	
  3073  0A39                     l3142:	
  3074  0A39  3021               	movlw	33
  3075  0A3A  00F9               	movwf	_errno
  3076  0A3B  3000               	movlw	0
  3077  0A3C  00FA               	movwf	_errno+1
  3078  0A3D  3000               	movlw	0
  3079  0A3E  1683               	bsf	3,5	;RP0=1, select bank1
  3080  0A3F  1303               	bcf	3,6	;RP1=0, select bank1
  3081  0A40  00CB               	movwf	(?_pow+3)^(0+128)
  3082  0A41  3000               	movlw	0
  3083  0A42  00CA               	movwf	(?_pow+2)^(0+128)
  3084  0A43  3000               	movlw	0
  3085  0A44  00C9               	movwf	(?_pow+1)^(0+128)
  3086  0A45  3000               	movlw	0
  3087  0A46  00C8               	movwf	?_pow^(0+128)
  3088  0A47  2B36               	goto	l706
  3089  0A48                     l3146:	
  3090  0A48  1683               	bsf	3,5	;RP0=1, select bank1
  3091  0A49  1303               	bcf	3,6	;RP1=0, select bank1
  3092  0A4A  085A               	movf	pow@yi^(0+128),w
  3093  0A4B  3901               	andlw	1
  3094  0A4C  00D0               	movwf	??_pow^(0+128)
  3095  0A4D  0850               	movf	??_pow^(0+128),w
  3096  0A4E  00D9               	movwf	pow@sign^(0+128)
  3097  0A4F                     l3148:	
  3098  0A4F  084B               	movf	(pow@x+3)^(0+128),w
  3099  0A50  1283               	bcf	3,5	;RP0=0, select bank0
  3100  0A51  1303               	bcf	3,6	;RP1=0, select bank0
  3101  0A52  00A3               	movwf	___flneg@f1+3
  3102  0A53  1683               	bsf	3,5	;RP0=1, select bank1
  3103  0A54  1303               	bcf	3,6	;RP1=0, select bank1
  3104  0A55  084A               	movf	(pow@x+2)^(0+128),w
  3105  0A56  1283               	bcf	3,5	;RP0=0, select bank0
  3106  0A57  1303               	bcf	3,6	;RP1=0, select bank0
  3107  0A58  00A2               	movwf	___flneg@f1+2
  3108  0A59  1683               	bsf	3,5	;RP0=1, select bank1
  3109  0A5A  1303               	bcf	3,6	;RP1=0, select bank1
  3110  0A5B  0849               	movf	(pow@x+1)^(0+128),w
  3111  0A5C  1283               	bcf	3,5	;RP0=0, select bank0
  3112  0A5D  1303               	bcf	3,6	;RP1=0, select bank0
  3113  0A5E  00A1               	movwf	___flneg@f1+1
  3114  0A5F  1683               	bsf	3,5	;RP0=1, select bank1
  3115  0A60  1303               	bcf	3,6	;RP1=0, select bank1
  3116  0A61  0848               	movf	pow@x^(0+128),w
  3117  0A62  1283               	bcf	3,5	;RP0=0, select bank0
  3118  0A63  1303               	bcf	3,6	;RP1=0, select bank0
  3119  0A64  00A0               	movwf	___flneg@f1
  3120  0A65  160A  158A  2539  120A  158A  	fcall	___flneg
  3121  0A6A  1283               	bcf	3,5	;RP0=0, select bank0
  3122  0A6B  1303               	bcf	3,6	;RP1=0, select bank0
  3123  0A6C  0823               	movf	?___flneg+3,w
  3124  0A6D  1683               	bsf	3,5	;RP0=1, select bank1
  3125  0A6E  1303               	bcf	3,6	;RP1=0, select bank1
  3126  0A6F  00CB               	movwf	(pow@x+3)^(0+128)
  3127  0A70  1283               	bcf	3,5	;RP0=0, select bank0
  3128  0A71  1303               	bcf	3,6	;RP1=0, select bank0
  3129  0A72  0822               	movf	?___flneg+2,w
  3130  0A73  1683               	bsf	3,5	;RP0=1, select bank1
  3131  0A74  1303               	bcf	3,6	;RP1=0, select bank1
  3132  0A75  00CA               	movwf	(pow@x+2)^(0+128)
  3133  0A76  1283               	bcf	3,5	;RP0=0, select bank0
  3134  0A77  1303               	bcf	3,6	;RP1=0, select bank0
  3135  0A78  0821               	movf	?___flneg+1,w
  3136  0A79  1683               	bsf	3,5	;RP0=1, select bank1
  3137  0A7A  1303               	bcf	3,6	;RP1=0, select bank1
  3138  0A7B  00C9               	movwf	(pow@x+1)^(0+128)
  3139  0A7C  1283               	bcf	3,5	;RP0=0, select bank0
  3140  0A7D  1303               	bcf	3,6	;RP1=0, select bank0
  3141  0A7E  0820               	movf	?___flneg,w
  3142  0A7F  1683               	bsf	3,5	;RP0=1, select bank1
  3143  0A80  1303               	bcf	3,6	;RP1=0, select bank1
  3144  0A81  00C8               	movwf	pow@x^(0+128)
  3145  0A82                     l3150:	
  3146  0A82  1683               	bsf	3,5	;RP0=1, select bank1
  3147  0A83  1303               	bcf	3,6	;RP1=0, select bank1
  3148  0A84  084B               	movf	(pow@x+3)^(0+128),w
  3149  0A85  00B7               	movwf	(log@x+3)^(0+128)
  3150  0A86  084A               	movf	(pow@x+2)^(0+128),w
  3151  0A87  00B6               	movwf	(log@x+2)^(0+128)
  3152  0A88  0849               	movf	(pow@x+1)^(0+128),w
  3153  0A89  00B5               	movwf	(log@x+1)^(0+128)
  3154  0A8A  0848               	movf	pow@x^(0+128),w
  3155  0A8B  00B4               	movwf	log@x^(0+128)
  3156  0A8C  120A  118A  2625  120A  158A  	fcall	_log
  3157  0A91  1683               	bsf	3,5	;RP0=1, select bank1
  3158  0A92  1303               	bcf	3,6	;RP1=0, select bank1
  3159  0A93  0837               	movf	(?_log+3)^(0+128),w
  3160  0A94  00D4               	movwf	(_pow$960+3)^(0+128)
  3161  0A95  0836               	movf	(?_log+2)^(0+128),w
  3162  0A96  00D3               	movwf	(_pow$960+2)^(0+128)
  3163  0A97  0835               	movf	(?_log+1)^(0+128),w
  3164  0A98  00D2               	movwf	(_pow$960+1)^(0+128)
  3165  0A99  0834               	movf	?_log^(0+128),w
  3166  0A9A  00D1               	movwf	_pow$960^(0+128)
  3167  0A9B                     l3152:	
  3168  0A9B  084F               	movf	(pow@y+3)^(0+128),w
  3169  0A9C  1283               	bcf	3,5	;RP0=0, select bank0
  3170  0A9D  1303               	bcf	3,6	;RP1=0, select bank0
  3171  0A9E  00C4               	movwf	___flmul@b+3
  3172  0A9F  1683               	bsf	3,5	;RP0=1, select bank1
  3173  0AA0  1303               	bcf	3,6	;RP1=0, select bank1
  3174  0AA1  084E               	movf	(pow@y+2)^(0+128),w
  3175  0AA2  1283               	bcf	3,5	;RP0=0, select bank0
  3176  0AA3  1303               	bcf	3,6	;RP1=0, select bank0
  3177  0AA4  00C3               	movwf	___flmul@b+2
  3178  0AA5  1683               	bsf	3,5	;RP0=1, select bank1
  3179  0AA6  1303               	bcf	3,6	;RP1=0, select bank1
  3180  0AA7  084D               	movf	(pow@y+1)^(0+128),w
  3181  0AA8  1283               	bcf	3,5	;RP0=0, select bank0
  3182  0AA9  1303               	bcf	3,6	;RP1=0, select bank0
  3183  0AAA  00C2               	movwf	___flmul@b+1
  3184  0AAB  1683               	bsf	3,5	;RP0=1, select bank1
  3185  0AAC  1303               	bcf	3,6	;RP1=0, select bank1
  3186  0AAD  084C               	movf	pow@y^(0+128),w
  3187  0AAE  1283               	bcf	3,5	;RP0=0, select bank0
  3188  0AAF  1303               	bcf	3,6	;RP1=0, select bank0
  3189  0AB0  00C1               	movwf	___flmul@b
  3190  0AB1  1683               	bsf	3,5	;RP0=1, select bank1
  3191  0AB2  1303               	bcf	3,6	;RP1=0, select bank1
  3192  0AB3  0854               	movf	(_pow$960+3)^(0+128),w
  3193  0AB4  1283               	bcf	3,5	;RP0=0, select bank0
  3194  0AB5  1303               	bcf	3,6	;RP1=0, select bank0
  3195  0AB6  00C8               	movwf	___flmul@a+3
  3196  0AB7  1683               	bsf	3,5	;RP0=1, select bank1
  3197  0AB8  1303               	bcf	3,6	;RP1=0, select bank1
  3198  0AB9  0853               	movf	(_pow$960+2)^(0+128),w
  3199  0ABA  1283               	bcf	3,5	;RP0=0, select bank0
  3200  0ABB  1303               	bcf	3,6	;RP1=0, select bank0
  3201  0ABC  00C7               	movwf	___flmul@a+2
  3202  0ABD  1683               	bsf	3,5	;RP0=1, select bank1
  3203  0ABE  1303               	bcf	3,6	;RP1=0, select bank1
  3204  0ABF  0852               	movf	(_pow$960+1)^(0+128),w
  3205  0AC0  1283               	bcf	3,5	;RP0=0, select bank0
  3206  0AC1  1303               	bcf	3,6	;RP1=0, select bank0
  3207  0AC2  00C6               	movwf	___flmul@a+1
  3208  0AC3  1683               	bsf	3,5	;RP0=1, select bank1
  3209  0AC4  1303               	bcf	3,6	;RP1=0, select bank1
  3210  0AC5  0851               	movf	_pow$960^(0+128),w
  3211  0AC6  1283               	bcf	3,5	;RP0=0, select bank0
  3212  0AC7  1303               	bcf	3,6	;RP1=0, select bank0
  3213  0AC8  00C5               	movwf	___flmul@a
  3214  0AC9  120A  118A  203C  120A  158A  	fcall	___flmul
  3215  0ACE  1283               	bcf	3,5	;RP0=0, select bank0
  3216  0ACF  1303               	bcf	3,6	;RP1=0, select bank0
  3217  0AD0  0844               	movf	?___flmul+3,w
  3218  0AD1  1683               	bsf	3,5	;RP0=1, select bank1
  3219  0AD2  1303               	bcf	3,6	;RP1=0, select bank1
  3220  0AD3  00D8               	movwf	(_pow$961+3)^(0+128)
  3221  0AD4  1283               	bcf	3,5	;RP0=0, select bank0
  3222  0AD5  1303               	bcf	3,6	;RP1=0, select bank0
  3223  0AD6  0843               	movf	?___flmul+2,w
  3224  0AD7  1683               	bsf	3,5	;RP0=1, select bank1
  3225  0AD8  1303               	bcf	3,6	;RP1=0, select bank1
  3226  0AD9  00D7               	movwf	(_pow$961+2)^(0+128)
  3227  0ADA  1283               	bcf	3,5	;RP0=0, select bank0
  3228  0ADB  1303               	bcf	3,6	;RP1=0, select bank0
  3229  0ADC  0842               	movf	?___flmul+1,w
  3230  0ADD  1683               	bsf	3,5	;RP0=1, select bank1
  3231  0ADE  1303               	bcf	3,6	;RP1=0, select bank1
  3232  0ADF  00D6               	movwf	(_pow$961+1)^(0+128)
  3233  0AE0  1283               	bcf	3,5	;RP0=0, select bank0
  3234  0AE1  1303               	bcf	3,6	;RP1=0, select bank0
  3235  0AE2  0841               	movf	?___flmul,w
  3236  0AE3  1683               	bsf	3,5	;RP0=1, select bank1
  3237  0AE4  1303               	bcf	3,6	;RP1=0, select bank1
  3238  0AE5  00D5               	movwf	_pow$961^(0+128)
  3239  0AE6                     l3154:	
  3240  0AE6  0858               	movf	(_pow$961+3)^(0+128),w
  3241  0AE7  00BF               	movwf	(exp@x+3)^(0+128)
  3242  0AE8  0857               	movf	(_pow$961+2)^(0+128),w
  3243  0AE9  00BE               	movwf	(exp@x+2)^(0+128)
  3244  0AEA  0856               	movf	(_pow$961+1)^(0+128),w
  3245  0AEB  00BD               	movwf	(exp@x+1)^(0+128)
  3246  0AEC  0855               	movf	_pow$961^(0+128),w
  3247  0AED  00BC               	movwf	exp@x^(0+128)
  3248  0AEE  120A  158A  2589  120A  158A  	fcall	_exp
  3249  0AF3  1683               	bsf	3,5	;RP0=1, select bank1
  3250  0AF4  1303               	bcf	3,6	;RP1=0, select bank1
  3251  0AF5  083F               	movf	(?_exp+3)^(0+128),w
  3252  0AF6  00CB               	movwf	(pow@x+3)^(0+128)
  3253  0AF7  083E               	movf	(?_exp+2)^(0+128),w
  3254  0AF8  00CA               	movwf	(pow@x+2)^(0+128)
  3255  0AF9  083D               	movf	(?_exp+1)^(0+128),w
  3256  0AFA  00C9               	movwf	(pow@x+1)^(0+128)
  3257  0AFB  083C               	movf	?_exp^(0+128),w
  3258  0AFC  00C8               	movwf	pow@x^(0+128)
  3259  0AFD                     l3156:	
  3260  0AFD  0859               	movf	pow@sign^(0+128),w
  3261  0AFE  1903               	btfsc	3,2
  3262  0AFF  2B01               	goto	u4641
  3263  0B00  2B02               	goto	u4640
  3264  0B01                     u4641:	
  3265  0B01  2B36               	goto	l710
  3266  0B02                     u4640:	
  3267  0B02                     l3158:	
  3268  0B02  084B               	movf	(pow@x+3)^(0+128),w
  3269  0B03  1283               	bcf	3,5	;RP0=0, select bank0
  3270  0B04  1303               	bcf	3,6	;RP1=0, select bank0
  3271  0B05  00A3               	movwf	___flneg@f1+3
  3272  0B06  1683               	bsf	3,5	;RP0=1, select bank1
  3273  0B07  1303               	bcf	3,6	;RP1=0, select bank1
  3274  0B08  084A               	movf	(pow@x+2)^(0+128),w
  3275  0B09  1283               	bcf	3,5	;RP0=0, select bank0
  3276  0B0A  1303               	bcf	3,6	;RP1=0, select bank0
  3277  0B0B  00A2               	movwf	___flneg@f1+2
  3278  0B0C  1683               	bsf	3,5	;RP0=1, select bank1
  3279  0B0D  1303               	bcf	3,6	;RP1=0, select bank1
  3280  0B0E  0849               	movf	(pow@x+1)^(0+128),w
  3281  0B0F  1283               	bcf	3,5	;RP0=0, select bank0
  3282  0B10  1303               	bcf	3,6	;RP1=0, select bank0
  3283  0B11  00A1               	movwf	___flneg@f1+1
  3284  0B12  1683               	bsf	3,5	;RP0=1, select bank1
  3285  0B13  1303               	bcf	3,6	;RP1=0, select bank1
  3286  0B14  0848               	movf	pow@x^(0+128),w
  3287  0B15  1283               	bcf	3,5	;RP0=0, select bank0
  3288  0B16  1303               	bcf	3,6	;RP1=0, select bank0
  3289  0B17  00A0               	movwf	___flneg@f1
  3290  0B18  160A  158A  2539  120A  158A  	fcall	___flneg
  3291  0B1D  1283               	bcf	3,5	;RP0=0, select bank0
  3292  0B1E  1303               	bcf	3,6	;RP1=0, select bank0
  3293  0B1F  0823               	movf	?___flneg+3,w
  3294  0B20  1683               	bsf	3,5	;RP0=1, select bank1
  3295  0B21  1303               	bcf	3,6	;RP1=0, select bank1
  3296  0B22  00CB               	movwf	(?_pow+3)^(0+128)
  3297  0B23  1283               	bcf	3,5	;RP0=0, select bank0
  3298  0B24  1303               	bcf	3,6	;RP1=0, select bank0
  3299  0B25  0822               	movf	?___flneg+2,w
  3300  0B26  1683               	bsf	3,5	;RP0=1, select bank1
  3301  0B27  1303               	bcf	3,6	;RP1=0, select bank1
  3302  0B28  00CA               	movwf	(?_pow+2)^(0+128)
  3303  0B29  1283               	bcf	3,5	;RP0=0, select bank0
  3304  0B2A  1303               	bcf	3,6	;RP1=0, select bank0
  3305  0B2B  0821               	movf	?___flneg+1,w
  3306  0B2C  1683               	bsf	3,5	;RP0=1, select bank1
  3307  0B2D  1303               	bcf	3,6	;RP1=0, select bank1
  3308  0B2E  00C9               	movwf	(?_pow+1)^(0+128)
  3309  0B2F  1283               	bcf	3,5	;RP0=0, select bank0
  3310  0B30  1303               	bcf	3,6	;RP1=0, select bank0
  3311  0B31  0820               	movf	?___flneg,w
  3312  0B32  1683               	bsf	3,5	;RP0=1, select bank1
  3313  0B33  1303               	bcf	3,6	;RP1=0, select bank1
  3314  0B34  00C8               	movwf	?_pow^(0+128)
  3315  0B35  2B36               	goto	l706
  3316  0B36                     l710:	
  3317  0B36                     l706:	
  3318  0B36  0008               	return
  3319  0B37                     __end_of_pow:	
  3320                           
  3321                           	psect	text6
  3322  0625                     __ptext6:	
  3323 ;; *************** function _log *****************
  3324 ;; Defined at:
  3325 ;;		line 5 in file "C:\Program Files (x86)\Microchip\xc8\v2.10\pic\sources\c90\common\log.c"
  3326 ;; Parameters:    Size  Location     Type
  3327 ;;  x               4   20[BANK1 ] unsigned char 
  3328 ;; Auto vars:     Size  Location     Type
  3329 ;;  exponent        2   24[BANK1 ] int 
  3330 ;; Return value:  Size  Location     Type
  3331 ;;                  4   20[BANK1 ] int 
  3332 ;; Registers used:
  3333 ;;		wreg, fsr0l, fsr0h, status,2, status,0, btemp+1, pclath, cstack
  3334 ;; Tracked objects:
  3335 ;;		On entry : 0/0
  3336 ;;		On exit  : 0/0
  3337 ;;		Unchanged: 0/0
  3338 ;; Data sizes:     COMMON   BANK0   BANK1   BANK3   BANK2
  3339 ;;      Params:         0       0       4       0       0
  3340 ;;      Locals:         0       0       2       0       0
  3341 ;;      Temps:          0       1       0       0       0
  3342 ;;      Totals:         0       1       6       0       0
  3343 ;;Total ram usage:        7 bytes
  3344 ;; Hardware stack levels used:    1
  3345 ;; Hardware stack levels required when called:    4
  3346 ;; This function calls:
  3347 ;;		___fladd
  3348 ;;		___fleq
  3349 ;;		___flge
  3350 ;;		___flmul
  3351 ;;		___xxtofl
  3352 ;;		_eval_poly
  3353 ;;		_frexp
  3354 ;; This function is called by:
  3355 ;;		_pow
  3356 ;; This function uses a non-reentrant model
  3357 ;;
  3358                           
  3359                           
  3360                           ;psect for function _log
  3361  0625                     _log:	
  3362  0625                     l3100:	
  3363                           ;incstack = 0
  3364                           ; Regs used in _log: [wreg-fsr0h+status,2+status,0+btemp+1+pclath+cstack]
  3365                           
  3366  0625  1683               	bsf	3,5	;RP0=1, select bank1
  3367  0626  1303               	bcf	3,6	;RP1=0, select bank1
  3368  0627  0837               	movf	(log@x+3)^(0+128),w
  3369  0628  1283               	bcf	3,5	;RP0=0, select bank0
  3370  0629  1303               	bcf	3,6	;RP1=0, select bank0
  3371  062A  00A3               	movwf	___flge@ff1+3
  3372  062B  1683               	bsf	3,5	;RP0=1, select bank1
  3373  062C  1303               	bcf	3,6	;RP1=0, select bank1
  3374  062D  0836               	movf	(log@x+2)^(0+128),w
  3375  062E  1283               	bcf	3,5	;RP0=0, select bank0
  3376  062F  1303               	bcf	3,6	;RP1=0, select bank0
  3377  0630  00A2               	movwf	___flge@ff1+2
  3378  0631  1683               	bsf	3,5	;RP0=1, select bank1
  3379  0632  1303               	bcf	3,6	;RP1=0, select bank1
  3380  0633  0835               	movf	(log@x+1)^(0+128),w
  3381  0634  1283               	bcf	3,5	;RP0=0, select bank0
  3382  0635  1303               	bcf	3,6	;RP1=0, select bank0
  3383  0636  00A1               	movwf	___flge@ff1+1
  3384  0637  1683               	bsf	3,5	;RP0=1, select bank1
  3385  0638  1303               	bcf	3,6	;RP1=0, select bank1
  3386  0639  0834               	movf	log@x^(0+128),w
  3387  063A  1283               	bcf	3,5	;RP0=0, select bank0
  3388  063B  1303               	bcf	3,6	;RP1=0, select bank0
  3389  063C  00A0               	movwf	___flge@ff1
  3390  063D  3000               	movlw	0
  3391  063E  00A7               	movwf	___flge@ff2+3
  3392  063F  3000               	movlw	0
  3393  0640  00A6               	movwf	___flge@ff2+2
  3394  0641  3000               	movlw	0
  3395  0642  00A5               	movwf	___flge@ff2+1
  3396  0643  3000               	movlw	0
  3397  0644  00A4               	movwf	___flge@ff2
  3398  0645  160A  118A  2105  120A  118A  	fcall	___flge
  3399  064A  1803               	btfsc	3,0
  3400  064B  2E4D               	goto	u4571
  3401  064C  2E4E               	goto	u4570
  3402  064D                     u4571:	
  3403  064D  2E5D               	goto	l3106
  3404  064E                     u4570:	
  3405  064E                     l3102:	
  3406  064E  3021               	movlw	33
  3407  064F  00F9               	movwf	_errno
  3408  0650  3000               	movlw	0
  3409  0651  00FA               	movwf	_errno+1
  3410  0652  3000               	movlw	0
  3411  0653  1683               	bsf	3,5	;RP0=1, select bank1
  3412  0654  1303               	bcf	3,6	;RP1=0, select bank1
  3413  0655  00B7               	movwf	(?_log+3)^(0+128)
  3414  0656  3000               	movlw	0
  3415  0657  00B6               	movwf	(?_log+2)^(0+128)
  3416  0658  3000               	movlw	0
  3417  0659  00B5               	movwf	(?_log+1)^(0+128)
  3418  065A  3000               	movlw	0
  3419  065B  00B4               	movwf	?_log^(0+128)
  3420  065C  2F8E               	goto	l774
  3421  065D                     l3106:	
  3422  065D  1683               	bsf	3,5	;RP0=1, select bank1
  3423  065E  1303               	bcf	3,6	;RP1=0, select bank1
  3424  065F  0837               	movf	(log@x+3)^(0+128),w
  3425  0660  1283               	bcf	3,5	;RP0=0, select bank0
  3426  0661  1303               	bcf	3,6	;RP1=0, select bank0
  3427  0662  00B1               	movwf	___fleq@ff1+3
  3428  0663  1683               	bsf	3,5	;RP0=1, select bank1
  3429  0664  1303               	bcf	3,6	;RP1=0, select bank1
  3430  0665  0836               	movf	(log@x+2)^(0+128),w
  3431  0666  1283               	bcf	3,5	;RP0=0, select bank0
  3432  0667  1303               	bcf	3,6	;RP1=0, select bank0
  3433  0668  00B0               	movwf	___fleq@ff1+2
  3434  0669  1683               	bsf	3,5	;RP0=1, select bank1
  3435  066A  1303               	bcf	3,6	;RP1=0, select bank1
  3436  066B  0835               	movf	(log@x+1)^(0+128),w
  3437  066C  1283               	bcf	3,5	;RP0=0, select bank0
  3438  066D  1303               	bcf	3,6	;RP1=0, select bank0
  3439  066E  00AF               	movwf	___fleq@ff1+1
  3440  066F  1683               	bsf	3,5	;RP0=1, select bank1
  3441  0670  1303               	bcf	3,6	;RP1=0, select bank1
  3442  0671  0834               	movf	log@x^(0+128),w
  3443  0672  1283               	bcf	3,5	;RP0=0, select bank0
  3444  0673  1303               	bcf	3,6	;RP1=0, select bank0
  3445  0674  00AE               	movwf	___fleq@ff1
  3446  0675  3000               	movlw	0
  3447  0676  00B5               	movwf	___fleq@ff2+3
  3448  0677  3000               	movlw	0
  3449  0678  00B4               	movwf	___fleq@ff2+2
  3450  0679  3000               	movlw	0
  3451  067A  00B3               	movwf	___fleq@ff2+1
  3452  067B  3000               	movlw	0
  3453  067C  00B2               	movwf	___fleq@ff2
  3454  067D  160A  158A  2734  120A  118A  	fcall	___fleq
  3455  0682  1C03               	btfss	3,0
  3456  0683  2E85               	goto	u4581
  3457  0684  2E86               	goto	u4580
  3458  0685                     u4581:	
  3459  0685  2E95               	goto	l3112
  3460  0686                     u4580:	
  3461  0686                     l3108:	
  3462  0686  3022               	movlw	34
  3463  0687  00F9               	movwf	_errno
  3464  0688  3000               	movlw	0
  3465  0689  00FA               	movwf	_errno+1
  3466  068A  3000               	movlw	0
  3467  068B  1683               	bsf	3,5	;RP0=1, select bank1
  3468  068C  1303               	bcf	3,6	;RP1=0, select bank1
  3469  068D  00B7               	movwf	(?_log+3)^(0+128)
  3470  068E  3000               	movlw	0
  3471  068F  00B6               	movwf	(?_log+2)^(0+128)
  3472  0690  3000               	movlw	0
  3473  0691  00B5               	movwf	(?_log+1)^(0+128)
  3474  0692  3000               	movlw	0
  3475  0693  00B4               	movwf	?_log^(0+128)
  3476  0694  2F8E               	goto	l774
  3477  0695                     l3112:	
  3478  0695  30BF               	movlw	191
  3479  0696  1283               	bcf	3,5	;RP0=0, select bank0
  3480  0697  1303               	bcf	3,6	;RP1=0, select bank0
  3481  0698  00DE               	movwf	___fladd@b+3
  3482  0699  3080               	movlw	128
  3483  069A  00DD               	movwf	___fladd@b+2
  3484  069B  3000               	movlw	0
  3485  069C  00DC               	movwf	___fladd@b+1
  3486  069D  3000               	movlw	0
  3487  069E  00DB               	movwf	___fladd@b
  3488  069F  3040               	movlw	64
  3489  06A0  00C4               	movwf	___flmul@b+3
  3490  06A1  3000               	movlw	0
  3491  06A2  00C3               	movwf	___flmul@b+2
  3492  06A3  3000               	movlw	0
  3493  06A4  00C2               	movwf	___flmul@b+1
  3494  06A5  3000               	movlw	0
  3495  06A6  00C1               	movwf	___flmul@b
  3496  06A7  30B8               	movlw	(low (log@exponent| 0))& (0+255)
  3497  06A8  00EF               	movwf	??_log
  3498  06A9  086F               	movf	??_log,w
  3499  06AA  00BE               	movwf	frexp@eptr
  3500  06AB  1683               	bsf	3,5	;RP0=1, select bank1
  3501  06AC  1303               	bcf	3,6	;RP1=0, select bank1
  3502  06AD  0837               	movf	(log@x+3)^(0+128),w
  3503  06AE  1283               	bcf	3,5	;RP0=0, select bank0
  3504  06AF  1303               	bcf	3,6	;RP1=0, select bank0
  3505  06B0  00BD               	movwf	frexp@value+3
  3506  06B1  1683               	bsf	3,5	;RP0=1, select bank1
  3507  06B2  1303               	bcf	3,6	;RP1=0, select bank1
  3508  06B3  0836               	movf	(log@x+2)^(0+128),w
  3509  06B4  1283               	bcf	3,5	;RP0=0, select bank0
  3510  06B5  1303               	bcf	3,6	;RP1=0, select bank0
  3511  06B6  00BC               	movwf	frexp@value+2
  3512  06B7  1683               	bsf	3,5	;RP0=1, select bank1
  3513  06B8  1303               	bcf	3,6	;RP1=0, select bank1
  3514  06B9  0835               	movf	(log@x+1)^(0+128),w
  3515  06BA  1283               	bcf	3,5	;RP0=0, select bank0
  3516  06BB  1303               	bcf	3,6	;RP1=0, select bank0
  3517  06BC  00BB               	movwf	frexp@value+1
  3518  06BD  1683               	bsf	3,5	;RP0=1, select bank1
  3519  06BE  1303               	bcf	3,6	;RP1=0, select bank1
  3520  06BF  0834               	movf	log@x^(0+128),w
  3521  06C0  1283               	bcf	3,5	;RP0=0, select bank0
  3522  06C1  1303               	bcf	3,6	;RP1=0, select bank0
  3523  06C2  00BA               	movwf	frexp@value
  3524  06C3  120A  118A  278F  120A  118A  	fcall	_frexp
  3525  06C8  1283               	bcf	3,5	;RP0=0, select bank0
  3526  06C9  1303               	bcf	3,6	;RP1=0, select bank0
  3527  06CA  083D               	movf	?_frexp+3,w
  3528  06CB  00C8               	movwf	___flmul@a+3
  3529  06CC  083C               	movf	?_frexp+2,w
  3530  06CD  00C7               	movwf	___flmul@a+2
  3531  06CE  083B               	movf	?_frexp+1,w
  3532  06CF  00C6               	movwf	___flmul@a+1
  3533  06D0  083A               	movf	?_frexp,w
  3534  06D1  00C5               	movwf	___flmul@a
  3535  06D2  120A  118A  203C  120A  118A  	fcall	___flmul
  3536  06D7  1283               	bcf	3,5	;RP0=0, select bank0
  3537  06D8  1303               	bcf	3,6	;RP1=0, select bank0
  3538  06D9  0844               	movf	?___flmul+3,w
  3539  06DA  00E2               	movwf	___fladd@a+3
  3540  06DB  0843               	movf	?___flmul+2,w
  3541  06DC  00E1               	movwf	___fladd@a+2
  3542  06DD  0842               	movf	?___flmul+1,w
  3543  06DE  00E0               	movwf	___fladd@a+1
  3544  06DF  0841               	movf	?___flmul,w
  3545  06E0  00DF               	movwf	___fladd@a
  3546  06E1  120A  118A  239D  120A  118A  	fcall	___fladd
  3547  06E6  1283               	bcf	3,5	;RP0=0, select bank0
  3548  06E7  1303               	bcf	3,6	;RP1=0, select bank0
  3549  06E8  085E               	movf	?___fladd+3,w
  3550  06E9  1683               	bsf	3,5	;RP0=1, select bank1
  3551  06EA  1303               	bcf	3,6	;RP1=0, select bank1
  3552  06EB  00B7               	movwf	(log@x+3)^(0+128)
  3553  06EC  1283               	bcf	3,5	;RP0=0, select bank0
  3554  06ED  1303               	bcf	3,6	;RP1=0, select bank0
  3555  06EE  085D               	movf	?___fladd+2,w
  3556  06EF  1683               	bsf	3,5	;RP0=1, select bank1
  3557  06F0  1303               	bcf	3,6	;RP1=0, select bank1
  3558  06F1  00B6               	movwf	(log@x+2)^(0+128)
  3559  06F2  1283               	bcf	3,5	;RP0=0, select bank0
  3560  06F3  1303               	bcf	3,6	;RP1=0, select bank0
  3561  06F4  085C               	movf	?___fladd+1,w
  3562  06F5  1683               	bsf	3,5	;RP0=1, select bank1
  3563  06F6  1303               	bcf	3,6	;RP1=0, select bank1
  3564  06F7  00B5               	movwf	(log@x+1)^(0+128)
  3565  06F8  1283               	bcf	3,5	;RP0=0, select bank0
  3566  06F9  1303               	bcf	3,6	;RP1=0, select bank0
  3567  06FA  085B               	movf	?___fladd,w
  3568  06FB  1683               	bsf	3,5	;RP0=1, select bank1
  3569  06FC  1303               	bcf	3,6	;RP1=0, select bank1
  3570  06FD  00B4               	movwf	log@x^(0+128)
  3571  06FE                     l3114:	
  3572  06FE  30FF               	movlw	255
  3573  06FF  07B8               	addwf	log@exponent^(0+128),f
  3574  0700  1803               	skipnc
  3575  0701  0AB9               	incf	(log@exponent+1)^(0+128),f
  3576  0702  30FF               	movlw	255
  3577  0703  07B9               	addwf	(log@exponent+1)^(0+128),f
  3578  0704                     l3116:	
  3579  0704  0837               	movf	(log@x+3)^(0+128),w
  3580  0705  00A3               	movwf	(eval_poly@x+3)^(0+128)
  3581  0706  0836               	movf	(log@x+2)^(0+128),w
  3582  0707  00A2               	movwf	(eval_poly@x+2)^(0+128)
  3583  0708  0835               	movf	(log@x+1)^(0+128),w
  3584  0709  00A1               	movwf	(eval_poly@x+1)^(0+128)
  3585  070A  0834               	movf	log@x^(0+128),w
  3586  070B  00A0               	movwf	eval_poly@x^(0+128)
  3587  070C  3044               	movlw	low (log@coeff| (0+32768))
  3588  070D  00A4               	movwf	eval_poly@d^(0+128)
  3589  070E  3098               	movlw	high (log@coeff| (0+32768))
  3590  070F  00A5               	movwf	(eval_poly@d^(0+128)+1)
  3591  0710  3008               	movlw	8
  3592  0711  00A6               	movwf	eval_poly@n^(0+128)
  3593  0712  3000               	movlw	0
  3594  0713  00A7               	movwf	(eval_poly@n^(0+128)+1)
  3595  0714  160A  118A  23D2  120A  118A  	fcall	_eval_poly
  3596  0719  1683               	bsf	3,5	;RP0=1, select bank1
  3597  071A  1303               	bcf	3,6	;RP1=0, select bank1
  3598  071B  0823               	movf	(?_eval_poly+3)^(0+128),w
  3599  071C  00B7               	movwf	(log@x+3)^(0+128)
  3600  071D  0822               	movf	(?_eval_poly+2)^(0+128),w
  3601  071E  00B6               	movwf	(log@x+2)^(0+128)
  3602  071F  0821               	movf	(?_eval_poly+1)^(0+128),w
  3603  0720  00B5               	movwf	(log@x+1)^(0+128)
  3604  0721  0820               	movf	?_eval_poly^(0+128),w
  3605  0722  00B4               	movwf	log@x^(0+128)
  3606  0723                     l3118:	
  3607  0723  0837               	movf	(log@x+3)^(0+128),w
  3608  0724  1283               	bcf	3,5	;RP0=0, select bank0
  3609  0725  1303               	bcf	3,6	;RP1=0, select bank0
  3610  0726  00DE               	movwf	___fladd@b+3
  3611  0727  1683               	bsf	3,5	;RP0=1, select bank1
  3612  0728  1303               	bcf	3,6	;RP1=0, select bank1
  3613  0729  0836               	movf	(log@x+2)^(0+128),w
  3614  072A  1283               	bcf	3,5	;RP0=0, select bank0
  3615  072B  1303               	bcf	3,6	;RP1=0, select bank0
  3616  072C  00DD               	movwf	___fladd@b+2
  3617  072D  1683               	bsf	3,5	;RP0=1, select bank1
  3618  072E  1303               	bcf	3,6	;RP1=0, select bank1
  3619  072F  0835               	movf	(log@x+1)^(0+128),w
  3620  0730  1283               	bcf	3,5	;RP0=0, select bank0
  3621  0731  1303               	bcf	3,6	;RP1=0, select bank0
  3622  0732  00DC               	movwf	___fladd@b+1
  3623  0733  1683               	bsf	3,5	;RP0=1, select bank1
  3624  0734  1303               	bcf	3,6	;RP1=0, select bank1
  3625  0735  0834               	movf	log@x^(0+128),w
  3626  0736  1283               	bcf	3,5	;RP0=0, select bank0
  3627  0737  1303               	bcf	3,6	;RP1=0, select bank0
  3628  0738  00DB               	movwf	___fladd@b
  3629  0739  303F               	movlw	63
  3630  073A  00C4               	movwf	___flmul@b+3
  3631  073B  3031               	movlw	49
  3632  073C  00C3               	movwf	___flmul@b+2
  3633  073D  3072               	movlw	114
  3634  073E  00C2               	movwf	___flmul@b+1
  3635  073F  3018               	movlw	24
  3636  0740  00C1               	movwf	___flmul@b
  3637  0741  1683               	bsf	3,5	;RP0=1, select bank1
  3638  0742  1303               	bcf	3,6	;RP1=0, select bank1
  3639  0743  0838               	movf	log@exponent^(0+128),w
  3640  0744  1283               	bcf	3,5	;RP0=0, select bank0
  3641  0745  1303               	bcf	3,6	;RP1=0, select bank0
  3642  0746  00A0               	movwf	___xxtofl@val
  3643  0747  1683               	bsf	3,5	;RP0=1, select bank1
  3644  0748  1303               	bcf	3,6	;RP1=0, select bank1
  3645  0749  0839               	movf	(log@exponent+1)^(0+128),w
  3646  074A  1283               	bcf	3,5	;RP0=0, select bank0
  3647  074B  1303               	bcf	3,6	;RP1=0, select bank0
  3648  074C  00A1               	movwf	___xxtofl@val+1
  3649  074D  3000               	movlw	0
  3650  074E  1BA1               	btfsc	___xxtofl@val+1,7
  3651  074F  30FF               	movlw	255
  3652  0750  00A2               	movwf	___xxtofl@val+2
  3653  0751  00A3               	movwf	___xxtofl@val+3
  3654  0752  3001               	movlw	1
  3655  0753  160A  118A  2250  120A  118A  	fcall	___xxtofl
  3656  0758  1283               	bcf	3,5	;RP0=0, select bank0
  3657  0759  1303               	bcf	3,6	;RP1=0, select bank0
  3658  075A  0823               	movf	?___xxtofl+3,w
  3659  075B  00C8               	movwf	___flmul@a+3
  3660  075C  0822               	movf	?___xxtofl+2,w
  3661  075D  00C7               	movwf	___flmul@a+2
  3662  075E  0821               	movf	?___xxtofl+1,w
  3663  075F  00C6               	movwf	___flmul@a+1
  3664  0760  0820               	movf	?___xxtofl,w
  3665  0761  00C5               	movwf	___flmul@a
  3666  0762  120A  118A  203C  120A  118A  	fcall	___flmul
  3667  0767  1283               	bcf	3,5	;RP0=0, select bank0
  3668  0768  1303               	bcf	3,6	;RP1=0, select bank0
  3669  0769  0844               	movf	?___flmul+3,w
  3670  076A  00E2               	movwf	___fladd@a+3
  3671  076B  0843               	movf	?___flmul+2,w
  3672  076C  00E1               	movwf	___fladd@a+2
  3673  076D  0842               	movf	?___flmul+1,w
  3674  076E  00E0               	movwf	___fladd@a+1
  3675  076F  0841               	movf	?___flmul,w
  3676  0770  00DF               	movwf	___fladd@a
  3677  0771  120A  118A  239D  120A  118A  	fcall	___fladd
  3678  0776  1283               	bcf	3,5	;RP0=0, select bank0
  3679  0777  1303               	bcf	3,6	;RP1=0, select bank0
  3680  0778  085E               	movf	?___fladd+3,w
  3681  0779  1683               	bsf	3,5	;RP0=1, select bank1
  3682  077A  1303               	bcf	3,6	;RP1=0, select bank1
  3683  077B  00B7               	movwf	(?_log+3)^(0+128)
  3684  077C  1283               	bcf	3,5	;RP0=0, select bank0
  3685  077D  1303               	bcf	3,6	;RP1=0, select bank0
  3686  077E  085D               	movf	?___fladd+2,w
  3687  077F  1683               	bsf	3,5	;RP0=1, select bank1
  3688  0780  1303               	bcf	3,6	;RP1=0, select bank1
  3689  0781  00B6               	movwf	(?_log+2)^(0+128)
  3690  0782  1283               	bcf	3,5	;RP0=0, select bank0
  3691  0783  1303               	bcf	3,6	;RP1=0, select bank0
  3692  0784  085C               	movf	?___fladd+1,w
  3693  0785  1683               	bsf	3,5	;RP0=1, select bank1
  3694  0786  1303               	bcf	3,6	;RP1=0, select bank1
  3695  0787  00B5               	movwf	(?_log+1)^(0+128)
  3696  0788  1283               	bcf	3,5	;RP0=0, select bank0
  3697  0789  1303               	bcf	3,6	;RP1=0, select bank0
  3698  078A  085B               	movf	?___fladd,w
  3699  078B  1683               	bsf	3,5	;RP0=1, select bank1
  3700  078C  1303               	bcf	3,6	;RP1=0, select bank1
  3701  078D  00B4               	movwf	?_log^(0+128)
  3702  078E                     l774:	
  3703  078E  0008               	return
  3704  078F                     __end_of_log:	
  3705                           
  3706                           	psect	text7
  3707  0D89                     __ptext7:	
  3708 ;; *************** function _exp *****************
  3709 ;; Defined at:
  3710 ;;		line 12 in file "C:\Program Files (x86)\Microchip\xc8\v2.10\pic\sources\c90\common\exp.c"
  3711 ;; Parameters:    Size  Location     Type
  3712 ;;  x               4   28[BANK1 ] int 
  3713 ;; Auto vars:     Size  Location     Type
  3714 ;;  exponent        2   37[BANK1 ] int 
  3715 ;;  sign            1   39[BANK1 ] unsigned char 
  3716 ;; Return value:  Size  Location     Type
  3717 ;;                  4   28[BANK1 ] unsigned char 
  3718 ;; Registers used:
  3719 ;;		wreg, fsr0l, fsr0h, status,2, status,0, btemp+1, pclath, cstack
  3720 ;; Tracked objects:
  3721 ;;		On entry : 0/0
  3722 ;;		On exit  : 0/0
  3723 ;;		Unchanged: 0/0
  3724 ;; Data sizes:     COMMON   BANK0   BANK1   BANK3   BANK2
  3725 ;;      Params:         0       0       4       0       0
  3726 ;;      Locals:         0       0       7       0       0
  3727 ;;      Temps:          0       0       1       0       0
  3728 ;;      Totals:         0       0      12       0       0
  3729 ;;Total ram usage:       12 bytes
  3730 ;; Hardware stack levels used:    1
  3731 ;; Hardware stack levels required when called:    4
  3732 ;; This function calls:
  3733 ;;		___fldiv
  3734 ;;		___fleq
  3735 ;;		___flge
  3736 ;;		___flmul
  3737 ;;		___flneg
  3738 ;;		___flsub
  3739 ;;		___fltol
  3740 ;;		___xxtofl
  3741 ;;		_eval_poly
  3742 ;;		_floor
  3743 ;;		_ldexp
  3744 ;; This function is called by:
  3745 ;;		_pow
  3746 ;; This function uses a non-reentrant model
  3747 ;;
  3748                           
  3749                           
  3750                           ;psect for function _exp
  3751  0D89                     _exp:	
  3752  0D89                     l2728:	
  3753                           ;incstack = 0
  3754                           ; Regs used in _exp: [wreg-fsr0h+status,2+status,0+btemp+1+pclath+cstack]
  3755                           
  3756  0D89  1683               	bsf	3,5	;RP0=1, select bank1
  3757  0D8A  1303               	bcf	3,6	;RP1=0, select bank1
  3758  0D8B  083F               	movf	(exp@x+3)^(0+128),w
  3759  0D8C  1283               	bcf	3,5	;RP0=0, select bank0
  3760  0D8D  1303               	bcf	3,6	;RP1=0, select bank0
  3761  0D8E  00B1               	movwf	___fleq@ff1+3
  3762  0D8F  1683               	bsf	3,5	;RP0=1, select bank1
  3763  0D90  1303               	bcf	3,6	;RP1=0, select bank1
  3764  0D91  083E               	movf	(exp@x+2)^(0+128),w
  3765  0D92  1283               	bcf	3,5	;RP0=0, select bank0
  3766  0D93  1303               	bcf	3,6	;RP1=0, select bank0
  3767  0D94  00B0               	movwf	___fleq@ff1+2
  3768  0D95  1683               	bsf	3,5	;RP0=1, select bank1
  3769  0D96  1303               	bcf	3,6	;RP1=0, select bank1
  3770  0D97  083D               	movf	(exp@x+1)^(0+128),w
  3771  0D98  1283               	bcf	3,5	;RP0=0, select bank0
  3772  0D99  1303               	bcf	3,6	;RP1=0, select bank0
  3773  0D9A  00AF               	movwf	___fleq@ff1+1
  3774  0D9B  1683               	bsf	3,5	;RP0=1, select bank1
  3775  0D9C  1303               	bcf	3,6	;RP1=0, select bank1
  3776  0D9D  083C               	movf	exp@x^(0+128),w
  3777  0D9E  1283               	bcf	3,5	;RP0=0, select bank0
  3778  0D9F  1303               	bcf	3,6	;RP1=0, select bank0
  3779  0DA0  00AE               	movwf	___fleq@ff1
  3780  0DA1  3000               	movlw	0
  3781  0DA2  00B5               	movwf	___fleq@ff2+3
  3782  0DA3  3000               	movlw	0
  3783  0DA4  00B4               	movwf	___fleq@ff2+2
  3784  0DA5  3000               	movlw	0
  3785  0DA6  00B3               	movwf	___fleq@ff2+1
  3786  0DA7  3000               	movlw	0
  3787  0DA8  00B2               	movwf	___fleq@ff2
  3788  0DA9  160A  158A  2734  120A  158A  	fcall	___fleq
  3789  0DAE  1C03               	btfss	3,0
  3790  0DAF  2DB1               	goto	u3951
  3791  0DB0  2DB2               	goto	u3950
  3792  0DB1                     u3951:	
  3793  0DB1  2DBD               	goto	l2734
  3794  0DB2                     u3950:	
  3795  0DB2                     l2730:	
  3796  0DB2  303F               	movlw	63
  3797  0DB3  1683               	bsf	3,5	;RP0=1, select bank1
  3798  0DB4  1303               	bcf	3,6	;RP1=0, select bank1
  3799  0DB5  00BF               	movwf	(?_exp+3)^(0+128)
  3800  0DB6  3080               	movlw	128
  3801  0DB7  00BE               	movwf	(?_exp+2)^(0+128)
  3802  0DB8  3000               	movlw	0
  3803  0DB9  00BD               	movwf	(?_exp+1)^(0+128)
  3804  0DBA  3000               	movlw	0
  3805  0DBB  00BC               	movwf	?_exp^(0+128)
  3806  0DBC  2FFF               	goto	l732
  3807  0DBD                     l2734:	
  3808  0DBD  3044               	movlw	68
  3809  0DBE  1283               	bcf	3,5	;RP0=0, select bank0
  3810  0DBF  1303               	bcf	3,6	;RP1=0, select bank0
  3811  0DC0  00A3               	movwf	___flge@ff1+3
  3812  0DC1  3031               	movlw	49
  3813  0DC2  00A2               	movwf	___flge@ff1+2
  3814  0DC3  3072               	movlw	114
  3815  0DC4  00A1               	movwf	___flge@ff1+1
  3816  0DC5  3018               	movlw	24
  3817  0DC6  00A0               	movwf	___flge@ff1
  3818  0DC7  1683               	bsf	3,5	;RP0=1, select bank1
  3819  0DC8  1303               	bcf	3,6	;RP1=0, select bank1
  3820  0DC9  083F               	movf	(exp@x+3)^(0+128),w
  3821  0DCA  1283               	bcf	3,5	;RP0=0, select bank0
  3822  0DCB  1303               	bcf	3,6	;RP1=0, select bank0
  3823  0DCC  00A7               	movwf	___flge@ff2+3
  3824  0DCD  1683               	bsf	3,5	;RP0=1, select bank1
  3825  0DCE  1303               	bcf	3,6	;RP1=0, select bank1
  3826  0DCF  083E               	movf	(exp@x+2)^(0+128),w
  3827  0DD0  1283               	bcf	3,5	;RP0=0, select bank0
  3828  0DD1  1303               	bcf	3,6	;RP1=0, select bank0
  3829  0DD2  00A6               	movwf	___flge@ff2+2
  3830  0DD3  1683               	bsf	3,5	;RP0=1, select bank1
  3831  0DD4  1303               	bcf	3,6	;RP1=0, select bank1
  3832  0DD5  083D               	movf	(exp@x+1)^(0+128),w
  3833  0DD6  1283               	bcf	3,5	;RP0=0, select bank0
  3834  0DD7  1303               	bcf	3,6	;RP1=0, select bank0
  3835  0DD8  00A5               	movwf	___flge@ff2+1
  3836  0DD9  1683               	bsf	3,5	;RP0=1, select bank1
  3837  0DDA  1303               	bcf	3,6	;RP1=0, select bank1
  3838  0DDB  083C               	movf	exp@x^(0+128),w
  3839  0DDC  1283               	bcf	3,5	;RP0=0, select bank0
  3840  0DDD  1303               	bcf	3,6	;RP1=0, select bank0
  3841  0DDE  00A4               	movwf	___flge@ff2
  3842  0DDF  160A  118A  2105  120A  158A  	fcall	___flge
  3843  0DE4  1803               	btfsc	3,0
  3844  0DE5  2DE7               	goto	u3961
  3845  0DE6  2DE8               	goto	u3960
  3846  0DE7                     u3961:	
  3847  0DE7  2DF7               	goto	l2740
  3848  0DE8                     u3960:	
  3849  0DE8                     l2736:	
  3850  0DE8  3022               	movlw	34
  3851  0DE9  00F9               	movwf	_errno
  3852  0DEA  3000               	movlw	0
  3853  0DEB  00FA               	movwf	_errno+1
  3854  0DEC  307F               	movlw	127
  3855  0DED  1683               	bsf	3,5	;RP0=1, select bank1
  3856  0DEE  1303               	bcf	3,6	;RP1=0, select bank1
  3857  0DEF  00BF               	movwf	(?_exp+3)^(0+128)
  3858  0DF0  307F               	movlw	127
  3859  0DF1  00BE               	movwf	(?_exp+2)^(0+128)
  3860  0DF2  30FF               	movlw	255
  3861  0DF3  00BD               	movwf	(?_exp+1)^(0+128)
  3862  0DF4  30FF               	movlw	255
  3863  0DF5  00BC               	movwf	?_exp^(0+128)
  3864  0DF6  2FFF               	goto	l732
  3865  0DF7                     l2740:	
  3866  0DF7  1683               	bsf	3,5	;RP0=1, select bank1
  3867  0DF8  1303               	bcf	3,6	;RP1=0, select bank1
  3868  0DF9  083F               	movf	(exp@x+3)^(0+128),w
  3869  0DFA  1283               	bcf	3,5	;RP0=0, select bank0
  3870  0DFB  1303               	bcf	3,6	;RP1=0, select bank0
  3871  0DFC  00A3               	movwf	___flge@ff1+3
  3872  0DFD  1683               	bsf	3,5	;RP0=1, select bank1
  3873  0DFE  1303               	bcf	3,6	;RP1=0, select bank1
  3874  0DFF  083E               	movf	(exp@x+2)^(0+128),w
  3875  0E00  1283               	bcf	3,5	;RP0=0, select bank0
  3876  0E01  1303               	bcf	3,6	;RP1=0, select bank0
  3877  0E02  00A2               	movwf	___flge@ff1+2
  3878  0E03  1683               	bsf	3,5	;RP0=1, select bank1
  3879  0E04  1303               	bcf	3,6	;RP1=0, select bank1
  3880  0E05  083D               	movf	(exp@x+1)^(0+128),w
  3881  0E06  1283               	bcf	3,5	;RP0=0, select bank0
  3882  0E07  1303               	bcf	3,6	;RP1=0, select bank0
  3883  0E08  00A1               	movwf	___flge@ff1+1
  3884  0E09  1683               	bsf	3,5	;RP0=1, select bank1
  3885  0E0A  1303               	bcf	3,6	;RP1=0, select bank1
  3886  0E0B  083C               	movf	exp@x^(0+128),w
  3887  0E0C  1283               	bcf	3,5	;RP0=0, select bank0
  3888  0E0D  1303               	bcf	3,6	;RP1=0, select bank0
  3889  0E0E  00A0               	movwf	___flge@ff1
  3890  0E0F  30C4               	movlw	196
  3891  0E10  00A7               	movwf	___flge@ff2+3
  3892  0E11  303A               	movlw	58
  3893  0E12  00A6               	movwf	___flge@ff2+2
  3894  0E13  3048               	movlw	72
  3895  0E14  00A5               	movwf	___flge@ff2+1
  3896  0E15  3087               	movlw	135
  3897  0E16  00A4               	movwf	___flge@ff2
  3898  0E17  160A  118A  2105  120A  158A  	fcall	___flge
  3899  0E1C  1803               	btfsc	3,0
  3900  0E1D  2E1F               	goto	u3971
  3901  0E1E  2E20               	goto	u3970
  3902  0E1F                     u3971:	
  3903  0E1F  2E2F               	goto	l2746
  3904  0E20                     u3970:	
  3905  0E20                     l2742:	
  3906  0E20  3022               	movlw	34
  3907  0E21  00F9               	movwf	_errno
  3908  0E22  3000               	movlw	0
  3909  0E23  00FA               	movwf	_errno+1
  3910  0E24  3000               	movlw	0
  3911  0E25  1683               	bsf	3,5	;RP0=1, select bank1
  3912  0E26  1303               	bcf	3,6	;RP1=0, select bank1
  3913  0E27  00BF               	movwf	(?_exp+3)^(0+128)
  3914  0E28  3000               	movlw	0
  3915  0E29  00BE               	movwf	(?_exp+2)^(0+128)
  3916  0E2A  3000               	movlw	0
  3917  0E2B  00BD               	movwf	(?_exp+1)^(0+128)
  3918  0E2C  3000               	movlw	0
  3919  0E2D  00BC               	movwf	?_exp^(0+128)
  3920  0E2E  2FFF               	goto	l732
  3921  0E2F                     l2746:	
  3922  0E2F  1683               	bsf	3,5	;RP0=1, select bank1
  3923  0E30  1303               	bcf	3,6	;RP1=0, select bank1
  3924  0E31  083F               	movf	(exp@x+3)^(0+128),w
  3925  0E32  1283               	bcf	3,5	;RP0=0, select bank0
  3926  0E33  1303               	bcf	3,6	;RP1=0, select bank0
  3927  0E34  00A3               	movwf	___flge@ff1+3
  3928  0E35  1683               	bsf	3,5	;RP0=1, select bank1
  3929  0E36  1303               	bcf	3,6	;RP1=0, select bank1
  3930  0E37  083E               	movf	(exp@x+2)^(0+128),w
  3931  0E38  1283               	bcf	3,5	;RP0=0, select bank0
  3932  0E39  1303               	bcf	3,6	;RP1=0, select bank0
  3933  0E3A  00A2               	movwf	___flge@ff1+2
  3934  0E3B  1683               	bsf	3,5	;RP0=1, select bank1
  3935  0E3C  1303               	bcf	3,6	;RP1=0, select bank1
  3936  0E3D  083D               	movf	(exp@x+1)^(0+128),w
  3937  0E3E  1283               	bcf	3,5	;RP0=0, select bank0
  3938  0E3F  1303               	bcf	3,6	;RP1=0, select bank0
  3939  0E40  00A1               	movwf	___flge@ff1+1
  3940  0E41  1683               	bsf	3,5	;RP0=1, select bank1
  3941  0E42  1303               	bcf	3,6	;RP1=0, select bank1
  3942  0E43  083C               	movf	exp@x^(0+128),w
  3943  0E44  1283               	bcf	3,5	;RP0=0, select bank0
  3944  0E45  1303               	bcf	3,6	;RP1=0, select bank0
  3945  0E46  00A0               	movwf	___flge@ff1
  3946  0E47  3000               	movlw	0
  3947  0E48  00A7               	movwf	___flge@ff2+3
  3948  0E49  3000               	movlw	0
  3949  0E4A  00A6               	movwf	___flge@ff2+2
  3950  0E4B  3000               	movlw	0
  3951  0E4C  00A5               	movwf	___flge@ff2+1
  3952  0E4D  3000               	movlw	0
  3953  0E4E  00A4               	movwf	___flge@ff2
  3954  0E4F  160A  118A  2105  120A  158A  	fcall	___flge
  3955  0E54  1C03               	btfss	3,0
  3956  0E55  2E57               	goto	u3981
  3957  0E56  2E59               	goto	u3980
  3958  0E57                     u3981:	
  3959  0E57  3001               	movlw	1
  3960  0E58  2E5A               	goto	u3990
  3961  0E59                     u3980:	
  3962  0E59  3000               	movlw	0
  3963  0E5A                     u3990:	
  3964  0E5A  1683               	bsf	3,5	;RP0=1, select bank1
  3965  0E5B  1303               	bcf	3,6	;RP1=0, select bank1
  3966  0E5C  00C0               	movwf	??_exp^(0+128)
  3967  0E5D  0840               	movf	??_exp^(0+128),w
  3968  0E5E  00C7               	movwf	exp@sign^(0+128)
  3969  0E5F                     l2748:	
  3970  0E5F  0847               	movf	exp@sign^(0+128),w
  3971  0E60  1903               	btfsc	3,2
  3972  0E61  2E63               	goto	u4001
  3973  0E62  2E64               	goto	u4000
  3974  0E63                     u4001:	
  3975  0E63  2E97               	goto	l2752
  3976  0E64                     u4000:	
  3977  0E64                     l2750:	
  3978  0E64  083F               	movf	(exp@x+3)^(0+128),w
  3979  0E65  1283               	bcf	3,5	;RP0=0, select bank0
  3980  0E66  1303               	bcf	3,6	;RP1=0, select bank0
  3981  0E67  00A3               	movwf	___flneg@f1+3
  3982  0E68  1683               	bsf	3,5	;RP0=1, select bank1
  3983  0E69  1303               	bcf	3,6	;RP1=0, select bank1
  3984  0E6A  083E               	movf	(exp@x+2)^(0+128),w
  3985  0E6B  1283               	bcf	3,5	;RP0=0, select bank0
  3986  0E6C  1303               	bcf	3,6	;RP1=0, select bank0
  3987  0E6D  00A2               	movwf	___flneg@f1+2
  3988  0E6E  1683               	bsf	3,5	;RP0=1, select bank1
  3989  0E6F  1303               	bcf	3,6	;RP1=0, select bank1
  3990  0E70  083D               	movf	(exp@x+1)^(0+128),w
  3991  0E71  1283               	bcf	3,5	;RP0=0, select bank0
  3992  0E72  1303               	bcf	3,6	;RP1=0, select bank0
  3993  0E73  00A1               	movwf	___flneg@f1+1
  3994  0E74  1683               	bsf	3,5	;RP0=1, select bank1
  3995  0E75  1303               	bcf	3,6	;RP1=0, select bank1
  3996  0E76  083C               	movf	exp@x^(0+128),w
  3997  0E77  1283               	bcf	3,5	;RP0=0, select bank0
  3998  0E78  1303               	bcf	3,6	;RP1=0, select bank0
  3999  0E79  00A0               	movwf	___flneg@f1
  4000  0E7A  160A  158A  2539  120A  158A  	fcall	___flneg
  4001  0E7F  1283               	bcf	3,5	;RP0=0, select bank0
  4002  0E80  1303               	bcf	3,6	;RP1=0, select bank0
  4003  0E81  0823               	movf	?___flneg+3,w
  4004  0E82  1683               	bsf	3,5	;RP0=1, select bank1
  4005  0E83  1303               	bcf	3,6	;RP1=0, select bank1
  4006  0E84  00BF               	movwf	(exp@x+3)^(0+128)
  4007  0E85  1283               	bcf	3,5	;RP0=0, select bank0
  4008  0E86  1303               	bcf	3,6	;RP1=0, select bank0
  4009  0E87  0822               	movf	?___flneg+2,w
  4010  0E88  1683               	bsf	3,5	;RP0=1, select bank1
  4011  0E89  1303               	bcf	3,6	;RP1=0, select bank1
  4012  0E8A  00BE               	movwf	(exp@x+2)^(0+128)
  4013  0E8B  1283               	bcf	3,5	;RP0=0, select bank0
  4014  0E8C  1303               	bcf	3,6	;RP1=0, select bank0
  4015  0E8D  0821               	movf	?___flneg+1,w
  4016  0E8E  1683               	bsf	3,5	;RP0=1, select bank1
  4017  0E8F  1303               	bcf	3,6	;RP1=0, select bank1
  4018  0E90  00BD               	movwf	(exp@x+1)^(0+128)
  4019  0E91  1283               	bcf	3,5	;RP0=0, select bank0
  4020  0E92  1303               	bcf	3,6	;RP1=0, select bank0
  4021  0E93  0820               	movf	?___flneg,w
  4022  0E94  1683               	bsf	3,5	;RP0=1, select bank1
  4023  0E95  1303               	bcf	3,6	;RP1=0, select bank1
  4024  0E96  00BC               	movwf	exp@x^(0+128)
  4025  0E97                     l2752:	
  4026  0E97  303F               	movlw	63
  4027  0E98  1283               	bcf	3,5	;RP0=0, select bank0
  4028  0E99  1303               	bcf	3,6	;RP1=0, select bank0
  4029  0E9A  00C4               	movwf	___flmul@b+3
  4030  0E9B  30B8               	movlw	184
  4031  0E9C  00C3               	movwf	___flmul@b+2
  4032  0E9D  30AA               	movlw	170
  4033  0E9E  00C2               	movwf	___flmul@b+1
  4034  0E9F  303B               	movlw	59
  4035  0EA0  00C1               	movwf	___flmul@b
  4036  0EA1  1683               	bsf	3,5	;RP0=1, select bank1
  4037  0EA2  1303               	bcf	3,6	;RP1=0, select bank1
  4038  0EA3  083F               	movf	(exp@x+3)^(0+128),w
  4039  0EA4  1283               	bcf	3,5	;RP0=0, select bank0
  4040  0EA5  1303               	bcf	3,6	;RP1=0, select bank0
  4041  0EA6  00C8               	movwf	___flmul@a+3
  4042  0EA7  1683               	bsf	3,5	;RP0=1, select bank1
  4043  0EA8  1303               	bcf	3,6	;RP1=0, select bank1
  4044  0EA9  083E               	movf	(exp@x+2)^(0+128),w
  4045  0EAA  1283               	bcf	3,5	;RP0=0, select bank0
  4046  0EAB  1303               	bcf	3,6	;RP1=0, select bank0
  4047  0EAC  00C7               	movwf	___flmul@a+2
  4048  0EAD  1683               	bsf	3,5	;RP0=1, select bank1
  4049  0EAE  1303               	bcf	3,6	;RP1=0, select bank1
  4050  0EAF  083D               	movf	(exp@x+1)^(0+128),w
  4051  0EB0  1283               	bcf	3,5	;RP0=0, select bank0
  4052  0EB1  1303               	bcf	3,6	;RP1=0, select bank0
  4053  0EB2  00C6               	movwf	___flmul@a+1
  4054  0EB3  1683               	bsf	3,5	;RP0=1, select bank1
  4055  0EB4  1303               	bcf	3,6	;RP1=0, select bank1
  4056  0EB5  083C               	movf	exp@x^(0+128),w
  4057  0EB6  1283               	bcf	3,5	;RP0=0, select bank0
  4058  0EB7  1303               	bcf	3,6	;RP1=0, select bank0
  4059  0EB8  00C5               	movwf	___flmul@a
  4060  0EB9  120A  118A  203C  120A  158A  	fcall	___flmul
  4061  0EBE  1283               	bcf	3,5	;RP0=0, select bank0
  4062  0EBF  1303               	bcf	3,6	;RP1=0, select bank0
  4063  0EC0  0844               	movf	?___flmul+3,w
  4064  0EC1  1683               	bsf	3,5	;RP0=1, select bank1
  4065  0EC2  1303               	bcf	3,6	;RP1=0, select bank1
  4066  0EC3  00BF               	movwf	(exp@x+3)^(0+128)
  4067  0EC4  1283               	bcf	3,5	;RP0=0, select bank0
  4068  0EC5  1303               	bcf	3,6	;RP1=0, select bank0
  4069  0EC6  0843               	movf	?___flmul+2,w
  4070  0EC7  1683               	bsf	3,5	;RP0=1, select bank1
  4071  0EC8  1303               	bcf	3,6	;RP1=0, select bank1
  4072  0EC9  00BE               	movwf	(exp@x+2)^(0+128)
  4073  0ECA  1283               	bcf	3,5	;RP0=0, select bank0
  4074  0ECB  1303               	bcf	3,6	;RP1=0, select bank0
  4075  0ECC  0842               	movf	?___flmul+1,w
  4076  0ECD  1683               	bsf	3,5	;RP0=1, select bank1
  4077  0ECE  1303               	bcf	3,6	;RP1=0, select bank1
  4078  0ECF  00BD               	movwf	(exp@x+1)^(0+128)
  4079  0ED0  1283               	bcf	3,5	;RP0=0, select bank0
  4080  0ED1  1303               	bcf	3,6	;RP1=0, select bank0
  4081  0ED2  0841               	movf	?___flmul,w
  4082  0ED3  1683               	bsf	3,5	;RP0=1, select bank1
  4083  0ED4  1303               	bcf	3,6	;RP1=0, select bank1
  4084  0ED5  00BC               	movwf	exp@x^(0+128)
  4085  0ED6                     l2754:	
  4086  0ED6  083F               	movf	(exp@x+3)^(0+128),w
  4087  0ED7  00A3               	movwf	(floor@x+3)^(0+128)
  4088  0ED8  083E               	movf	(exp@x+2)^(0+128),w
  4089  0ED9  00A2               	movwf	(floor@x+2)^(0+128)
  4090  0EDA  083D               	movf	(exp@x+1)^(0+128),w
  4091  0EDB  00A1               	movwf	(floor@x+1)^(0+128)
  4092  0EDC  083C               	movf	exp@x^(0+128),w
  4093  0EDD  00A0               	movwf	floor@x^(0+128)
  4094  0EDE  160A  118A  24F0  120A  158A  	fcall	_floor
  4095  0EE3  1683               	bsf	3,5	;RP0=1, select bank1
  4096  0EE4  1303               	bcf	3,6	;RP1=0, select bank1
  4097  0EE5  0823               	movf	(?_floor+3)^(0+128),w
  4098  0EE6  00C4               	movwf	(_exp$962+3)^(0+128)
  4099  0EE7  0822               	movf	(?_floor+2)^(0+128),w
  4100  0EE8  00C3               	movwf	(_exp$962+2)^(0+128)
  4101  0EE9  0821               	movf	(?_floor+1)^(0+128),w
  4102  0EEA  00C2               	movwf	(_exp$962+1)^(0+128)
  4103  0EEB  0820               	movf	?_floor^(0+128),w
  4104  0EEC  00C1               	movwf	_exp$962^(0+128)
  4105  0EED                     l2756:	
  4106  0EED  0844               	movf	(_exp$962+3)^(0+128),w
  4107  0EEE  1283               	bcf	3,5	;RP0=0, select bank0
  4108  0EEF  1303               	bcf	3,6	;RP1=0, select bank0
  4109  0EF0  00B1               	movwf	___fltol@f1+3
  4110  0EF1  1683               	bsf	3,5	;RP0=1, select bank1
  4111  0EF2  1303               	bcf	3,6	;RP1=0, select bank1
  4112  0EF3  0843               	movf	(_exp$962+2)^(0+128),w
  4113  0EF4  1283               	bcf	3,5	;RP0=0, select bank0
  4114  0EF5  1303               	bcf	3,6	;RP1=0, select bank0
  4115  0EF6  00B0               	movwf	___fltol@f1+2
  4116  0EF7  1683               	bsf	3,5	;RP0=1, select bank1
  4117  0EF8  1303               	bcf	3,6	;RP1=0, select bank1
  4118  0EF9  0842               	movf	(_exp$962+1)^(0+128),w
  4119  0EFA  1283               	bcf	3,5	;RP0=0, select bank0
  4120  0EFB  1303               	bcf	3,6	;RP1=0, select bank0
  4121  0EFC  00AF               	movwf	___fltol@f1+1
  4122  0EFD  1683               	bsf	3,5	;RP0=1, select bank1
  4123  0EFE  1303               	bcf	3,6	;RP1=0, select bank1
  4124  0EFF  0841               	movf	_exp$962^(0+128),w
  4125  0F00  1283               	bcf	3,5	;RP0=0, select bank0
  4126  0F01  1303               	bcf	3,6	;RP1=0, select bank0
  4127  0F02  00AE               	movwf	___fltol@f1
  4128  0F03  160A  158A  2784  120A  158A  	fcall	___fltol
  4129  0F08  1283               	bcf	3,5	;RP0=0, select bank0
  4130  0F09  1303               	bcf	3,6	;RP1=0, select bank0
  4131  0F0A  082F               	movf	?___fltol+1,w
  4132  0F0B  1683               	bsf	3,5	;RP0=1, select bank1
  4133  0F0C  1303               	bcf	3,6	;RP1=0, select bank1
  4134  0F0D  00C6               	movwf	(exp@exponent+1)^(0+128)
  4135  0F0E  1283               	bcf	3,5	;RP0=0, select bank0
  4136  0F0F  1303               	bcf	3,6	;RP1=0, select bank0
  4137  0F10  082E               	movf	?___fltol,w
  4138  0F11  1683               	bsf	3,5	;RP0=1, select bank1
  4139  0F12  1303               	bcf	3,6	;RP1=0, select bank1
  4140  0F13  00C5               	movwf	exp@exponent^(0+128)
  4141  0F14                     l2758:	
  4142  0F14  0845               	movf	exp@exponent^(0+128),w
  4143  0F15  1283               	bcf	3,5	;RP0=0, select bank0
  4144  0F16  1303               	bcf	3,6	;RP1=0, select bank0
  4145  0F17  00A0               	movwf	___xxtofl@val
  4146  0F18  1683               	bsf	3,5	;RP0=1, select bank1
  4147  0F19  1303               	bcf	3,6	;RP1=0, select bank1
  4148  0F1A  0846               	movf	(exp@exponent+1)^(0+128),w
  4149  0F1B  1283               	bcf	3,5	;RP0=0, select bank0
  4150  0F1C  1303               	bcf	3,6	;RP1=0, select bank0
  4151  0F1D  00A1               	movwf	___xxtofl@val+1
  4152  0F1E  3000               	movlw	0
  4153  0F1F  1BA1               	btfsc	___xxtofl@val+1,7
  4154  0F20  30FF               	movlw	255
  4155  0F21  00A2               	movwf	___xxtofl@val+2
  4156  0F22  00A3               	movwf	___xxtofl@val+3
  4157  0F23  3001               	movlw	1
  4158  0F24  160A  118A  2250  120A  158A  	fcall	___xxtofl
  4159  0F29  1283               	bcf	3,5	;RP0=0, select bank0
  4160  0F2A  1303               	bcf	3,6	;RP1=0, select bank0
  4161  0F2B  0823               	movf	?___xxtofl+3,w
  4162  0F2C  1683               	bsf	3,5	;RP0=1, select bank1
  4163  0F2D  1303               	bcf	3,6	;RP1=0, select bank1
  4164  0F2E  00A3               	movwf	(___flsub@a+3)^(0+128)
  4165  0F2F  1283               	bcf	3,5	;RP0=0, select bank0
  4166  0F30  1303               	bcf	3,6	;RP1=0, select bank0
  4167  0F31  0822               	movf	?___xxtofl+2,w
  4168  0F32  1683               	bsf	3,5	;RP0=1, select bank1
  4169  0F33  1303               	bcf	3,6	;RP1=0, select bank1
  4170  0F34  00A2               	movwf	(___flsub@a+2)^(0+128)
  4171  0F35  1283               	bcf	3,5	;RP0=0, select bank0
  4172  0F36  1303               	bcf	3,6	;RP1=0, select bank0
  4173  0F37  0821               	movf	?___xxtofl+1,w
  4174  0F38  1683               	bsf	3,5	;RP0=1, select bank1
  4175  0F39  1303               	bcf	3,6	;RP1=0, select bank1
  4176  0F3A  00A1               	movwf	(___flsub@a+1)^(0+128)
  4177  0F3B  1283               	bcf	3,5	;RP0=0, select bank0
  4178  0F3C  1303               	bcf	3,6	;RP1=0, select bank0
  4179  0F3D  0820               	movf	?___xxtofl,w
  4180  0F3E  1683               	bsf	3,5	;RP0=1, select bank1
  4181  0F3F  1303               	bcf	3,6	;RP1=0, select bank1
  4182  0F40  00A0               	movwf	___flsub@a^(0+128)
  4183  0F41  083F               	movf	(exp@x+3)^(0+128),w
  4184  0F42  00A7               	movwf	(___flsub@b+3)^(0+128)
  4185  0F43  083E               	movf	(exp@x+2)^(0+128),w
  4186  0F44  00A6               	movwf	(___flsub@b+2)^(0+128)
  4187  0F45  083D               	movf	(exp@x+1)^(0+128),w
  4188  0F46  00A5               	movwf	(___flsub@b+1)^(0+128)
  4189  0F47  083C               	movf	exp@x^(0+128),w
  4190  0F48  00A4               	movwf	___flsub@b^(0+128)
  4191  0F49  160A  158A  26E4  120A  158A  	fcall	___flsub
  4192  0F4E  1683               	bsf	3,5	;RP0=1, select bank1
  4193  0F4F  1303               	bcf	3,6	;RP1=0, select bank1
  4194  0F50  0823               	movf	(?___flsub+3)^(0+128),w
  4195  0F51  00BF               	movwf	(exp@x+3)^(0+128)
  4196  0F52  0822               	movf	(?___flsub+2)^(0+128),w
  4197  0F53  00BE               	movwf	(exp@x+2)^(0+128)
  4198  0F54  0821               	movf	(?___flsub+1)^(0+128),w
  4199  0F55  00BD               	movwf	(exp@x+1)^(0+128)
  4200  0F56  0820               	movf	?___flsub^(0+128),w
  4201  0F57  00BC               	movwf	exp@x^(0+128)
  4202  0F58                     l2760:	
  4203  0F58  083F               	movf	(exp@x+3)^(0+128),w
  4204  0F59  00A3               	movwf	(eval_poly@x+3)^(0+128)
  4205  0F5A  083E               	movf	(exp@x+2)^(0+128),w
  4206  0F5B  00A2               	movwf	(eval_poly@x+2)^(0+128)
  4207  0F5C  083D               	movf	(exp@x+1)^(0+128),w
  4208  0F5D  00A1               	movwf	(eval_poly@x+1)^(0+128)
  4209  0F5E  083C               	movf	exp@x^(0+128),w
  4210  0F5F  00A0               	movwf	eval_poly@x^(0+128)
  4211  0F60  301C               	movlw	low (exp@coeff| (0+32768))
  4212  0F61  00A4               	movwf	eval_poly@d^(0+128)
  4213  0F62  3098               	movlw	high (exp@coeff| (0+32768))
  4214  0F63  00A5               	movwf	(eval_poly@d^(0+128)+1)
  4215  0F64  3009               	movlw	9
  4216  0F65  00A6               	movwf	eval_poly@n^(0+128)
  4217  0F66  3000               	movlw	0
  4218  0F67  00A7               	movwf	(eval_poly@n^(0+128)+1)
  4219  0F68  160A  118A  23D2  120A  158A  	fcall	_eval_poly
  4220  0F6D  1683               	bsf	3,5	;RP0=1, select bank1
  4221  0F6E  1303               	bcf	3,6	;RP1=0, select bank1
  4222  0F6F  0823               	movf	(?_eval_poly+3)^(0+128),w
  4223  0F70  00B7               	movwf	(ldexp@value+3)^(0+128)
  4224  0F71  0822               	movf	(?_eval_poly+2)^(0+128),w
  4225  0F72  00B6               	movwf	(ldexp@value+2)^(0+128)
  4226  0F73  0821               	movf	(?_eval_poly+1)^(0+128),w
  4227  0F74  00B5               	movwf	(ldexp@value+1)^(0+128)
  4228  0F75  0820               	movf	?_eval_poly^(0+128),w
  4229  0F76  00B4               	movwf	ldexp@value^(0+128)
  4230  0F77  0846               	movf	(exp@exponent+1)^(0+128),w
  4231  0F78  00B9               	movwf	(ldexp@newexp+1)^(0+128)
  4232  0F79  0845               	movf	exp@exponent^(0+128),w
  4233  0F7A  00B8               	movwf	ldexp@newexp^(0+128)
  4234  0F7B  120A  158A  2034  120A  158A  	fcall	_ldexp
  4235  0F80  1683               	bsf	3,5	;RP0=1, select bank1
  4236  0F81  1303               	bcf	3,6	;RP1=0, select bank1
  4237  0F82  0837               	movf	(?_ldexp+3)^(0+128),w
  4238  0F83  00BF               	movwf	(exp@x+3)^(0+128)
  4239  0F84  0836               	movf	(?_ldexp+2)^(0+128),w
  4240  0F85  00BE               	movwf	(exp@x+2)^(0+128)
  4241  0F86  0835               	movf	(?_ldexp+1)^(0+128),w
  4242  0F87  00BD               	movwf	(exp@x+1)^(0+128)
  4243  0F88  0834               	movf	?_ldexp^(0+128),w
  4244  0F89  00BC               	movwf	exp@x^(0+128)
  4245  0F8A                     l2762:	
  4246  0F8A  0847               	movf	exp@sign^(0+128),w
  4247  0F8B  1903               	btfsc	3,2
  4248  0F8C  2F8E               	goto	u4011
  4249  0F8D  2F8F               	goto	u4010
  4250  0F8E                     u4011:	
  4251  0F8E  2FFF               	goto	l736
  4252  0F8F                     u4010:	
  4253  0F8F                     l2764:	
  4254  0F8F  083F               	movf	(exp@x+3)^(0+128),w
  4255  0F90  1283               	bcf	3,5	;RP0=0, select bank0
  4256  0F91  1303               	bcf	3,6	;RP1=0, select bank0
  4257  0F92  00B1               	movwf	___fleq@ff1+3
  4258  0F93  1683               	bsf	3,5	;RP0=1, select bank1
  4259  0F94  1303               	bcf	3,6	;RP1=0, select bank1
  4260  0F95  083E               	movf	(exp@x+2)^(0+128),w
  4261  0F96  1283               	bcf	3,5	;RP0=0, select bank0
  4262  0F97  1303               	bcf	3,6	;RP1=0, select bank0
  4263  0F98  00B0               	movwf	___fleq@ff1+2
  4264  0F99  1683               	bsf	3,5	;RP0=1, select bank1
  4265  0F9A  1303               	bcf	3,6	;RP1=0, select bank1
  4266  0F9B  083D               	movf	(exp@x+1)^(0+128),w
  4267  0F9C  1283               	bcf	3,5	;RP0=0, select bank0
  4268  0F9D  1303               	bcf	3,6	;RP1=0, select bank0
  4269  0F9E  00AF               	movwf	___fleq@ff1+1
  4270  0F9F  1683               	bsf	3,5	;RP0=1, select bank1
  4271  0FA0  1303               	bcf	3,6	;RP1=0, select bank1
  4272  0FA1  083C               	movf	exp@x^(0+128),w
  4273  0FA2  1283               	bcf	3,5	;RP0=0, select bank0
  4274  0FA3  1303               	bcf	3,6	;RP1=0, select bank0
  4275  0FA4  00AE               	movwf	___fleq@ff1
  4276  0FA5  307F               	movlw	127
  4277  0FA6  00B5               	movwf	___fleq@ff2+3
  4278  0FA7  307F               	movlw	127
  4279  0FA8  00B4               	movwf	___fleq@ff2+2
  4280  0FA9  30FF               	movlw	255
  4281  0FAA  00B3               	movwf	___fleq@ff2+1
  4282  0FAB  30FF               	movlw	255
  4283  0FAC  00B2               	movwf	___fleq@ff2
  4284  0FAD  160A  158A  2734  120A  158A  	fcall	___fleq
  4285  0FB2  1C03               	btfss	3,0
  4286  0FB3  2FB5               	goto	u4021
  4287  0FB4  2FB6               	goto	u4020
  4288  0FB5                     u4021:	
  4289  0FB5  2FC1               	goto	l2770
  4290  0FB6                     u4020:	
  4291  0FB6                     l2766:	
  4292  0FB6  3000               	movlw	0
  4293  0FB7  1683               	bsf	3,5	;RP0=1, select bank1
  4294  0FB8  1303               	bcf	3,6	;RP1=0, select bank1
  4295  0FB9  00BF               	movwf	(?_exp+3)^(0+128)
  4296  0FBA  3000               	movlw	0
  4297  0FBB  00BE               	movwf	(?_exp+2)^(0+128)
  4298  0FBC  3000               	movlw	0
  4299  0FBD  00BD               	movwf	(?_exp+1)^(0+128)
  4300  0FBE  3000               	movlw	0
  4301  0FBF  00BC               	movwf	?_exp^(0+128)
  4302  0FC0  2FFF               	goto	l732
  4303  0FC1                     l2770:	
  4304  0FC1  1683               	bsf	3,5	;RP0=1, select bank1
  4305  0FC2  1303               	bcf	3,6	;RP1=0, select bank1
  4306  0FC3  083F               	movf	(exp@x+3)^(0+128),w
  4307  0FC4  1283               	bcf	3,5	;RP0=0, select bank0
  4308  0FC5  1303               	bcf	3,6	;RP1=0, select bank0
  4309  0FC6  00A3               	movwf	___fldiv@a+3
  4310  0FC7  1683               	bsf	3,5	;RP0=1, select bank1
  4311  0FC8  1303               	bcf	3,6	;RP1=0, select bank1
  4312  0FC9  083E               	movf	(exp@x+2)^(0+128),w
  4313  0FCA  1283               	bcf	3,5	;RP0=0, select bank0
  4314  0FCB  1303               	bcf	3,6	;RP1=0, select bank0
  4315  0FCC  00A2               	movwf	___fldiv@a+2
  4316  0FCD  1683               	bsf	3,5	;RP0=1, select bank1
  4317  0FCE  1303               	bcf	3,6	;RP1=0, select bank1
  4318  0FCF  083D               	movf	(exp@x+1)^(0+128),w
  4319  0FD0  1283               	bcf	3,5	;RP0=0, select bank0
  4320  0FD1  1303               	bcf	3,6	;RP1=0, select bank0
  4321  0FD2  00A1               	movwf	___fldiv@a+1
  4322  0FD3  1683               	bsf	3,5	;RP0=1, select bank1
  4323  0FD4  1303               	bcf	3,6	;RP1=0, select bank1
  4324  0FD5  083C               	movf	exp@x^(0+128),w
  4325  0FD6  1283               	bcf	3,5	;RP0=0, select bank0
  4326  0FD7  1303               	bcf	3,6	;RP1=0, select bank0
  4327  0FD8  00A0               	movwf	___fldiv@a
  4328  0FD9  303F               	movlw	63
  4329  0FDA  00A7               	movwf	___fldiv@b+3
  4330  0FDB  3080               	movlw	128
  4331  0FDC  00A6               	movwf	___fldiv@b+2
  4332  0FDD  3000               	movlw	0
  4333  0FDE  00A5               	movwf	___fldiv@b+1
  4334  0FDF  3000               	movlw	0
  4335  0FE0  00A4               	movwf	___fldiv@b
  4336  0FE1  160A  118A  2623  120A  158A  	fcall	___fldiv
  4337  0FE6  1283               	bcf	3,5	;RP0=0, select bank0
  4338  0FE7  1303               	bcf	3,6	;RP1=0, select bank0
  4339  0FE8  0823               	movf	?___fldiv+3,w
  4340  0FE9  1683               	bsf	3,5	;RP0=1, select bank1
  4341  0FEA  1303               	bcf	3,6	;RP1=0, select bank1
  4342  0FEB  00BF               	movwf	(?_exp+3)^(0+128)
  4343  0FEC  1283               	bcf	3,5	;RP0=0, select bank0
  4344  0FED  1303               	bcf	3,6	;RP1=0, select bank0
  4345  0FEE  0822               	movf	?___fldiv+2,w
  4346  0FEF  1683               	bsf	3,5	;RP0=1, select bank1
  4347  0FF0  1303               	bcf	3,6	;RP1=0, select bank1
  4348  0FF1  00BE               	movwf	(?_exp+2)^(0+128)
  4349  0FF2  1283               	bcf	3,5	;RP0=0, select bank0
  4350  0FF3  1303               	bcf	3,6	;RP1=0, select bank0
  4351  0FF4  0821               	movf	?___fldiv+1,w
  4352  0FF5  1683               	bsf	3,5	;RP0=1, select bank1
  4353  0FF6  1303               	bcf	3,6	;RP1=0, select bank1
  4354  0FF7  00BD               	movwf	(?_exp+1)^(0+128)
  4355  0FF8  1283               	bcf	3,5	;RP0=0, select bank0
  4356  0FF9  1303               	bcf	3,6	;RP1=0, select bank0
  4357  0FFA  0820               	movf	?___fldiv,w
  4358  0FFB  1683               	bsf	3,5	;RP0=1, select bank1
  4359  0FFC  1303               	bcf	3,6	;RP1=0, select bank1
  4360  0FFD  00BC               	movwf	?_exp^(0+128)
  4361  0FFE  2FFF               	goto	l732
  4362  0FFF                     l736:	
  4363  0FFF                     l732:	
  4364  0FFF  0008               	return
  4365  1000                     __end_of_exp:	
  4366                           
  4367                           	psect	text8
  4368  0834                     __ptext8:	
  4369 ;; *************** function _ldexp *****************
  4370 ;; Defined at:
  4371 ;;		line 277 in file "C:\Program Files (x86)\Microchip\xc8\v2.10\pic\sources\c90\common\frexp.c"
  4372 ;; Parameters:    Size  Location     Type
  4373 ;;  value           4   20[BANK1 ] unsigned char 
  4374 ;;  newexp          2   24[BANK1 ] int 
  4375 ;; Auto vars:     Size  Location     Type
  4376 ;;		None
  4377 ;; Return value:  Size  Location     Type
  4378 ;;                  4   20[BANK1 ] int 
  4379 ;; Registers used:
  4380 ;;		wreg, status,2, status,0, btemp+1, pclath, cstack
  4381 ;; Tracked objects:
  4382 ;;		On entry : 0/0
  4383 ;;		On exit  : 0/0
  4384 ;;		Unchanged: 0/0
  4385 ;; Data sizes:     COMMON   BANK0   BANK1   BANK3   BANK2
  4386 ;;      Params:         0       0       6       0       0
  4387 ;;      Locals:         0       0       0       0       0
  4388 ;;      Temps:          0       0       2       0       0
  4389 ;;      Totals:         0       0       8       0       0
  4390 ;;Total ram usage:        8 bytes
  4391 ;; Hardware stack levels used:    1
  4392 ;; Hardware stack levels required when called:    2
  4393 ;; This function calls:
  4394 ;;		___fleq
  4395 ;;		___flge
  4396 ;; This function is called by:
  4397 ;;		_exp
  4398 ;; This function uses a non-reentrant model
  4399 ;;
  4400                           
  4401                           
  4402                           ;psect for function _ldexp
  4403  0834                     _ldexp:	
  4404  0834                     l2668:	
  4405                           ;incstack = 0
  4406                           ; Regs used in _ldexp: [wreg+status,2+status,0+btemp+1+pclath+cstack]
  4407                           
  4408  0834  1683               	bsf	3,5	;RP0=1, select bank1
  4409  0835  1303               	bcf	3,6	;RP1=0, select bank1
  4410  0836  0837               	movf	(ldexp@value+3)^(0+128),w
  4411  0837  1283               	bcf	3,5	;RP0=0, select bank0
  4412  0838  1303               	bcf	3,6	;RP1=0, select bank0
  4413  0839  00B1               	movwf	___fleq@ff1+3
  4414  083A  1683               	bsf	3,5	;RP0=1, select bank1
  4415  083B  1303               	bcf	3,6	;RP1=0, select bank1
  4416  083C  0836               	movf	(ldexp@value+2)^(0+128),w
  4417  083D  1283               	bcf	3,5	;RP0=0, select bank0
  4418  083E  1303               	bcf	3,6	;RP1=0, select bank0
  4419  083F  00B0               	movwf	___fleq@ff1+2
  4420  0840  1683               	bsf	3,5	;RP0=1, select bank1
  4421  0841  1303               	bcf	3,6	;RP1=0, select bank1
  4422  0842  0835               	movf	(ldexp@value+1)^(0+128),w
  4423  0843  1283               	bcf	3,5	;RP0=0, select bank0
  4424  0844  1303               	bcf	3,6	;RP1=0, select bank0
  4425  0845  00AF               	movwf	___fleq@ff1+1
  4426  0846  1683               	bsf	3,5	;RP0=1, select bank1
  4427  0847  1303               	bcf	3,6	;RP1=0, select bank1
  4428  0848  0834               	movf	ldexp@value^(0+128),w
  4429  0849  1283               	bcf	3,5	;RP0=0, select bank0
  4430  084A  1303               	bcf	3,6	;RP1=0, select bank0
  4431  084B  00AE               	movwf	___fleq@ff1
  4432  084C  3000               	movlw	0
  4433  084D  00B5               	movwf	___fleq@ff2+3
  4434  084E  3000               	movlw	0
  4435  084F  00B4               	movwf	___fleq@ff2+2
  4436  0850  3000               	movlw	0
  4437  0851  00B3               	movwf	___fleq@ff2+1
  4438  0852  3000               	movlw	0
  4439  0853  00B2               	movwf	___fleq@ff2
  4440  0854  160A  158A  2734  120A  158A  	fcall	___fleq
  4441  0859  1C03               	btfss	3,0
  4442  085A  285C               	goto	u3891
  4443  085B  285D               	goto	u3890
  4444  085C                     u3891:	
  4445  085C  2868               	goto	l2674
  4446  085D                     u3890:	
  4447  085D                     l2670:	
  4448  085D  3000               	movlw	0
  4449  085E  1683               	bsf	3,5	;RP0=1, select bank1
  4450  085F  1303               	bcf	3,6	;RP1=0, select bank1
  4451  0860  00B7               	movwf	(?_ldexp+3)^(0+128)
  4452  0861  3000               	movlw	0
  4453  0862  00B6               	movwf	(?_ldexp+2)^(0+128)
  4454  0863  3000               	movlw	0
  4455  0864  00B5               	movwf	(?_ldexp+1)^(0+128)
  4456  0865  3000               	movlw	0
  4457  0866  00B4               	movwf	?_ldexp^(0+128)
  4458  0867  28FB               	goto	l756
  4459  0868                     l2674:	
  4460  0868  1683               	bsf	3,5	;RP0=1, select bank1
  4461  0869  1303               	bcf	3,6	;RP1=0, select bank1
  4462  086A  0837               	movf	(ldexp@value^(0+128)+3),w
  4463  086B  397F               	andlw	127
  4464  086C  00BA               	movwf	??_ldexp^(0+128)
  4465  086D  01BB               	clrf	(??_ldexp^(0+128)+1)
  4466  086E  1003               	clrc
  4467  086F  0DBA               	rlf	??_ldexp^(0+128),f
  4468  0870  0DBB               	rlf	(??_ldexp^(0+128)+1),f
  4469  0871  083A               	movf	??_ldexp^(0+128),w
  4470  0872  07B8               	addwf	ldexp@newexp^(0+128),f
  4471  0873  1803               	skipnc
  4472  0874  0AB9               	incf	(ldexp@newexp+1)^(0+128),f
  4473  0875  083B               	movf	(??_ldexp+1)^(0+128),w
  4474  0876  07B9               	addwf	(ldexp@newexp+1)^(0+128),f
  4475  0877  0D36               	rlf	(ldexp@value^(0+128)+2),w
  4476  0878  0D36               	rlf	(ldexp@value^(0+128)+2),w
  4477  0879  3901               	andlw	1
  4478  087A  00BA               	movwf	??_ldexp^(0+128)
  4479  087B  01BB               	clrf	(??_ldexp^(0+128)+1)
  4480  087C  083A               	movf	??_ldexp^(0+128),w
  4481  087D  07B8               	addwf	ldexp@newexp^(0+128),f
  4482  087E  1803               	skipnc
  4483  087F  0AB9               	incf	(ldexp@newexp+1)^(0+128),f
  4484  0880  083B               	movf	(??_ldexp+1)^(0+128),w
  4485  0881  07B9               	addwf	(ldexp@newexp+1)^(0+128),f
  4486  0882                     l2676:	
  4487  0882  1FB9               	btfss	(ldexp@newexp+1)^(0+128),7
  4488  0883  2885               	goto	u3901
  4489  0884  2886               	goto	u3900
  4490  0885                     u3901:	
  4491  0885  2893               	goto	l2684
  4492  0886                     u3900:	
  4493  0886                     l2678:	
  4494  0886  3022               	movlw	34
  4495  0887  00F9               	movwf	_errno
  4496  0888  3000               	movlw	0
  4497  0889  00FA               	movwf	_errno+1
  4498  088A  3000               	movlw	0
  4499  088B  00B7               	movwf	(?_ldexp+3)^(0+128)
  4500  088C  3000               	movlw	0
  4501  088D  00B6               	movwf	(?_ldexp+2)^(0+128)
  4502  088E  3000               	movlw	0
  4503  088F  00B5               	movwf	(?_ldexp+1)^(0+128)
  4504  0890  3000               	movlw	0
  4505  0891  00B4               	movwf	?_ldexp^(0+128)
  4506  0892  28FB               	goto	l756
  4507  0893                     l2684:	
  4508  0893  0839               	movf	(ldexp@newexp+1)^(0+128),w
  4509  0894  3A80               	xorlw	128
  4510  0895  00FF               	movwf	btemp+1
  4511  0896  3081               	movlw	129
  4512  0897  027F               	subwf	btemp+1,w
  4513  0898  1D03               	skipz
  4514  0899  289C               	goto	u3915
  4515  089A  3000               	movlw	0
  4516  089B  0238               	subwf	ldexp@newexp^(0+128),w
  4517  089C                     u3915:	
  4518  089C  1C03               	skipc
  4519  089D  289F               	goto	u3911
  4520  089E  28A0               	goto	u3910
  4521  089F                     u3911:	
  4522  089F  28E3               	goto	l2700
  4523  08A0                     u3910:	
  4524  08A0                     l2686:	
  4525  08A0  3022               	movlw	34
  4526  08A1  00F9               	movwf	_errno
  4527  08A2  3000               	movlw	0
  4528  08A3  00FA               	movwf	_errno+1
  4529  08A4                     l2688:	
  4530  08A4  1683               	bsf	3,5	;RP0=1, select bank1
  4531  08A5  1303               	bcf	3,6	;RP1=0, select bank1
  4532  08A6  0837               	movf	(ldexp@value+3)^(0+128),w
  4533  08A7  1283               	bcf	3,5	;RP0=0, select bank0
  4534  08A8  1303               	bcf	3,6	;RP1=0, select bank0
  4535  08A9  00A3               	movwf	___flge@ff1+3
  4536  08AA  1683               	bsf	3,5	;RP0=1, select bank1
  4537  08AB  1303               	bcf	3,6	;RP1=0, select bank1
  4538  08AC  0836               	movf	(ldexp@value+2)^(0+128),w
  4539  08AD  1283               	bcf	3,5	;RP0=0, select bank0
  4540  08AE  1303               	bcf	3,6	;RP1=0, select bank0
  4541  08AF  00A2               	movwf	___flge@ff1+2
  4542  08B0  1683               	bsf	3,5	;RP0=1, select bank1
  4543  08B1  1303               	bcf	3,6	;RP1=0, select bank1
  4544  08B2  0835               	movf	(ldexp@value+1)^(0+128),w
  4545  08B3  1283               	bcf	3,5	;RP0=0, select bank0
  4546  08B4  1303               	bcf	3,6	;RP1=0, select bank0
  4547  08B5  00A1               	movwf	___flge@ff1+1
  4548  08B6  1683               	bsf	3,5	;RP0=1, select bank1
  4549  08B7  1303               	bcf	3,6	;RP1=0, select bank1
  4550  08B8  0834               	movf	ldexp@value^(0+128),w
  4551  08B9  1283               	bcf	3,5	;RP0=0, select bank0
  4552  08BA  1303               	bcf	3,6	;RP1=0, select bank0
  4553  08BB  00A0               	movwf	___flge@ff1
  4554  08BC  3000               	movlw	0
  4555  08BD  00A7               	movwf	___flge@ff2+3
  4556  08BE  3000               	movlw	0
  4557  08BF  00A6               	movwf	___flge@ff2+2
  4558  08C0  3000               	movlw	0
  4559  08C1  00A5               	movwf	___flge@ff2+1
  4560  08C2  3000               	movlw	0
  4561  08C3  00A4               	movwf	___flge@ff2
  4562  08C4  160A  118A  2105  120A  158A  	fcall	___flge
  4563  08C9  1803               	btfsc	3,0
  4564  08CA  28CC               	goto	u3921
  4565  08CB  28CD               	goto	u3920
  4566  08CC                     u3921:	
  4567  08CC  28D8               	goto	l2696
  4568  08CD                     u3920:	
  4569  08CD                     l2690:	
  4570  08CD  30FF               	movlw	255
  4571  08CE  1683               	bsf	3,5	;RP0=1, select bank1
  4572  08CF  1303               	bcf	3,6	;RP1=0, select bank1
  4573  08D0  00B7               	movwf	(?_ldexp+3)^(0+128)
  4574  08D1  307F               	movlw	127
  4575  08D2  00B6               	movwf	(?_ldexp+2)^(0+128)
  4576  08D3  30FF               	movlw	255
  4577  08D4  00B5               	movwf	(?_ldexp+1)^(0+128)
  4578  08D5  30FF               	movlw	255
  4579  08D6  00B4               	movwf	?_ldexp^(0+128)
  4580  08D7  28FB               	goto	l756
  4581  08D8                     l2696:	
  4582  08D8  307F               	movlw	127
  4583  08D9  1683               	bsf	3,5	;RP0=1, select bank1
  4584  08DA  1303               	bcf	3,6	;RP1=0, select bank1
  4585  08DB  00B7               	movwf	(?_ldexp+3)^(0+128)
  4586  08DC  307F               	movlw	127
  4587  08DD  00B6               	movwf	(?_ldexp+2)^(0+128)
  4588  08DE  30FF               	movlw	255
  4589  08DF  00B5               	movwf	(?_ldexp+1)^(0+128)
  4590  08E0  30FF               	movlw	255
  4591  08E1  00B4               	movwf	?_ldexp^(0+128)
  4592  08E2  28FB               	goto	l756
  4593  08E3                     l2700:	
  4594  08E3  1683               	bsf	3,5	;RP0=1, select bank1
  4595  08E4  1303               	bcf	3,6	;RP1=0, select bank1
  4596  08E5  0839               	movf	(ldexp@newexp+1)^(0+128),w
  4597  08E6  00BB               	movwf	(??_ldexp^(0+128)+1)
  4598  08E7  0838               	movf	ldexp@newexp^(0+128),w
  4599  08E8  00BA               	movwf	??_ldexp^(0+128)
  4600  08E9  0D3B               	rlf	(??_ldexp^(0+128)+1),w
  4601  08EA  0CBB               	rrf	(??_ldexp^(0+128)+1),f
  4602  08EB  0CBA               	rrf	??_ldexp^(0+128),f
  4603  08EC  0837               	movf	(ldexp@value^(0+128)+3),w
  4604  08ED  063A               	xorwf	??_ldexp^(0+128),w
  4605  08EE  3980               	andlw	-128
  4606  08EF  063A               	xorwf	??_ldexp^(0+128),w
  4607  08F0  00B7               	movwf	(ldexp@value^(0+128)+3)
  4608  08F1  0838               	movf	ldexp@newexp^(0+128),w
  4609  08F2  3901               	andlw	1
  4610  08F3  00BA               	movwf	??_ldexp^(0+128)
  4611  08F4  0CBA               	rrf	??_ldexp^(0+128),f
  4612  08F5  0CBA               	rrf	??_ldexp^(0+128),f
  4613  08F6  0836               	movf	(ldexp@value^(0+128)+2),w
  4614  08F7  063A               	xorwf	??_ldexp^(0+128),w
  4615  08F8  397F               	andlw	-129
  4616  08F9  063A               	xorwf	??_ldexp^(0+128),w
  4617  08FA  00B6               	movwf	(ldexp@value^(0+128)+2)
  4618  08FB                     l2702:	
  4619  08FB                     l756:	
  4620  08FB  0008               	return
  4621  08FC                     __end_of_ldexp:	
  4622                           
  4623                           	psect	text9
  4624  14F0                     __ptext9:	
  4625 ;; *************** function _floor *****************
  4626 ;; Defined at:
  4627 ;;		line 13 in file "C:\Program Files (x86)\Microchip\xc8\v2.10\pic\sources\c90\common\floor.c"
  4628 ;; Parameters:    Size  Location     Type
  4629 ;;  x               4    0[BANK1 ] int 
  4630 ;; Auto vars:     Size  Location     Type
  4631 ;;  i               4    4[BANK1 ] int 
  4632 ;;  expon           2    8[BANK1 ] int 
  4633 ;; Return value:  Size  Location     Type
  4634 ;;                  4    0[BANK1 ] int 
  4635 ;; Registers used:
  4636 ;;		wreg, fsr0l, fsr0h, status,2, status,0, btemp+1, pclath, cstack
  4637 ;; Tracked objects:
  4638 ;;		On entry : 0/0
  4639 ;;		On exit  : 0/0
  4640 ;;		Unchanged: 0/0
  4641 ;; Data sizes:     COMMON   BANK0   BANK1   BANK3   BANK2
  4642 ;;      Params:         0       0       4       0       0
  4643 ;;      Locals:         0       0       6       0       0
  4644 ;;      Temps:          0       1       0       0       0
  4645 ;;      Totals:         0       1      10       0       0
  4646 ;;Total ram usage:       11 bytes
  4647 ;; Hardware stack levels used:    1
  4648 ;; Hardware stack levels required when called:    3
  4649 ;; This function calls:
  4650 ;;		___fladd
  4651 ;;		___flge
  4652 ;;		___fltol
  4653 ;;		___xxtofl
  4654 ;;		_frexp
  4655 ;; This function is called by:
  4656 ;;		_exp
  4657 ;; This function uses a non-reentrant model
  4658 ;;
  4659                           
  4660                           
  4661                           ;psect for function _floor
  4662  14F0                     _floor:	
  4663  14F0                     l2630:	
  4664                           ;incstack = 0
  4665                           ; Regs used in _floor: [wreg-fsr0h+status,2+status,0+btemp+1+pclath+cstack]
  4666                           
  4667  14F0  1683               	bsf	3,5	;RP0=1, select bank1
  4668  14F1  1303               	bcf	3,6	;RP1=0, select bank1
  4669  14F2  0823               	movf	(floor@x+3)^(0+128),w
  4670  14F3  1283               	bcf	3,5	;RP0=0, select bank0
  4671  14F4  1303               	bcf	3,6	;RP1=0, select bank0
  4672  14F5  00BD               	movwf	frexp@value+3
  4673  14F6  1683               	bsf	3,5	;RP0=1, select bank1
  4674  14F7  1303               	bcf	3,6	;RP1=0, select bank1
  4675  14F8  0822               	movf	(floor@x+2)^(0+128),w
  4676  14F9  1283               	bcf	3,5	;RP0=0, select bank0
  4677  14FA  1303               	bcf	3,6	;RP1=0, select bank0
  4678  14FB  00BC               	movwf	frexp@value+2
  4679  14FC  1683               	bsf	3,5	;RP0=1, select bank1
  4680  14FD  1303               	bcf	3,6	;RP1=0, select bank1
  4681  14FE  0821               	movf	(floor@x+1)^(0+128),w
  4682  14FF  1283               	bcf	3,5	;RP0=0, select bank0
  4683  1500  1303               	bcf	3,6	;RP1=0, select bank0
  4684  1501  00BB               	movwf	frexp@value+1
  4685  1502  1683               	bsf	3,5	;RP0=1, select bank1
  4686  1503  1303               	bcf	3,6	;RP1=0, select bank1
  4687  1504  0820               	movf	floor@x^(0+128),w
  4688  1505  1283               	bcf	3,5	;RP0=0, select bank0
  4689  1506  1303               	bcf	3,6	;RP1=0, select bank0
  4690  1507  00BA               	movwf	frexp@value
  4691  1508  30A8               	movlw	(low (floor@expon| 0))& (0+255)
  4692  1509  00EF               	movwf	??_floor
  4693  150A  086F               	movf	??_floor,w
  4694  150B  00BE               	movwf	frexp@eptr
  4695  150C  120A  118A  278F  160A  118A  	fcall	_frexp
  4696  1511                     l2632:	
  4697  1511  1683               	bsf	3,5	;RP0=1, select bank1
  4698  1512  1303               	bcf	3,6	;RP1=0, select bank1
  4699  1513  1FA9               	btfss	(floor@expon+1)^(0+128),7
  4700  1514  2D16               	goto	u3801
  4701  1515  2D17               	goto	u3800
  4702  1516                     u3801:	
  4703  1516  2D54               	goto	l2644
  4704  1517                     u3800:	
  4705  1517                     l2634:	
  4706  1517  0823               	movf	(floor@x+3)^(0+128),w
  4707  1518  1283               	bcf	3,5	;RP0=0, select bank0
  4708  1519  1303               	bcf	3,6	;RP1=0, select bank0
  4709  151A  00A3               	movwf	___flge@ff1+3
  4710  151B  1683               	bsf	3,5	;RP0=1, select bank1
  4711  151C  1303               	bcf	3,6	;RP1=0, select bank1
  4712  151D  0822               	movf	(floor@x+2)^(0+128),w
  4713  151E  1283               	bcf	3,5	;RP0=0, select bank0
  4714  151F  1303               	bcf	3,6	;RP1=0, select bank0
  4715  1520  00A2               	movwf	___flge@ff1+2
  4716  1521  1683               	bsf	3,5	;RP0=1, select bank1
  4717  1522  1303               	bcf	3,6	;RP1=0, select bank1
  4718  1523  0821               	movf	(floor@x+1)^(0+128),w
  4719  1524  1283               	bcf	3,5	;RP0=0, select bank0
  4720  1525  1303               	bcf	3,6	;RP1=0, select bank0
  4721  1526  00A1               	movwf	___flge@ff1+1
  4722  1527  1683               	bsf	3,5	;RP0=1, select bank1
  4723  1528  1303               	bcf	3,6	;RP1=0, select bank1
  4724  1529  0820               	movf	floor@x^(0+128),w
  4725  152A  1283               	bcf	3,5	;RP0=0, select bank0
  4726  152B  1303               	bcf	3,6	;RP1=0, select bank0
  4727  152C  00A0               	movwf	___flge@ff1
  4728  152D  3000               	movlw	0
  4729  152E  00A7               	movwf	___flge@ff2+3
  4730  152F  3000               	movlw	0
  4731  1530  00A6               	movwf	___flge@ff2+2
  4732  1531  3000               	movlw	0
  4733  1532  00A5               	movwf	___flge@ff2+1
  4734  1533  3000               	movlw	0
  4735  1534  00A4               	movwf	___flge@ff2
  4736  1535  160A  118A  2105  160A  118A  	fcall	___flge
  4737  153A  1803               	btfsc	3,0
  4738  153B  2D3D               	goto	u3811
  4739  153C  2D3E               	goto	u3810
  4740  153D                     u3811:	
  4741  153D  2D49               	goto	l2640
  4742  153E                     u3810:	
  4743  153E                     l2636:	
  4744  153E  30BF               	movlw	191
  4745  153F  1683               	bsf	3,5	;RP0=1, select bank1
  4746  1540  1303               	bcf	3,6	;RP1=0, select bank1
  4747  1541  00A3               	movwf	(?_floor+3)^(0+128)
  4748  1542  3080               	movlw	128
  4749  1543  00A2               	movwf	(?_floor+2)^(0+128)
  4750  1544  3000               	movlw	0
  4751  1545  00A1               	movwf	(?_floor+1)^(0+128)
  4752  1546  3000               	movlw	0
  4753  1547  00A0               	movwf	?_floor^(0+128)
  4754  1548  2E22               	goto	l744
  4755  1549                     l2640:	
  4756  1549  3000               	movlw	0
  4757  154A  1683               	bsf	3,5	;RP0=1, select bank1
  4758  154B  1303               	bcf	3,6	;RP1=0, select bank1
  4759  154C  00A3               	movwf	(?_floor+3)^(0+128)
  4760  154D  3000               	movlw	0
  4761  154E  00A2               	movwf	(?_floor+2)^(0+128)
  4762  154F  3000               	movlw	0
  4763  1550  00A1               	movwf	(?_floor+1)^(0+128)
  4764  1551  3000               	movlw	0
  4765  1552  00A0               	movwf	?_floor^(0+128)
  4766  1553  2E22               	goto	l744
  4767  1554                     l2644:	
  4768  1554  3000               	movlw	0
  4769  1555  0229               	subwf	(floor@expon+1)^(0+128),w
  4770  1556  301D               	movlw	29
  4771  1557  1903               	skipnz
  4772  1558  0228               	subwf	floor@expon^(0+128),w
  4773  1559  1C03               	skipc
  4774  155A  2D5C               	goto	u3821
  4775  155B  2D5D               	goto	u3820
  4776  155C                     u3821:	
  4777  155C  2D5E               	goto	l2648
  4778  155D                     u3820:	
  4779  155D                     l2646:	
  4780  155D  2E22               	goto	l744
  4781  155E                     l2648:	
  4782  155E  0823               	movf	(floor@x+3)^(0+128),w
  4783  155F  1283               	bcf	3,5	;RP0=0, select bank0
  4784  1560  1303               	bcf	3,6	;RP1=0, select bank0
  4785  1561  00B1               	movwf	___fltol@f1+3
  4786  1562  1683               	bsf	3,5	;RP0=1, select bank1
  4787  1563  1303               	bcf	3,6	;RP1=0, select bank1
  4788  1564  0822               	movf	(floor@x+2)^(0+128),w
  4789  1565  1283               	bcf	3,5	;RP0=0, select bank0
  4790  1566  1303               	bcf	3,6	;RP1=0, select bank0
  4791  1567  00B0               	movwf	___fltol@f1+2
  4792  1568  1683               	bsf	3,5	;RP0=1, select bank1
  4793  1569  1303               	bcf	3,6	;RP1=0, select bank1
  4794  156A  0821               	movf	(floor@x+1)^(0+128),w
  4795  156B  1283               	bcf	3,5	;RP0=0, select bank0
  4796  156C  1303               	bcf	3,6	;RP1=0, select bank0
  4797  156D  00AF               	movwf	___fltol@f1+1
  4798  156E  1683               	bsf	3,5	;RP0=1, select bank1
  4799  156F  1303               	bcf	3,6	;RP1=0, select bank1
  4800  1570  0820               	movf	floor@x^(0+128),w
  4801  1571  1283               	bcf	3,5	;RP0=0, select bank0
  4802  1572  1303               	bcf	3,6	;RP1=0, select bank0
  4803  1573  00AE               	movwf	___fltol@f1
  4804  1574  160A  158A  2784  160A  118A  	fcall	___fltol
  4805  1579  1283               	bcf	3,5	;RP0=0, select bank0
  4806  157A  1303               	bcf	3,6	;RP1=0, select bank0
  4807  157B  0831               	movf	?___fltol+3,w
  4808  157C  00A3               	movwf	___xxtofl@val+3
  4809  157D  0830               	movf	?___fltol+2,w
  4810  157E  00A2               	movwf	___xxtofl@val+2
  4811  157F  082F               	movf	?___fltol+1,w
  4812  1580  00A1               	movwf	___xxtofl@val+1
  4813  1581  082E               	movf	?___fltol,w
  4814  1582  00A0               	movwf	___xxtofl@val
  4815  1583  3001               	movlw	1
  4816  1584  160A  118A  2250  160A  118A  	fcall	___xxtofl
  4817  1589  1283               	bcf	3,5	;RP0=0, select bank0
  4818  158A  1303               	bcf	3,6	;RP1=0, select bank0
  4819  158B  0823               	movf	?___xxtofl+3,w
  4820  158C  1683               	bsf	3,5	;RP0=1, select bank1
  4821  158D  1303               	bcf	3,6	;RP1=0, select bank1
  4822  158E  00A7               	movwf	(floor@i+3)^(0+128)
  4823  158F  1283               	bcf	3,5	;RP0=0, select bank0
  4824  1590  1303               	bcf	3,6	;RP1=0, select bank0
  4825  1591  0822               	movf	?___xxtofl+2,w
  4826  1592  1683               	bsf	3,5	;RP0=1, select bank1
  4827  1593  1303               	bcf	3,6	;RP1=0, select bank1
  4828  1594  00A6               	movwf	(floor@i+2)^(0+128)
  4829  1595  1283               	bcf	3,5	;RP0=0, select bank0
  4830  1596  1303               	bcf	3,6	;RP1=0, select bank0
  4831  1597  0821               	movf	?___xxtofl+1,w
  4832  1598  1683               	bsf	3,5	;RP0=1, select bank1
  4833  1599  1303               	bcf	3,6	;RP1=0, select bank1
  4834  159A  00A5               	movwf	(floor@i+1)^(0+128)
  4835  159B  1283               	bcf	3,5	;RP0=0, select bank0
  4836  159C  1303               	bcf	3,6	;RP1=0, select bank0
  4837  159D  0820               	movf	?___xxtofl,w
  4838  159E  1683               	bsf	3,5	;RP0=1, select bank1
  4839  159F  1303               	bcf	3,6	;RP1=0, select bank1
  4840  15A0  00A4               	movwf	floor@i^(0+128)
  4841  15A1  0823               	movf	(floor@x+3)^(0+128),w
  4842  15A2  1283               	bcf	3,5	;RP0=0, select bank0
  4843  15A3  1303               	bcf	3,6	;RP1=0, select bank0
  4844  15A4  00A3               	movwf	___flge@ff1+3
  4845  15A5  1683               	bsf	3,5	;RP0=1, select bank1
  4846  15A6  1303               	bcf	3,6	;RP1=0, select bank1
  4847  15A7  0822               	movf	(floor@x+2)^(0+128),w
  4848  15A8  1283               	bcf	3,5	;RP0=0, select bank0
  4849  15A9  1303               	bcf	3,6	;RP1=0, select bank0
  4850  15AA  00A2               	movwf	___flge@ff1+2
  4851  15AB  1683               	bsf	3,5	;RP0=1, select bank1
  4852  15AC  1303               	bcf	3,6	;RP1=0, select bank1
  4853  15AD  0821               	movf	(floor@x+1)^(0+128),w
  4854  15AE  1283               	bcf	3,5	;RP0=0, select bank0
  4855  15AF  1303               	bcf	3,6	;RP1=0, select bank0
  4856  15B0  00A1               	movwf	___flge@ff1+1
  4857  15B1  1683               	bsf	3,5	;RP0=1, select bank1
  4858  15B2  1303               	bcf	3,6	;RP1=0, select bank1
  4859  15B3  0820               	movf	floor@x^(0+128),w
  4860  15B4  1283               	bcf	3,5	;RP0=0, select bank0
  4861  15B5  1303               	bcf	3,6	;RP1=0, select bank0
  4862  15B6  00A0               	movwf	___flge@ff1
  4863  15B7  1683               	bsf	3,5	;RP0=1, select bank1
  4864  15B8  1303               	bcf	3,6	;RP1=0, select bank1
  4865  15B9  0827               	movf	(floor@i+3)^(0+128),w
  4866  15BA  1283               	bcf	3,5	;RP0=0, select bank0
  4867  15BB  1303               	bcf	3,6	;RP1=0, select bank0
  4868  15BC  00A7               	movwf	___flge@ff2+3
  4869  15BD  1683               	bsf	3,5	;RP0=1, select bank1
  4870  15BE  1303               	bcf	3,6	;RP1=0, select bank1
  4871  15BF  0826               	movf	(floor@i+2)^(0+128),w
  4872  15C0  1283               	bcf	3,5	;RP0=0, select bank0
  4873  15C1  1303               	bcf	3,6	;RP1=0, select bank0
  4874  15C2  00A6               	movwf	___flge@ff2+2
  4875  15C3  1683               	bsf	3,5	;RP0=1, select bank1
  4876  15C4  1303               	bcf	3,6	;RP1=0, select bank1
  4877  15C5  0825               	movf	(floor@i+1)^(0+128),w
  4878  15C6  1283               	bcf	3,5	;RP0=0, select bank0
  4879  15C7  1303               	bcf	3,6	;RP1=0, select bank0
  4880  15C8  00A5               	movwf	___flge@ff2+1
  4881  15C9  1683               	bsf	3,5	;RP0=1, select bank1
  4882  15CA  1303               	bcf	3,6	;RP1=0, select bank1
  4883  15CB  0824               	movf	floor@i^(0+128),w
  4884  15CC  1283               	bcf	3,5	;RP0=0, select bank0
  4885  15CD  1303               	bcf	3,6	;RP1=0, select bank0
  4886  15CE  00A4               	movwf	___flge@ff2
  4887  15CF  160A  118A  2105  160A  118A  	fcall	___flge
  4888  15D4  1803               	btfsc	3,0
  4889  15D5  2DD7               	goto	u3831
  4890  15D6  2DD8               	goto	u3830
  4891  15D7                     u3831:	
  4892  15D7  2E18               	goto	l2654
  4893  15D8                     u3830:	
  4894  15D8                     l2650:	
  4895  15D8  30BF               	movlw	191
  4896  15D9  1283               	bcf	3,5	;RP0=0, select bank0
  4897  15DA  1303               	bcf	3,6	;RP1=0, select bank0
  4898  15DB  00DE               	movwf	___fladd@b+3
  4899  15DC  3080               	movlw	128
  4900  15DD  00DD               	movwf	___fladd@b+2
  4901  15DE  3000               	movlw	0
  4902  15DF  00DC               	movwf	___fladd@b+1
  4903  15E0  3000               	movlw	0
  4904  15E1  00DB               	movwf	___fladd@b
  4905  15E2  1683               	bsf	3,5	;RP0=1, select bank1
  4906  15E3  1303               	bcf	3,6	;RP1=0, select bank1
  4907  15E4  0827               	movf	(floor@i+3)^(0+128),w
  4908  15E5  1283               	bcf	3,5	;RP0=0, select bank0
  4909  15E6  1303               	bcf	3,6	;RP1=0, select bank0
  4910  15E7  00E2               	movwf	___fladd@a+3
  4911  15E8  1683               	bsf	3,5	;RP0=1, select bank1
  4912  15E9  1303               	bcf	3,6	;RP1=0, select bank1
  4913  15EA  0826               	movf	(floor@i+2)^(0+128),w
  4914  15EB  1283               	bcf	3,5	;RP0=0, select bank0
  4915  15EC  1303               	bcf	3,6	;RP1=0, select bank0
  4916  15ED  00E1               	movwf	___fladd@a+2
  4917  15EE  1683               	bsf	3,5	;RP0=1, select bank1
  4918  15EF  1303               	bcf	3,6	;RP1=0, select bank1
  4919  15F0  0825               	movf	(floor@i+1)^(0+128),w
  4920  15F1  1283               	bcf	3,5	;RP0=0, select bank0
  4921  15F2  1303               	bcf	3,6	;RP1=0, select bank0
  4922  15F3  00E0               	movwf	___fladd@a+1
  4923  15F4  1683               	bsf	3,5	;RP0=1, select bank1
  4924  15F5  1303               	bcf	3,6	;RP1=0, select bank1
  4925  15F6  0824               	movf	floor@i^(0+128),w
  4926  15F7  1283               	bcf	3,5	;RP0=0, select bank0
  4927  15F8  1303               	bcf	3,6	;RP1=0, select bank0
  4928  15F9  00DF               	movwf	___fladd@a
  4929  15FA  120A  118A  239D  160A  118A  	fcall	___fladd
  4930  15FF  1283               	bcf	3,5	;RP0=0, select bank0
  4931  1600  1303               	bcf	3,6	;RP1=0, select bank0
  4932  1601  085E               	movf	?___fladd+3,w
  4933  1602  1683               	bsf	3,5	;RP0=1, select bank1
  4934  1603  1303               	bcf	3,6	;RP1=0, select bank1
  4935  1604  00A3               	movwf	(?_floor+3)^(0+128)
  4936  1605  1283               	bcf	3,5	;RP0=0, select bank0
  4937  1606  1303               	bcf	3,6	;RP1=0, select bank0
  4938  1607  085D               	movf	?___fladd+2,w
  4939  1608  1683               	bsf	3,5	;RP0=1, select bank1
  4940  1609  1303               	bcf	3,6	;RP1=0, select bank1
  4941  160A  00A2               	movwf	(?_floor+2)^(0+128)
  4942  160B  1283               	bcf	3,5	;RP0=0, select bank0
  4943  160C  1303               	bcf	3,6	;RP1=0, select bank0
  4944  160D  085C               	movf	?___fladd+1,w
  4945  160E  1683               	bsf	3,5	;RP0=1, select bank1
  4946  160F  1303               	bcf	3,6	;RP1=0, select bank1
  4947  1610  00A1               	movwf	(?_floor+1)^(0+128)
  4948  1611  1283               	bcf	3,5	;RP0=0, select bank0
  4949  1612  1303               	bcf	3,6	;RP1=0, select bank0
  4950  1613  085B               	movf	?___fladd,w
  4951  1614  1683               	bsf	3,5	;RP0=1, select bank1
  4952  1615  1303               	bcf	3,6	;RP1=0, select bank1
  4953  1616  00A0               	movwf	?_floor^(0+128)
  4954  1617  2E22               	goto	l744
  4955  1618                     l2654:	
  4956  1618  1683               	bsf	3,5	;RP0=1, select bank1
  4957  1619  1303               	bcf	3,6	;RP1=0, select bank1
  4958  161A  0827               	movf	(floor@i+3)^(0+128),w
  4959  161B  00A3               	movwf	(?_floor+3)^(0+128)
  4960  161C  0826               	movf	(floor@i+2)^(0+128),w
  4961  161D  00A2               	movwf	(?_floor+2)^(0+128)
  4962  161E  0825               	movf	(floor@i+1)^(0+128),w
  4963  161F  00A1               	movwf	(?_floor+1)^(0+128)
  4964  1620  0824               	movf	floor@i^(0+128),w
  4965  1621  00A0               	movwf	?_floor^(0+128)
  4966  1622                     l744:	
  4967  1622  0008               	return
  4968  1623                     __end_of_floor:	
  4969                           
  4970                           	psect	text10
  4971  078F                     __ptext10:	
  4972 ;; *************** function _frexp *****************
  4973 ;; Defined at:
  4974 ;;		line 254 in file "C:\Program Files (x86)\Microchip\xc8\v2.10\pic\sources\c90\common\frexp.c"
  4975 ;; Parameters:    Size  Location     Type
  4976 ;;  value           4   26[BANK0 ] int 
  4977 ;;  eptr            1   30[BANK0 ] PTR int 
  4978 ;;		 -> log@exponent(2), floor@expon(2), 
  4979 ;; Auto vars:     Size  Location     Type
  4980 ;;		None
  4981 ;; Return value:  Size  Location     Type
  4982 ;;                  4   26[BANK0 ] PTR int 
  4983 ;; Registers used:
  4984 ;;		wreg, fsr0l, fsr0h, status,2, status,0, btemp+1, pclath, cstack
  4985 ;; Tracked objects:
  4986 ;;		On entry : 0/0
  4987 ;;		On exit  : 0/0
  4988 ;;		Unchanged: 0/0
  4989 ;; Data sizes:     COMMON   BANK0   BANK1   BANK3   BANK2
  4990 ;;      Params:         0       5       0       0       0
  4991 ;;      Locals:         0       0       0       0       0
  4992 ;;      Temps:          0       2       0       0       0
  4993 ;;      Totals:         0       7       0       0       0
  4994 ;;Total ram usage:        7 bytes
  4995 ;; Hardware stack levels used:    1
  4996 ;; Hardware stack levels required when called:    2
  4997 ;; This function calls:
  4998 ;;		___fleq
  4999 ;; This function is called by:
  5000 ;;		_floor
  5001 ;;		_log
  5002 ;; This function uses a non-reentrant model
  5003 ;;
  5004                           
  5005                           
  5006                           ;psect for function _frexp
  5007  078F                     _frexp:	
  5008  078F                     l2454:	
  5009                           ;incstack = 0
  5010                           ; Regs used in _frexp: [wreg-fsr0h+status,2+status,0+btemp+1+pclath+cstack]
  5011                           
  5012  078F  1283               	bcf	3,5	;RP0=0, select bank0
  5013  0790  1303               	bcf	3,6	;RP1=0, select bank0
  5014  0791  083D               	movf	frexp@value+3,w
  5015  0792  00B1               	movwf	___fleq@ff1+3
  5016  0793  083C               	movf	frexp@value+2,w
  5017  0794  00B0               	movwf	___fleq@ff1+2
  5018  0795  083B               	movf	frexp@value+1,w
  5019  0796  00AF               	movwf	___fleq@ff1+1
  5020  0797  083A               	movf	frexp@value,w
  5021  0798  00AE               	movwf	___fleq@ff1
  5022  0799  3000               	movlw	0
  5023  079A  00B5               	movwf	___fleq@ff2+3
  5024  079B  3000               	movlw	0
  5025  079C  00B4               	movwf	___fleq@ff2+2
  5026  079D  3000               	movlw	0
  5027  079E  00B3               	movwf	___fleq@ff2+1
  5028  079F  3000               	movlw	0
  5029  07A0  00B2               	movwf	___fleq@ff2
  5030  07A1  160A  158A  2734  120A  118A  	fcall	___fleq
  5031  07A6  1C03               	btfss	3,0
  5032  07A7  2FA9               	goto	u3491
  5033  07A8  2FAA               	goto	u3490
  5034  07A9                     u3491:	
  5035  07A9  2FBB               	goto	l2462
  5036  07AA                     u3490:	
  5037  07AA                     l2456:	
  5038  07AA  1283               	bcf	3,5	;RP0=0, select bank0
  5039  07AB  1303               	bcf	3,6	;RP1=0, select bank0
  5040  07AC  083E               	movf	frexp@eptr,w
  5041  07AD  0084               	movwf	4
  5042  07AE  1383               	bcf	3,7	;select IRP bank0
  5043  07AF  0180               	clrf	0
  5044  07B0  0A84               	incf	4,f
  5045  07B1  0180               	clrf	0
  5046  07B2                     l2458:	
  5047  07B2  3000               	movlw	0
  5048  07B3  00BD               	movwf	?_frexp+3
  5049  07B4  3000               	movlw	0
  5050  07B5  00BC               	movwf	?_frexp+2
  5051  07B6  3000               	movlw	0
  5052  07B7  00BB               	movwf	?_frexp+1
  5053  07B8  3000               	movlw	0
  5054  07B9  00BA               	movwf	?_frexp
  5055  07BA  2FEA               	goto	l752
  5056  07BB                     l2462:	
  5057  07BB  1283               	bcf	3,5	;RP0=0, select bank0
  5058  07BC  1303               	bcf	3,6	;RP1=0, select bank0
  5059  07BD  083D               	movf	frexp@value+3,w
  5060  07BE  397F               	andlw	127
  5061  07BF  00BF               	movwf	??_frexp
  5062  07C0  01C0               	clrf	??_frexp+1
  5063  07C1  1003               	clrc
  5064  07C2  0DBF               	rlf	??_frexp,f
  5065  07C3  0DC0               	rlf	??_frexp+1,f
  5066  07C4  083E               	movf	frexp@eptr,w
  5067  07C5  0084               	movwf	4
  5068  07C6  083F               	movf	??_frexp,w
  5069  07C7  1383               	bcf	3,7	;select IRP bank0
  5070  07C8  0080               	movwf	0
  5071  07C9  0A84               	incf	4,f
  5072  07CA  0840               	movf	??_frexp+1,w
  5073  07CB  0080               	movwf	0
  5074  07CC  0D3C               	rlf	frexp@value+2,w
  5075  07CD  0D3C               	rlf	frexp@value+2,w
  5076  07CE  3901               	andlw	1
  5077  07CF  00BF               	movwf	??_frexp
  5078  07D0  01C0               	clrf	??_frexp+1
  5079  07D1  083E               	movf	frexp@eptr,w
  5080  07D2  0084               	movwf	4
  5081  07D3  083F               	movf	??_frexp,w
  5082  07D4  0480               	iorwf	0,f
  5083  07D5  0A84               	incf	4,f
  5084  07D6  0840               	movf	??_frexp+1,w
  5085  07D7  0480               	iorwf	0,f
  5086  07D8                     l2464:	
  5087  07D8  083E               	movf	frexp@eptr,w
  5088  07D9  0084               	movwf	4
  5089  07DA  3082               	movlw	130
  5090  07DB  0780               	addwf	0,f
  5091  07DC  0F84               	incfsz	4,f
  5092  07DD  0800               	movf	0,w
  5093  07DE  1803               	skipnc
  5094  07DF  0A00               	incf	0,w
  5095  07E0  00FF               	movwf	btemp+1
  5096  07E1  30FF               	movlw	255
  5097  07E2  077F               	addwf	btemp+1,w
  5098  07E3  0080               	movwf	0
  5099  07E4  0384               	decf	4,f
  5100  07E5                     l2466:	
  5101  07E5  083D               	movf	frexp@value+3,w
  5102  07E6  3980               	andlw	-128
  5103  07E7  383F               	iorlw	63
  5104  07E8  00BD               	movwf	frexp@value+3
  5105  07E9                     l2468:	
  5106  07E9  13BC               	bcf	frexp@value+2,7
  5107  07EA                     l2470:	
  5108  07EA                     l752:	
  5109  07EA  0008               	return
  5110  07EB                     __end_of_frexp:	
  5111                           
  5112                           	psect	text11
  5113  1F34                     __ptext11:	
  5114 ;; *************** function ___fleq *****************
  5115 ;; Defined at:
  5116 ;;		line 4 in file "C:\Program Files (x86)\Microchip\xc8\v2.10\pic\sources\c90\common\fleq.c"
  5117 ;; Parameters:    Size  Location     Type
  5118 ;;  ff1             4   14[BANK0 ] PTR int 
  5119 ;;  ff2             4   18[BANK0 ] PTR int 
  5120 ;; Auto vars:     Size  Location     Type
  5121 ;;		None
  5122 ;; Return value:  Size  Location     Type
  5123 ;;		None               void
  5124 ;; Registers used:
  5125 ;;		wreg, status,2, status,0
  5126 ;; Tracked objects:
  5127 ;;		On entry : 0/0
  5128 ;;		On exit  : 0/0
  5129 ;;		Unchanged: 0/0
  5130 ;; Data sizes:     COMMON   BANK0   BANK1   BANK3   BANK2
  5131 ;;      Params:         0       8       0       0       0
  5132 ;;      Locals:         0       0       0       0       0
  5133 ;;      Temps:          0       4       0       0       0
  5134 ;;      Totals:         0      12       0       0       0
  5135 ;;Total ram usage:       12 bytes
  5136 ;; Hardware stack levels used:    1
  5137 ;; Hardware stack levels required when called:    1
  5138 ;; This function calls:
  5139 ;;		Nothing
  5140 ;; This function is called by:
  5141 ;;		_pow
  5142 ;;		_exp
  5143 ;;		_frexp
  5144 ;;		_ldexp
  5145 ;;		_log
  5146 ;; This function uses a non-reentrant model
  5147 ;;
  5148                           
  5149                           
  5150                           ;psect for function ___fleq
  5151  1F34                     ___fleq:	
  5152  1F34                     l1994:	
  5153                           ;incstack = 0
  5154                           ; Regs used in ___fleq: [wreg+status,2+status,0]
  5155                           
  5156  1F34  3000               	movlw	0
  5157  1F35  1283               	bcf	3,5	;RP0=0, select bank0
  5158  1F36  1303               	bcf	3,6	;RP1=0, select bank0
  5159  1F37  052E               	andwf	___fleq@ff1,w
  5160  1F38  00B6               	movwf	??___fleq
  5161  1F39  3000               	movlw	0
  5162  1F3A  052F               	andwf	___fleq@ff1+1,w
  5163  1F3B  00B7               	movwf	??___fleq+1
  5164  1F3C  3080               	movlw	128
  5165  1F3D  0530               	andwf	___fleq@ff1+2,w
  5166  1F3E  00B8               	movwf	??___fleq+2
  5167  1F3F  307F               	movlw	127
  5168  1F40  0531               	andwf	___fleq@ff1+3,w
  5169  1F41  00B9               	movwf	??___fleq+3
  5170  1F42  0839               	movf	??___fleq+3,w
  5171  1F43  0438               	iorwf	??___fleq+2,w
  5172  1F44  0437               	iorwf	??___fleq+1,w
  5173  1F45  0436               	iorwf	??___fleq,w
  5174  1F46  1D03               	skipz
  5175  1F47  2F49               	goto	u2291
  5176  1F48  2F4A               	goto	u2290
  5177  1F49                     u2291:	
  5178  1F49  2F52               	goto	l422
  5179  1F4A                     u2290:	
  5180  1F4A                     l1996:	
  5181  1F4A  3000               	movlw	0
  5182  1F4B  00B1               	movwf	___fleq@ff1+3
  5183  1F4C  3000               	movlw	0
  5184  1F4D  00B0               	movwf	___fleq@ff1+2
  5185  1F4E  3000               	movlw	0
  5186  1F4F  00AF               	movwf	___fleq@ff1+1
  5187  1F50  3000               	movlw	0
  5188  1F51  00AE               	movwf	___fleq@ff1
  5189  1F52                     l422:	
  5190  1F52  3000               	movlw	0
  5191  1F53  0532               	andwf	___fleq@ff2,w
  5192  1F54  00B6               	movwf	??___fleq
  5193  1F55  3000               	movlw	0
  5194  1F56  0533               	andwf	___fleq@ff2+1,w
  5195  1F57  00B7               	movwf	??___fleq+1
  5196  1F58  3080               	movlw	128
  5197  1F59  0534               	andwf	___fleq@ff2+2,w
  5198  1F5A  00B8               	movwf	??___fleq+2
  5199  1F5B  307F               	movlw	127
  5200  1F5C  0535               	andwf	___fleq@ff2+3,w
  5201  1F5D  00B9               	movwf	??___fleq+3
  5202  1F5E  0839               	movf	??___fleq+3,w
  5203  1F5F  0438               	iorwf	??___fleq+2,w
  5204  1F60  0437               	iorwf	??___fleq+1,w
  5205  1F61  0436               	iorwf	??___fleq,w
  5206  1F62  1D03               	skipz
  5207  1F63  2F65               	goto	u2301
  5208  1F64  2F66               	goto	u2300
  5209  1F65                     u2301:	
  5210  1F65  2F6E               	goto	l423
  5211  1F66                     u2300:	
  5212  1F66                     l1998:	
  5213  1F66  3000               	movlw	0
  5214  1F67  00B5               	movwf	___fleq@ff2+3
  5215  1F68  3000               	movlw	0
  5216  1F69  00B4               	movwf	___fleq@ff2+2
  5217  1F6A  3000               	movlw	0
  5218  1F6B  00B3               	movwf	___fleq@ff2+1
  5219  1F6C  3000               	movlw	0
  5220  1F6D  00B2               	movwf	___fleq@ff2
  5221  1F6E                     l423:	
  5222  1F6E  0835               	movf	___fleq@ff2+3,w
  5223  1F6F  0631               	xorwf	___fleq@ff1+3,w
  5224  1F70  1D03               	skipz
  5225  1F71  2F7C               	goto	u2315
  5226  1F72  0834               	movf	___fleq@ff2+2,w
  5227  1F73  0630               	xorwf	___fleq@ff1+2,w
  5228  1F74  1D03               	skipz
  5229  1F75  2F7C               	goto	u2315
  5230  1F76  0833               	movf	___fleq@ff2+1,w
  5231  1F77  062F               	xorwf	___fleq@ff1+1,w
  5232  1F78  1D03               	skipz
  5233  1F79  2F7C               	goto	u2315
  5234  1F7A  0832               	movf	___fleq@ff2,w
  5235  1F7B  062E               	xorwf	___fleq@ff1,w
  5236  1F7C                     u2315:	
  5237  1F7C  1903               	skipnz
  5238  1F7D  2F7F               	goto	u2311
  5239  1F7E  2F80               	goto	u2310
  5240  1F7F                     u2311:	
  5241  1F7F  2F82               	goto	l2002
  5242  1F80                     u2310:	
  5243  1F80                     l2000:	
  5244  1F80  1003               	clrc
  5245  1F81  2F83               	goto	l424
  5246  1F82                     l2002:	
  5247  1F82  1403               	setc
  5248  1F83                     l424:	
  5249  1F83  0008               	return
  5250  1F84                     __end_of___fleq:	
  5251                           
  5252                           	psect	text12
  5253  1250                     __ptext12:	
  5254 ;; *************** function ___xxtofl *****************
  5255 ;; Defined at:
  5256 ;;		line 10 in file "C:\Program Files (x86)\Microchip\xc8\v2.10\pic\sources\c90\common\xxtofl.c"
  5257 ;; Parameters:    Size  Location     Type
  5258 ;;  sign            1    wreg     unsigned char 
  5259 ;;  val             4    0[BANK0 ] long 
  5260 ;; Auto vars:     Size  Location     Type
  5261 ;;  sign            1    8[BANK0 ] unsigned char 
  5262 ;;  arg             4   10[BANK0 ] unsigned long 
  5263 ;;  exp             1    9[BANK0 ] unsigned char 
  5264 ;; Return value:  Size  Location     Type
  5265 ;;                  4    0[BANK0 ] unsigned char 
  5266 ;; Registers used:
  5267 ;;		wreg, status,2, status,0
  5268 ;; Tracked objects:
  5269 ;;		On entry : 0/0
  5270 ;;		On exit  : 0/0
  5271 ;;		Unchanged: 0/0
  5272 ;; Data sizes:     COMMON   BANK0   BANK1   BANK3   BANK2
  5273 ;;      Params:         0       4       0       0       0
  5274 ;;      Locals:         0       6       0       0       0
  5275 ;;      Temps:          0       4       0       0       0
  5276 ;;      Totals:         0      14       0       0       0
  5277 ;;Total ram usage:       14 bytes
  5278 ;; Hardware stack levels used:    1
  5279 ;; Hardware stack levels required when called:    1
  5280 ;; This function calls:
  5281 ;;		Nothing
  5282 ;; This function is called by:
  5283 ;;		_EEPROM_search
  5284 ;;		_pow
  5285 ;;		_exp
  5286 ;;		_floor
  5287 ;;		_log
  5288 ;; This function uses a non-reentrant model
  5289 ;;
  5290                           
  5291                           
  5292                           ;psect for function ___xxtofl
  5293  1250                     ___xxtofl:	
  5294                           
  5295                           ;incstack = 0
  5296                           ; Regs used in ___xxtofl: [wreg+status,2+status,0]
  5297                           ;___xxtofl@sign stored from wreg
  5298  1250  1283               	bcf	3,5	;RP0=0, select bank0
  5299  1251  1303               	bcf	3,6	;RP1=0, select bank0
  5300  1252  00A8               	movwf	___xxtofl@sign
  5301  1253                     l2410:	
  5302  1253  0828               	movf	___xxtofl@sign,w
  5303  1254  1903               	btfsc	3,2
  5304  1255  2A57               	goto	u3351
  5305  1256  2A58               	goto	u3350
  5306  1257                     u3351:	
  5307  1257  2A6C               	goto	l2416
  5308  1258                     u3350:	
  5309  1258                     l2412:	
  5310  1258  1FA3               	btfss	___xxtofl@val+3,7
  5311  1259  2A5B               	goto	u3361
  5312  125A  2A5C               	goto	u3360
  5313  125B                     u3361:	
  5314  125B  2A6C               	goto	l2416
  5315  125C                     u3360:	
  5316  125C                     l2414:	
  5317  125C  0920               	comf	___xxtofl@val,w
  5318  125D  00AA               	movwf	___xxtofl@arg
  5319  125E  0921               	comf	___xxtofl@val+1,w
  5320  125F  00AB               	movwf	___xxtofl@arg+1
  5321  1260  0922               	comf	___xxtofl@val+2,w
  5322  1261  00AC               	movwf	___xxtofl@arg+2
  5323  1262  0923               	comf	___xxtofl@val+3,w
  5324  1263  00AD               	movwf	___xxtofl@arg+3
  5325  1264  0AAA               	incf	___xxtofl@arg,f
  5326  1265  1903               	skipnz
  5327  1266  0AAB               	incf	___xxtofl@arg+1,f
  5328  1267  1903               	skipnz
  5329  1268  0AAC               	incf	___xxtofl@arg+2,f
  5330  1269  1903               	skipnz
  5331  126A  0AAD               	incf	___xxtofl@arg+3,f
  5332  126B  2A74               	goto	l680
  5333  126C                     l2416:	
  5334  126C  0823               	movf	___xxtofl@val+3,w
  5335  126D  00AD               	movwf	___xxtofl@arg+3
  5336  126E  0822               	movf	___xxtofl@val+2,w
  5337  126F  00AC               	movwf	___xxtofl@arg+2
  5338  1270  0821               	movf	___xxtofl@val+1,w
  5339  1271  00AB               	movwf	___xxtofl@arg+1
  5340  1272  0820               	movf	___xxtofl@val,w
  5341  1273  00AA               	movwf	___xxtofl@arg
  5342  1274                     l680:	
  5343  1274  0823               	movf	___xxtofl@val+3,w
  5344  1275  0422               	iorwf	___xxtofl@val+2,w
  5345  1276  0421               	iorwf	___xxtofl@val+1,w
  5346  1277  0420               	iorwf	___xxtofl@val,w
  5347  1278  1D03               	skipz
  5348  1279  2A7B               	goto	u3371
  5349  127A  2A7C               	goto	u3370
  5350  127B                     u3371:	
  5351  127B  2A85               	goto	l2422
  5352  127C                     u3370:	
  5353  127C                     l2418:	
  5354  127C  3000               	movlw	0
  5355  127D  00A3               	movwf	?___xxtofl+3
  5356  127E  3000               	movlw	0
  5357  127F  00A2               	movwf	?___xxtofl+2
  5358  1280  3000               	movlw	0
  5359  1281  00A1               	movwf	?___xxtofl+1
  5360  1282  3000               	movlw	0
  5361  1283  00A0               	movwf	?___xxtofl
  5362  1284  2B0B               	goto	l682
  5363  1285                     l2422:	
  5364  1285  3096               	movlw	150
  5365  1286  00A4               	movwf	??___xxtofl
  5366  1287  0824               	movf	??___xxtofl,w
  5367  1288  00A9               	movwf	___xxtofl@exp
  5368  1289  2A97               	goto	l2426
  5369  128A                     l2424:	
  5370  128A  3001               	movlw	1
  5371  128B  00A4               	movwf	??___xxtofl
  5372  128C  0824               	movf	??___xxtofl,w
  5373  128D  07A9               	addwf	___xxtofl@exp,f
  5374  128E  3001               	movlw	1
  5375  128F                     u3385:	
  5376  128F  1003               	clrc
  5377  1290  0CAD               	rrf	___xxtofl@arg+3,f
  5378  1291  0CAC               	rrf	___xxtofl@arg+2,f
  5379  1292  0CAB               	rrf	___xxtofl@arg+1,f
  5380  1293  0CAA               	rrf	___xxtofl@arg,f
  5381  1294  3EFF               	addlw	-1
  5382  1295  1D03               	skipz
  5383  1296  2A8F               	goto	u3385
  5384  1297                     l2426:	
  5385  1297  30FE               	movlw	254
  5386  1298  052D               	andwf	___xxtofl@arg+3,w
  5387  1299  1D03               	btfss	3,2
  5388  129A  2A9C               	goto	u3391
  5389  129B  2A9D               	goto	u3390
  5390  129C                     u3391:	
  5391  129C  2A8A               	goto	l2424
  5392  129D                     u3390:	
  5393  129D  2AB9               	goto	l686
  5394  129E                     l2428:	
  5395  129E  3001               	movlw	1
  5396  129F  00A4               	movwf	??___xxtofl
  5397  12A0  0824               	movf	??___xxtofl,w
  5398  12A1  07A9               	addwf	___xxtofl@exp,f
  5399  12A2                     l2430:	
  5400  12A2  3001               	movlw	1
  5401  12A3  07AA               	addwf	___xxtofl@arg,f
  5402  12A4  3000               	movlw	0
  5403  12A5  1803               	skipnc
  5404  12A6  3001               	movlw	1
  5405  12A7  07AB               	addwf	___xxtofl@arg+1,f
  5406  12A8  3000               	movlw	0
  5407  12A9  1803               	skipnc
  5408  12AA  3001               	movlw	1
  5409  12AB  07AC               	addwf	___xxtofl@arg+2,f
  5410  12AC  3000               	movlw	0
  5411  12AD  1803               	skipnc
  5412  12AE  3001               	movlw	1
  5413  12AF  07AD               	addwf	___xxtofl@arg+3,f
  5414  12B0                     l2432:	
  5415  12B0  3001               	movlw	1
  5416  12B1                     u3405:	
  5417  12B1  1003               	clrc
  5418  12B2  0CAD               	rrf	___xxtofl@arg+3,f
  5419  12B3  0CAC               	rrf	___xxtofl@arg+2,f
  5420  12B4  0CAB               	rrf	___xxtofl@arg+1,f
  5421  12B5  0CAA               	rrf	___xxtofl@arg,f
  5422  12B6  3EFF               	addlw	-1
  5423  12B7  1D03               	skipz
  5424  12B8  2AB1               	goto	u3405
  5425  12B9                     l686:	
  5426  12B9  30FF               	movlw	255
  5427  12BA  052D               	andwf	___xxtofl@arg+3,w
  5428  12BB  1D03               	btfss	3,2
  5429  12BC  2ABE               	goto	u3411
  5430  12BD  2ABF               	goto	u3410
  5431  12BE                     u3411:	
  5432  12BE  2A9E               	goto	l2428
  5433  12BF                     u3410:	
  5434  12BF  2ACB               	goto	l2436
  5435  12C0                     l2434:	
  5436  12C0  3001               	movlw	1
  5437  12C1  02A9               	subwf	___xxtofl@exp,f
  5438  12C2  3001               	movlw	1
  5439  12C3  00A4               	movwf	??___xxtofl
  5440  12C4                     u3425:	
  5441  12C4  1003               	clrc
  5442  12C5  0DAA               	rlf	___xxtofl@arg,f
  5443  12C6  0DAB               	rlf	___xxtofl@arg+1,f
  5444  12C7  0DAC               	rlf	___xxtofl@arg+2,f
  5445  12C8  0DAD               	rlf	___xxtofl@arg+3,f
  5446  12C9  0BA4               	decfsz	??___xxtofl,f
  5447  12CA  2AC4               	goto	u3425
  5448  12CB                     l2436:	
  5449  12CB  1BAC               	btfsc	___xxtofl@arg+2,7
  5450  12CC  2ACE               	goto	u3431
  5451  12CD  2ACF               	goto	u3430
  5452  12CE                     u3431:	
  5453  12CE  2AD5               	goto	l693
  5454  12CF                     u3430:	
  5455  12CF                     l2438:	
  5456  12CF  3002               	movlw	2
  5457  12D0  0229               	subwf	___xxtofl@exp,w
  5458  12D1  1803               	skipnc
  5459  12D2  2AD4               	goto	u3441
  5460  12D3  2AD5               	goto	u3440
  5461  12D4                     u3441:	
  5462  12D4  2AC0               	goto	l2434
  5463  12D5                     u3440:	
  5464  12D5                     l693:	
  5465  12D5  1829               	btfsc	___xxtofl@exp,0
  5466  12D6  2AD8               	goto	u3451
  5467  12D7  2AD9               	goto	u3450
  5468  12D8                     u3451:	
  5469  12D8  2AE1               	goto	l694
  5470  12D9                     u3450:	
  5471  12D9                     l2440:	
  5472  12D9  30FF               	movlw	255
  5473  12DA  05AA               	andwf	___xxtofl@arg,f
  5474  12DB  30FF               	movlw	255
  5475  12DC  05AB               	andwf	___xxtofl@arg+1,f
  5476  12DD  307F               	movlw	127
  5477  12DE  05AC               	andwf	___xxtofl@arg+2,f
  5478  12DF  30FF               	movlw	255
  5479  12E0  05AD               	andwf	___xxtofl@arg+3,f
  5480  12E1                     l694:	
  5481  12E1  1003               	clrc
  5482  12E2  0CA9               	rrf	___xxtofl@exp,f
  5483  12E3                     l2442:	
  5484  12E3  0829               	movf	___xxtofl@exp,w
  5485  12E4  00A4               	movwf	??___xxtofl
  5486  12E5  01A5               	clrf	??___xxtofl+1
  5487  12E6  01A6               	clrf	??___xxtofl+2
  5488  12E7  01A7               	clrf	??___xxtofl+3
  5489  12E8  3018               	movlw	24
  5490  12E9                     u3465:	
  5491  12E9  1003               	clrc
  5492  12EA  0DA4               	rlf	??___xxtofl,f
  5493  12EB  0DA5               	rlf	??___xxtofl+1,f
  5494  12EC  0DA6               	rlf	??___xxtofl+2,f
  5495  12ED  0DA7               	rlf	??___xxtofl+3,f
  5496  12EE                     u3460:	
  5497  12EE  3EFF               	addlw	-1
  5498  12EF  1D03               	skipz
  5499  12F0  2AE9               	goto	u3465
  5500  12F1  0824               	movf	??___xxtofl,w
  5501  12F2  04AA               	iorwf	___xxtofl@arg,f
  5502  12F3  0825               	movf	??___xxtofl+1,w
  5503  12F4  04AB               	iorwf	___xxtofl@arg+1,f
  5504  12F5  0826               	movf	??___xxtofl+2,w
  5505  12F6  04AC               	iorwf	___xxtofl@arg+2,f
  5506  12F7  0827               	movf	??___xxtofl+3,w
  5507  12F8  04AD               	iorwf	___xxtofl@arg+3,f
  5508  12F9                     l2444:	
  5509  12F9  0828               	movf	___xxtofl@sign,w
  5510  12FA  1903               	btfsc	3,2
  5511  12FB  2AFD               	goto	u3471
  5512  12FC  2AFE               	goto	u3470
  5513  12FD                     u3471:	
  5514  12FD  2B03               	goto	l2450
  5515  12FE                     u3470:	
  5516  12FE                     l2446:	
  5517  12FE  1FA3               	btfss	___xxtofl@val+3,7
  5518  12FF  2B01               	goto	u3481
  5519  1300  2B02               	goto	u3480
  5520  1301                     u3481:	
  5521  1301  2B03               	goto	l2450
  5522  1302                     u3480:	
  5523  1302                     l2448:	
  5524  1302  17AD               	bsf	___xxtofl@arg+3,7
  5525  1303                     l2450:	
  5526  1303  082D               	movf	___xxtofl@arg+3,w
  5527  1304  00A3               	movwf	?___xxtofl+3
  5528  1305  082C               	movf	___xxtofl@arg+2,w
  5529  1306  00A2               	movwf	?___xxtofl+2
  5530  1307  082B               	movf	___xxtofl@arg+1,w
  5531  1308  00A1               	movwf	?___xxtofl+1
  5532  1309  082A               	movf	___xxtofl@arg,w
  5533  130A  00A0               	movwf	?___xxtofl
  5534  130B                     l682:	
  5535  130B  0008               	return
  5536  130C                     __end_of___xxtofl:	
  5537                           
  5538                           	psect	text13
  5539  1F84                     __ptext13:	
  5540 ;; *************** function ___fltol *****************
  5541 ;; Defined at:
  5542 ;;		line 43 in file "C:\Program Files (x86)\Microchip\xc8\v2.10\pic\sources\c90\common\fltol.c"
  5543 ;; Parameters:    Size  Location     Type
  5544 ;;  f1              4   14[BANK0 ] unsigned char 
  5545 ;; Auto vars:     Size  Location     Type
  5546 ;;  exp1            1   24[BANK0 ] unsigned char 
  5547 ;;  sign1           1   23[BANK0 ] unsigned char 
  5548 ;; Return value:  Size  Location     Type
  5549 ;;                  4   14[BANK0 ] long 
  5550 ;; Registers used:
  5551 ;;		wreg, status,2, status,0
  5552 ;; Tracked objects:
  5553 ;;		On entry : 0/0
  5554 ;;		On exit  : 0/0
  5555 ;;		Unchanged: 0/0
  5556 ;; Data sizes:     COMMON   BANK0   BANK1   BANK3   BANK2
  5557 ;;      Params:         0       4       0       0       0
  5558 ;;      Locals:         0       2       0       0       0
  5559 ;;      Temps:          0       5       0       0       0
  5560 ;;      Totals:         0      11       0       0       0
  5561 ;;Total ram usage:       11 bytes
  5562 ;; Hardware stack levels used:    1
  5563 ;; Hardware stack levels required when called:    1
  5564 ;; This function calls:
  5565 ;;		Nothing
  5566 ;; This function is called by:
  5567 ;;		_EEPROM_search
  5568 ;;		_pow
  5569 ;;		_exp
  5570 ;;		_floor
  5571 ;; This function uses a non-reentrant model
  5572 ;;
  5573                           
  5574                           
  5575                           ;psect for function ___fltol
  5576  1F84                     ___fltol:	
  5577  1F84                     l2040:	
  5578                           ;incstack = 0
  5579                           ; Regs used in ___fltol: [wreg+status,2+status,0]
  5580                           
  5581  1F84  1003               	clrc
  5582  1F85  1283               	bcf	3,5	;RP0=0, select bank0
  5583  1F86  1303               	bcf	3,6	;RP1=0, select bank0
  5584  1F87  0D30               	rlf	___fltol@f1+2,w
  5585  1F88  0D31               	rlf	___fltol@f1+3,w
  5586  1F89  00B2               	movwf	??___fltol
  5587  1F8A  0832               	movf	??___fltol,w
  5588  1F8B  00B8               	movwf	___fltol@exp1
  5589  1F8C  0838               	movf	___fltol@exp1,w
  5590  1F8D  1D03               	btfss	3,2
  5591  1F8E  2F90               	goto	u2421
  5592  1F8F  2F91               	goto	u2420
  5593  1F90                     u2421:	
  5594  1F90  2F9A               	goto	l2046
  5595  1F91                     u2420:	
  5596  1F91                     l2042:	
  5597  1F91  3000               	movlw	0
  5598  1F92  00B1               	movwf	?___fltol+3
  5599  1F93  3000               	movlw	0
  5600  1F94  00B0               	movwf	?___fltol+2
  5601  1F95  3000               	movlw	0
  5602  1F96  00AF               	movwf	?___fltol+1
  5603  1F97  3000               	movlw	0
  5604  1F98  00AE               	movwf	?___fltol
  5605  1F99  2FFF               	goto	l439
  5606  1F9A                     l2046:	
  5607  1F9A  082E               	movf	___fltol@f1,w
  5608  1F9B  00B2               	movwf	??___fltol
  5609  1F9C  082F               	movf	___fltol@f1+1,w
  5610  1F9D  00B3               	movwf	??___fltol+1
  5611  1F9E  0830               	movf	___fltol@f1+2,w
  5612  1F9F  00B4               	movwf	??___fltol+2
  5613  1FA0  0831               	movf	___fltol@f1+3,w
  5614  1FA1  00B5               	movwf	??___fltol+3
  5615  1FA2  301F               	movlw	31
  5616  1FA3                     u2435:	
  5617  1FA3  1003               	clrc
  5618  1FA4  0CB5               	rrf	??___fltol+3,f
  5619  1FA5  0CB4               	rrf	??___fltol+2,f
  5620  1FA6  0CB3               	rrf	??___fltol+1,f
  5621  1FA7  0CB2               	rrf	??___fltol,f
  5622  1FA8                     u2430:	
  5623  1FA8  3EFF               	addlw	-1
  5624  1FA9  1D03               	skipz
  5625  1FAA  2FA3               	goto	u2435
  5626  1FAB  0832               	movf	??___fltol,w
  5627  1FAC  00B6               	movwf	??___fltol+4
  5628  1FAD  0836               	movf	??___fltol+4,w
  5629  1FAE  00B7               	movwf	___fltol@sign1
  5630  1FAF                     l2048:	
  5631  1FAF  17B0               	bsf	___fltol@f1+2,7
  5632  1FB0                     l2050:	
  5633  1FB0  30FF               	movlw	255
  5634  1FB1  05AE               	andwf	___fltol@f1,f
  5635  1FB2  30FF               	movlw	255
  5636  1FB3  05AF               	andwf	___fltol@f1+1,f
  5637  1FB4  30FF               	movlw	255
  5638  1FB5  05B0               	andwf	___fltol@f1+2,f
  5639  1FB6  3000               	movlw	0
  5640  1FB7  05B1               	andwf	___fltol@f1+3,f
  5641  1FB8                     l2052:	
  5642  1FB8  3096               	movlw	150
  5643  1FB9  02B8               	subwf	___fltol@exp1,f
  5644  1FBA                     l2054:	
  5645  1FBA  1FB8               	btfss	___fltol@exp1,7
  5646  1FBB  2FBD               	goto	u2441
  5647  1FBC  2FBE               	goto	u2440
  5648  1FBD                     u2441:	
  5649  1FBD  2FD8               	goto	l2064
  5650  1FBE                     u2440:	
  5651  1FBE                     l2056:	
  5652  1FBE  0838               	movf	___fltol@exp1,w
  5653  1FBF  3A80               	xorlw	128
  5654  1FC0  3E97               	addlw	151
  5655  1FC1  1803               	skipnc
  5656  1FC2  2FC4               	goto	u2451
  5657  1FC3  2FC5               	goto	u2450
  5658  1FC4                     u2451:	
  5659  1FC4  2FC6               	goto	l2062
  5660  1FC5                     u2450:	
  5661  1FC5  2F91               	goto	l2042
  5662  1FC6                     l2062:	
  5663  1FC6  3001               	movlw	1
  5664  1FC7                     u2465:	
  5665  1FC7  1003               	clrc
  5666  1FC8  0CB1               	rrf	___fltol@f1+3,f
  5667  1FC9  0CB0               	rrf	___fltol@f1+2,f
  5668  1FCA  0CAF               	rrf	___fltol@f1+1,f
  5669  1FCB  0CAE               	rrf	___fltol@f1,f
  5670  1FCC  3EFF               	addlw	-1
  5671  1FCD  1D03               	skipz
  5672  1FCE  2FC7               	goto	u2465
  5673  1FCF  3001               	movlw	1
  5674  1FD0  00B2               	movwf	??___fltol
  5675  1FD1  0832               	movf	??___fltol,w
  5676  1FD2  07B8               	addwf	___fltol@exp1,f
  5677  1FD3  1D03               	btfss	3,2
  5678  1FD4  2FD6               	goto	u2471
  5679  1FD5  2FD7               	goto	u2470
  5680  1FD6                     u2471:	
  5681  1FD6  2FC6               	goto	l2062
  5682  1FD7                     u2470:	
  5683  1FD7  2FEF               	goto	l2072
  5684  1FD8                     l2064:	
  5685  1FD8  3020               	movlw	32
  5686  1FD9  0238               	subwf	___fltol@exp1,w
  5687  1FDA  1C03               	skipc
  5688  1FDB  2FDD               	goto	u2481
  5689  1FDC  2FDE               	goto	u2480
  5690  1FDD                     u2481:	
  5691  1FDD  2FEA               	goto	l446
  5692  1FDE                     u2480:	
  5693  1FDE  2F91               	goto	l2042
  5694  1FDF                     l2070:	
  5695  1FDF  3001               	movlw	1
  5696  1FE0  00B2               	movwf	??___fltol
  5697  1FE1                     u2495:	
  5698  1FE1  1003               	clrc
  5699  1FE2  0DAE               	rlf	___fltol@f1,f
  5700  1FE3  0DAF               	rlf	___fltol@f1+1,f
  5701  1FE4  0DB0               	rlf	___fltol@f1+2,f
  5702  1FE5  0DB1               	rlf	___fltol@f1+3,f
  5703  1FE6  0BB2               	decfsz	??___fltol,f
  5704  1FE7  2FE1               	goto	u2495
  5705  1FE8  3001               	movlw	1
  5706  1FE9  02B8               	subwf	___fltol@exp1,f
  5707  1FEA                     l446:	
  5708  1FEA  0838               	movf	___fltol@exp1,w
  5709  1FEB  1D03               	btfss	3,2
  5710  1FEC  2FEE               	goto	u2501
  5711  1FED  2FEF               	goto	u2500
  5712  1FEE                     u2501:	
  5713  1FEE  2FDF               	goto	l2070
  5714  1FEF                     u2500:	
  5715  1FEF                     l2072:	
  5716  1FEF  0837               	movf	___fltol@sign1,w
  5717  1FF0  1903               	btfsc	3,2
  5718  1FF1  2FF3               	goto	u2511
  5719  1FF2  2FF4               	goto	u2510
  5720  1FF3                     u2511:	
  5721  1FF3  2FFF               	goto	l449
  5722  1FF4                     u2510:	
  5723  1FF4                     l2074:	
  5724  1FF4  09AE               	comf	___fltol@f1,f
  5725  1FF5  09AF               	comf	___fltol@f1+1,f
  5726  1FF6  09B0               	comf	___fltol@f1+2,f
  5727  1FF7  09B1               	comf	___fltol@f1+3,f
  5728  1FF8  0AAE               	incf	___fltol@f1,f
  5729  1FF9  1903               	skipnz
  5730  1FFA  0AAF               	incf	___fltol@f1+1,f
  5731  1FFB  1903               	skipnz
  5732  1FFC  0AB0               	incf	___fltol@f1+2,f
  5733  1FFD  1903               	skipnz
  5734  1FFE  0AB1               	incf	___fltol@f1+3,f
  5735  1FFF                     l449:	
  5736  1FFF                     l439:	
  5737  1FFF  0008               	return
  5738  2000                     __end_of___fltol:	
  5739                           
  5740                           	psect	text14
  5741  1105                     __ptext14:	
  5742 ;; *************** function ___flge *****************
  5743 ;; Defined at:
  5744 ;;		line 4 in file "C:\Program Files (x86)\Microchip\xc8\v2.10\pic\sources\c90\common\flge.c"
  5745 ;; Parameters:    Size  Location     Type
  5746 ;;  ff1             4    0[BANK0 ] long 
  5747 ;;  ff2             4    4[BANK0 ] long 
  5748 ;; Auto vars:     Size  Location     Type
  5749 ;;		None
  5750 ;; Return value:  Size  Location     Type
  5751 ;;		None               void
  5752 ;; Registers used:
  5753 ;;		wreg, status,2, status,0
  5754 ;; Tracked objects:
  5755 ;;		On entry : 0/0
  5756 ;;		On exit  : 0/0
  5757 ;;		Unchanged: 0/0
  5758 ;; Data sizes:     COMMON   BANK0   BANK1   BANK3   BANK2
  5759 ;;      Params:         0       8       0       0       0
  5760 ;;      Locals:         0       0       0       0       0
  5761 ;;      Temps:          0       4       0       0       0
  5762 ;;      Totals:         0      12       0       0       0
  5763 ;;Total ram usage:       12 bytes
  5764 ;; Hardware stack levels used:    1
  5765 ;; Hardware stack levels required when called:    1
  5766 ;; This function calls:
  5767 ;;		Nothing
  5768 ;; This function is called by:
  5769 ;;		_pow
  5770 ;;		_exp
  5771 ;;		_floor
  5772 ;;		_ldexp
  5773 ;;		_log
  5774 ;; This function uses a non-reentrant model
  5775 ;;
  5776                           
  5777                           
  5778                           ;psect for function ___flge
  5779  1105                     ___flge:	
  5780  1105                     l2020:	
  5781                           ;incstack = 0
  5782                           ; Regs used in ___flge: [wreg+status,2+status,0]
  5783                           
  5784  1105  3000               	movlw	0
  5785  1106  1283               	bcf	3,5	;RP0=0, select bank0
  5786  1107  1303               	bcf	3,6	;RP1=0, select bank0
  5787  1108  0520               	andwf	___flge@ff1,w
  5788  1109  00A8               	movwf	??___flge
  5789  110A  3000               	movlw	0
  5790  110B  0521               	andwf	___flge@ff1+1,w
  5791  110C  00A9               	movwf	??___flge+1
  5792  110D  3080               	movlw	128
  5793  110E  0522               	andwf	___flge@ff1+2,w
  5794  110F  00AA               	movwf	??___flge+2
  5795  1110  307F               	movlw	127
  5796  1111  0523               	andwf	___flge@ff1+3,w
  5797  1112  00AB               	movwf	??___flge+3
  5798  1113  082B               	movf	??___flge+3,w
  5799  1114  042A               	iorwf	??___flge+2,w
  5800  1115  0429               	iorwf	??___flge+1,w
  5801  1116  0428               	iorwf	??___flge,w
  5802  1117  1D03               	skipz
  5803  1118  291A               	goto	u2351
  5804  1119  291B               	goto	u2350
  5805  111A                     u2351:	
  5806  111A  2923               	goto	l427
  5807  111B                     u2350:	
  5808  111B                     l2022:	
  5809  111B  3000               	movlw	0
  5810  111C  00A3               	movwf	___flge@ff1+3
  5811  111D  3000               	movlw	0
  5812  111E  00A2               	movwf	___flge@ff1+2
  5813  111F  3000               	movlw	0
  5814  1120  00A1               	movwf	___flge@ff1+1
  5815  1121  3000               	movlw	0
  5816  1122  00A0               	movwf	___flge@ff1
  5817  1123                     l427:	
  5818  1123  3000               	movlw	0
  5819  1124  0524               	andwf	___flge@ff2,w
  5820  1125  00A8               	movwf	??___flge
  5821  1126  3000               	movlw	0
  5822  1127  0525               	andwf	___flge@ff2+1,w
  5823  1128  00A9               	movwf	??___flge+1
  5824  1129  3080               	movlw	128
  5825  112A  0526               	andwf	___flge@ff2+2,w
  5826  112B  00AA               	movwf	??___flge+2
  5827  112C  307F               	movlw	127
  5828  112D  0527               	andwf	___flge@ff2+3,w
  5829  112E  00AB               	movwf	??___flge+3
  5830  112F  082B               	movf	??___flge+3,w
  5831  1130  042A               	iorwf	??___flge+2,w
  5832  1131  0429               	iorwf	??___flge+1,w
  5833  1132  0428               	iorwf	??___flge,w
  5834  1133  1D03               	skipz
  5835  1134  2936               	goto	u2361
  5836  1135  2937               	goto	u2360
  5837  1136                     u2361:	
  5838  1136  293F               	goto	l2026
  5839  1137                     u2360:	
  5840  1137                     l2024:	
  5841  1137  3000               	movlw	0
  5842  1138  00A7               	movwf	___flge@ff2+3
  5843  1139  3000               	movlw	0
  5844  113A  00A6               	movwf	___flge@ff2+2
  5845  113B  3000               	movlw	0
  5846  113C  00A5               	movwf	___flge@ff2+1
  5847  113D  3000               	movlw	0
  5848  113E  00A4               	movwf	___flge@ff2
  5849  113F                     l2026:	
  5850  113F  1FA3               	btfss	___flge@ff1+3,7
  5851  1140  2942               	goto	u2371
  5852  1141  2943               	goto	u2370
  5853  1142                     u2371:	
  5854  1142  2967               	goto	l2030
  5855  1143                     u2370:	
  5856  1143                     l2028:	
  5857  1143  3000               	movlw	0
  5858  1144  00A8               	movwf	??___flge
  5859  1145  3000               	movlw	0
  5860  1146  00A9               	movwf	??___flge+1
  5861  1147  3000               	movlw	0
  5862  1148  00AA               	movwf	??___flge+2
  5863  1149  3080               	movlw	128
  5864  114A  00AB               	movwf	??___flge+3
  5865  114B  0820               	movf	___flge@ff1,w
  5866  114C  02A8               	subwf	??___flge,f
  5867  114D  0821               	movf	___flge@ff1+1,w
  5868  114E  1C03               	skipc
  5869  114F  0F21               	incfsz	___flge@ff1+1,w
  5870  1150  2952               	goto	u2381
  5871  1151  2953               	goto	u2382
  5872  1152                     u2381:	
  5873  1152  02A9               	subwf	??___flge+1,f
  5874  1153                     u2382:	
  5875  1153  0822               	movf	___flge@ff1+2,w
  5876  1154  1C03               	skipc
  5877  1155  0F22               	incfsz	___flge@ff1+2,w
  5878  1156  2958               	goto	u2383
  5879  1157  2959               	goto	u2384
  5880  1158                     u2383:	
  5881  1158  02AA               	subwf	??___flge+2,f
  5882  1159                     u2384:	
  5883  1159  0823               	movf	___flge@ff1+3,w
  5884  115A  1C03               	skipc
  5885  115B  0F23               	incfsz	___flge@ff1+3,w
  5886  115C  295E               	goto	u2385
  5887  115D  295F               	goto	u2386
  5888  115E                     u2385:	
  5889  115E  02AB               	subwf	??___flge+3,f
  5890  115F                     u2386:	
  5891  115F  082B               	movf	??___flge+3,w
  5892  1160  00A3               	movwf	___flge@ff1+3
  5893  1161  082A               	movf	??___flge+2,w
  5894  1162  00A2               	movwf	___flge@ff1+2
  5895  1163  0829               	movf	??___flge+1,w
  5896  1164  00A1               	movwf	___flge@ff1+1
  5897  1165  0828               	movf	??___flge,w
  5898  1166  00A0               	movwf	___flge@ff1
  5899  1167                     l2030:	
  5900  1167  1FA7               	btfss	___flge@ff2+3,7
  5901  1168  296A               	goto	u2391
  5902  1169  296B               	goto	u2390
  5903  116A                     u2391:	
  5904  116A  298F               	goto	l430
  5905  116B                     u2390:	
  5906  116B                     l2032:	
  5907  116B  3000               	movlw	0
  5908  116C  00A8               	movwf	??___flge
  5909  116D  3000               	movlw	0
  5910  116E  00A9               	movwf	??___flge+1
  5911  116F  3000               	movlw	0
  5912  1170  00AA               	movwf	??___flge+2
  5913  1171  3080               	movlw	128
  5914  1172  00AB               	movwf	??___flge+3
  5915  1173  0824               	movf	___flge@ff2,w
  5916  1174  02A8               	subwf	??___flge,f
  5917  1175  0825               	movf	___flge@ff2+1,w
  5918  1176  1C03               	skipc
  5919  1177  0F25               	incfsz	___flge@ff2+1,w
  5920  1178  297A               	goto	u2401
  5921  1179  297B               	goto	u2402
  5922  117A                     u2401:	
  5923  117A  02A9               	subwf	??___flge+1,f
  5924  117B                     u2402:	
  5925  117B  0826               	movf	___flge@ff2+2,w
  5926  117C  1C03               	skipc
  5927  117D  0F26               	incfsz	___flge@ff2+2,w
  5928  117E  2980               	goto	u2403
  5929  117F  2981               	goto	u2404
  5930  1180                     u2403:	
  5931  1180  02AA               	subwf	??___flge+2,f
  5932  1181                     u2404:	
  5933  1181  0827               	movf	___flge@ff2+3,w
  5934  1182  1C03               	skipc
  5935  1183  0F27               	incfsz	___flge@ff2+3,w
  5936  1184  2986               	goto	u2405
  5937  1185  2987               	goto	u2406
  5938  1186                     u2405:	
  5939  1186  02AB               	subwf	??___flge+3,f
  5940  1187                     u2406:	
  5941  1187  082B               	movf	??___flge+3,w
  5942  1188  00A7               	movwf	___flge@ff2+3
  5943  1189  082A               	movf	??___flge+2,w
  5944  118A  00A6               	movwf	___flge@ff2+2
  5945  118B  0829               	movf	??___flge+1,w
  5946  118C  00A5               	movwf	___flge@ff2+1
  5947  118D  0828               	movf	??___flge,w
  5948  118E  00A4               	movwf	___flge@ff2
  5949  118F                     l430:	
  5950  118F  3080               	movlw	128
  5951  1190  06A3               	xorwf	___flge@ff1+3,f
  5952  1191  3080               	movlw	128
  5953  1192  06A7               	xorwf	___flge@ff2+3,f
  5954  1193  0827               	movf	___flge@ff2+3,w
  5955  1194  0223               	subwf	___flge@ff1+3,w
  5956  1195  1D03               	skipz
  5957  1196  29A1               	goto	u2415
  5958  1197  0826               	movf	___flge@ff2+2,w
  5959  1198  0222               	subwf	___flge@ff1+2,w
  5960  1199  1D03               	skipz
  5961  119A  29A1               	goto	u2415
  5962  119B  0825               	movf	___flge@ff2+1,w
  5963  119C  0221               	subwf	___flge@ff1+1,w
  5964  119D  1D03               	skipz
  5965  119E  29A1               	goto	u2415
  5966  119F  0824               	movf	___flge@ff2,w
  5967  11A0  0220               	subwf	___flge@ff1,w
  5968  11A1                     u2415:	
  5969  11A1  1803               	skipnc
  5970  11A2  29A4               	goto	u2411
  5971  11A3  29A5               	goto	u2410
  5972  11A4                     u2411:	
  5973  11A4  29A7               	goto	l2036
  5974  11A5                     u2410:	
  5975  11A5                     l2034:	
  5976  11A5  1003               	clrc
  5977  11A6  29A8               	goto	l431
  5978  11A7                     l2036:	
  5979  11A7  1403               	setc
  5980  11A8                     l431:	
  5981  11A8  0008               	return
  5982  11A9                     __end_of___flge:	
  5983                           
  5984                           	psect	text15
  5985  13D2                     __ptext15:	
  5986 ;; *************** function _eval_poly *****************
  5987 ;; Defined at:
  5988 ;;		line 4 in file "C:\Program Files (x86)\Microchip\xc8\v2.10\pic\sources\c90\common\evalpoly.c"
  5989 ;; Parameters:    Size  Location     Type
  5990 ;;  x               4    0[BANK1 ] long 
  5991 ;;  d               2    4[BANK1 ] PTR const 
  5992 ;;		 -> log@coeff(36), exp@coeff(40), 
  5993 ;;  n               2    6[BANK1 ] int 
  5994 ;; Auto vars:     Size  Location     Type
  5995 ;;  res             4   16[BANK1 ] int 
  5996 ;; Return value:  Size  Location     Type
  5997 ;;                  4    0[BANK1 ] int 
  5998 ;; Registers used:
  5999 ;;		wreg, fsr0l, fsr0h, status,2, status,0, btemp+1, pclath, cstack
  6000 ;; Tracked objects:
  6001 ;;		On entry : 0/0
  6002 ;;		On exit  : 0/0
  6003 ;;		Unchanged: 0/0
  6004 ;; Data sizes:     COMMON   BANK0   BANK1   BANK3   BANK2
  6005 ;;      Params:         0       0       8       0       0
  6006 ;;      Locals:         0       0       4       0       0
  6007 ;;      Temps:          0       0       8       0       0
  6008 ;;      Totals:         0       0      20       0       0
  6009 ;;Total ram usage:       20 bytes
  6010 ;; Hardware stack levels used:    1
  6011 ;; Hardware stack levels required when called:    3
  6012 ;; This function calls:
  6013 ;;		___fladd
  6014 ;;		___flmul
  6015 ;; This function is called by:
  6016 ;;		_exp
  6017 ;;		_log
  6018 ;; This function uses a non-reentrant model
  6019 ;;
  6020                           
  6021                           
  6022                           ;psect for function _eval_poly
  6023  13D2                     _eval_poly:	
  6024  13D2                     l2658:	
  6025                           ;incstack = 0
  6026 ;; using string table level
  6027                           ; Regs used in _eval_poly: [wreg-fsr0h+status,2+status,0+btemp+1+pclath+cstack]
  6028                           
  6029  13D2  1683               	bsf	3,5	;RP0=1, select bank1
  6030  13D3  1303               	bcf	3,6	;RP1=0, select bank1
  6031  13D4  0826               	movf	eval_poly@n^(0+128),w
  6032  13D5  00A8               	movwf	??_eval_poly^(0+128)
  6033  13D6  3002               	movlw	2
  6034  13D7                     u3845:	
  6035  13D7  1003               	clrc
  6036  13D8  0DA8               	rlf	??_eval_poly^(0+128),f
  6037  13D9  3EFF               	addlw	-1
  6038  13DA  1D03               	skipz
  6039  13DB  2BD7               	goto	u3845
  6040  13DC  0828               	movf	??_eval_poly^(0+128),w
  6041  13DD  0724               	addwf	eval_poly@d^(0+128),w
  6042  13DE  00AA               	movwf	(??_eval_poly+2)^(0+128)
  6043  13DF  0825               	movf	(eval_poly@d+1)^(0+128),w
  6044  13E0  00A9               	movwf	(??_eval_poly+1)^(0+128)
  6045  13E1  1803               	skipnc
  6046  13E2  0AA9               	incf	(??_eval_poly+1)^(0+128),f
  6047  13E3  1FA8               	btfss	??_eval_poly^(0+128),7
  6048  13E4  2BE6               	goto	u3850
  6049  13E5  03A9               	decf	(??_eval_poly+1)^(0+128),f
  6050  13E6                     u3850:	
  6051  13E6  1683               	bsf	3,5	;RP0=1, select bank1
  6052  13E7  1303               	bcf	3,6	;RP1=0, select bank1
  6053  13E8  0829               	movf	(??_eval_poly+1)^(0+128),w
  6054  13E9  00AB               	movwf	((??_eval_poly+2)^(0+128)+1)
  6055  13EA  082B               	movf	(??_eval_poly+3)^(0+128),w
  6056  13EB  1283               	bcf	3,5	;RP0=0, select bank0
  6057  13EC  1303               	bcf	3,6	;RP1=0, select bank0
  6058  13ED  00FF               	movwf	btemp+1
  6059  13EE  1683               	bsf	3,5	;RP0=1, select bank1
  6060  13EF  1303               	bcf	3,6	;RP1=0, select bank1
  6061  13F0  082A               	movf	(??_eval_poly+2)^(0+128),w
  6062  13F1  0084               	movwf	4
  6063  13F2  1283               	bcf	3,5	;RP0=0, select bank0
  6064  13F3  1303               	bcf	3,6	;RP1=0, select bank0
  6065  13F4  160A  158A  2000  160A  118A  	fcall	stringtab
  6066  13F9  1683               	bsf	3,5	;RP0=1, select bank1
  6067  13FA  1303               	bcf	3,6	;RP1=0, select bank1
  6068  13FB  00AC               	movwf	(??_eval_poly+4)^(0+128)
  6069  13FC  1283               	bcf	3,5	;RP0=0, select bank0
  6070  13FD  1303               	bcf	3,6	;RP1=0, select bank0
  6071  13FE  160A  158A  2000  160A  118A  	fcall	stringtab
  6072  1403  1683               	bsf	3,5	;RP0=1, select bank1
  6073  1404  1303               	bcf	3,6	;RP1=0, select bank1
  6074  1405  00AD               	movwf	((??_eval_poly+4)^(0+128)+1)
  6075  1406  1283               	bcf	3,5	;RP0=0, select bank0
  6076  1407  1303               	bcf	3,6	;RP1=0, select bank0
  6077  1408  160A  158A  2000  160A  118A  	fcall	stringtab
  6078  140D  1683               	bsf	3,5	;RP0=1, select bank1
  6079  140E  1303               	bcf	3,6	;RP1=0, select bank1
  6080  140F  00AE               	movwf	((??_eval_poly+4)^(0+128)+2)
  6081  1410  1283               	bcf	3,5	;RP0=0, select bank0
  6082  1411  1303               	bcf	3,6	;RP1=0, select bank0
  6083  1412  160A  158A  2000  160A  118A  	fcall	stringtab
  6084  1417  1683               	bsf	3,5	;RP0=1, select bank1
  6085  1418  1303               	bcf	3,6	;RP1=0, select bank1
  6086  1419  00AF               	movwf	((??_eval_poly+4)^(0+128)+3)
  6087  141A  082F               	movf	(??_eval_poly+7)^(0+128),w
  6088  141B  00B3               	movwf	(eval_poly@res+3)^(0+128)
  6089  141C  082E               	movf	(??_eval_poly+6)^(0+128),w
  6090  141D  00B2               	movwf	(eval_poly@res+2)^(0+128)
  6091  141E  082D               	movf	(??_eval_poly+5)^(0+128),w
  6092  141F  00B1               	movwf	(eval_poly@res+1)^(0+128)
  6093  1420  082C               	movf	(??_eval_poly+4)^(0+128),w
  6094  1421  00B0               	movwf	eval_poly@res^(0+128)
  6095  1422  2CE1               	goto	l2662
  6096  1423                     l2660:	
  6097  1423  30FF               	movlw	255
  6098  1424  07A6               	addwf	eval_poly@n^(0+128),f
  6099  1425  1803               	skipnc
  6100  1426  0AA7               	incf	(eval_poly@n+1)^(0+128),f
  6101  1427  30FF               	movlw	255
  6102  1428  07A7               	addwf	(eval_poly@n+1)^(0+128),f
  6103  1429  0826               	movf	eval_poly@n^(0+128),w
  6104  142A  00A8               	movwf	??_eval_poly^(0+128)
  6105  142B  3002               	movlw	2
  6106  142C                     u3865:	
  6107  142C  1003               	clrc
  6108  142D  0DA8               	rlf	??_eval_poly^(0+128),f
  6109  142E  3EFF               	addlw	-1
  6110  142F  1D03               	skipz
  6111  1430  2C2C               	goto	u3865
  6112  1431  0828               	movf	??_eval_poly^(0+128),w
  6113  1432  0724               	addwf	eval_poly@d^(0+128),w
  6114  1433  00AA               	movwf	(??_eval_poly+2)^(0+128)
  6115  1434  0825               	movf	(eval_poly@d+1)^(0+128),w
  6116  1435  00A9               	movwf	(??_eval_poly+1)^(0+128)
  6117  1436  1803               	skipnc
  6118  1437  0AA9               	incf	(??_eval_poly+1)^(0+128),f
  6119  1438  1FA8               	btfss	??_eval_poly^(0+128),7
  6120  1439  2C3B               	goto	u3870
  6121  143A  03A9               	decf	(??_eval_poly+1)^(0+128),f
  6122  143B                     u3870:	
  6123  143B  1683               	bsf	3,5	;RP0=1, select bank1
  6124  143C  1303               	bcf	3,6	;RP1=0, select bank1
  6125  143D  0829               	movf	(??_eval_poly+1)^(0+128),w
  6126  143E  00AB               	movwf	((??_eval_poly+2)^(0+128)+1)
  6127  143F  082B               	movf	(??_eval_poly+3)^(0+128),w
  6128  1440  1283               	bcf	3,5	;RP0=0, select bank0
  6129  1441  1303               	bcf	3,6	;RP1=0, select bank0
  6130  1442  00FF               	movwf	btemp+1
  6131  1443  1683               	bsf	3,5	;RP0=1, select bank1
  6132  1444  1303               	bcf	3,6	;RP1=0, select bank1
  6133  1445  082A               	movf	(??_eval_poly+2)^(0+128),w
  6134  1446  0084               	movwf	4
  6135  1447  1283               	bcf	3,5	;RP0=0, select bank0
  6136  1448  1303               	bcf	3,6	;RP1=0, select bank0
  6137  1449  160A  158A  2000  160A  118A  	fcall	stringtab
  6138  144E  1683               	bsf	3,5	;RP0=1, select bank1
  6139  144F  1303               	bcf	3,6	;RP1=0, select bank1
  6140  1450  00AC               	movwf	(??_eval_poly+4)^(0+128)
  6141  1451  1283               	bcf	3,5	;RP0=0, select bank0
  6142  1452  1303               	bcf	3,6	;RP1=0, select bank0
  6143  1453  160A  158A  2000  160A  118A  	fcall	stringtab
  6144  1458  1683               	bsf	3,5	;RP0=1, select bank1
  6145  1459  1303               	bcf	3,6	;RP1=0, select bank1
  6146  145A  00AD               	movwf	((??_eval_poly+4)^(0+128)+1)
  6147  145B  1283               	bcf	3,5	;RP0=0, select bank0
  6148  145C  1303               	bcf	3,6	;RP1=0, select bank0
  6149  145D  160A  158A  2000  160A  118A  	fcall	stringtab
  6150  1462  1683               	bsf	3,5	;RP0=1, select bank1
  6151  1463  1303               	bcf	3,6	;RP1=0, select bank1
  6152  1464  00AE               	movwf	((??_eval_poly+4)^(0+128)+2)
  6153  1465  1283               	bcf	3,5	;RP0=0, select bank0
  6154  1466  1303               	bcf	3,6	;RP1=0, select bank0
  6155  1467  160A  158A  2000  160A  118A  	fcall	stringtab
  6156  146C  1683               	bsf	3,5	;RP0=1, select bank1
  6157  146D  1303               	bcf	3,6	;RP1=0, select bank1
  6158  146E  00AF               	movwf	((??_eval_poly+4)^(0+128)+3)
  6159  146F  082F               	movf	(??_eval_poly+7)^(0+128),w
  6160  1470  1283               	bcf	3,5	;RP0=0, select bank0
  6161  1471  1303               	bcf	3,6	;RP1=0, select bank0
  6162  1472  00DE               	movwf	___fladd@b+3
  6163  1473  1683               	bsf	3,5	;RP0=1, select bank1
  6164  1474  1303               	bcf	3,6	;RP1=0, select bank1
  6165  1475  082E               	movf	(??_eval_poly+6)^(0+128),w
  6166  1476  1283               	bcf	3,5	;RP0=0, select bank0
  6167  1477  1303               	bcf	3,6	;RP1=0, select bank0
  6168  1478  00DD               	movwf	___fladd@b+2
  6169  1479  1683               	bsf	3,5	;RP0=1, select bank1
  6170  147A  1303               	bcf	3,6	;RP1=0, select bank1
  6171  147B  082D               	movf	(??_eval_poly+5)^(0+128),w
  6172  147C  1283               	bcf	3,5	;RP0=0, select bank0
  6173  147D  1303               	bcf	3,6	;RP1=0, select bank0
  6174  147E  00DC               	movwf	___fladd@b+1
  6175  147F  1683               	bsf	3,5	;RP0=1, select bank1
  6176  1480  1303               	bcf	3,6	;RP1=0, select bank1
  6177  1481  082C               	movf	(??_eval_poly+4)^(0+128),w
  6178  1482  1283               	bcf	3,5	;RP0=0, select bank0
  6179  1483  1303               	bcf	3,6	;RP1=0, select bank0
  6180  1484  00DB               	movwf	___fladd@b
  6181  1485  1683               	bsf	3,5	;RP0=1, select bank1
  6182  1486  1303               	bcf	3,6	;RP1=0, select bank1
  6183  1487  0833               	movf	(eval_poly@res+3)^(0+128),w
  6184  1488  1283               	bcf	3,5	;RP0=0, select bank0
  6185  1489  1303               	bcf	3,6	;RP1=0, select bank0
  6186  148A  00C4               	movwf	___flmul@b+3
  6187  148B  1683               	bsf	3,5	;RP0=1, select bank1
  6188  148C  1303               	bcf	3,6	;RP1=0, select bank1
  6189  148D  0832               	movf	(eval_poly@res+2)^(0+128),w
  6190  148E  1283               	bcf	3,5	;RP0=0, select bank0
  6191  148F  1303               	bcf	3,6	;RP1=0, select bank0
  6192  1490  00C3               	movwf	___flmul@b+2
  6193  1491  1683               	bsf	3,5	;RP0=1, select bank1
  6194  1492  1303               	bcf	3,6	;RP1=0, select bank1
  6195  1493  0831               	movf	(eval_poly@res+1)^(0+128),w
  6196  1494  1283               	bcf	3,5	;RP0=0, select bank0
  6197  1495  1303               	bcf	3,6	;RP1=0, select bank0
  6198  1496  00C2               	movwf	___flmul@b+1
  6199  1497  1683               	bsf	3,5	;RP0=1, select bank1
  6200  1498  1303               	bcf	3,6	;RP1=0, select bank1
  6201  1499  0830               	movf	eval_poly@res^(0+128),w
  6202  149A  1283               	bcf	3,5	;RP0=0, select bank0
  6203  149B  1303               	bcf	3,6	;RP1=0, select bank0
  6204  149C  00C1               	movwf	___flmul@b
  6205  149D  1683               	bsf	3,5	;RP0=1, select bank1
  6206  149E  1303               	bcf	3,6	;RP1=0, select bank1
  6207  149F  0823               	movf	(eval_poly@x+3)^(0+128),w
  6208  14A0  1283               	bcf	3,5	;RP0=0, select bank0
  6209  14A1  1303               	bcf	3,6	;RP1=0, select bank0
  6210  14A2  00C8               	movwf	___flmul@a+3
  6211  14A3  1683               	bsf	3,5	;RP0=1, select bank1
  6212  14A4  1303               	bcf	3,6	;RP1=0, select bank1
  6213  14A5  0822               	movf	(eval_poly@x+2)^(0+128),w
  6214  14A6  1283               	bcf	3,5	;RP0=0, select bank0
  6215  14A7  1303               	bcf	3,6	;RP1=0, select bank0
  6216  14A8  00C7               	movwf	___flmul@a+2
  6217  14A9  1683               	bsf	3,5	;RP0=1, select bank1
  6218  14AA  1303               	bcf	3,6	;RP1=0, select bank1
  6219  14AB  0821               	movf	(eval_poly@x+1)^(0+128),w
  6220  14AC  1283               	bcf	3,5	;RP0=0, select bank0
  6221  14AD  1303               	bcf	3,6	;RP1=0, select bank0
  6222  14AE  00C6               	movwf	___flmul@a+1
  6223  14AF  1683               	bsf	3,5	;RP0=1, select bank1
  6224  14B0  1303               	bcf	3,6	;RP1=0, select bank1
  6225  14B1  0820               	movf	eval_poly@x^(0+128),w
  6226  14B2  1283               	bcf	3,5	;RP0=0, select bank0
  6227  14B3  1303               	bcf	3,6	;RP1=0, select bank0
  6228  14B4  00C5               	movwf	___flmul@a
  6229  14B5  120A  118A  203C  160A  118A  	fcall	___flmul
  6230  14BA  1283               	bcf	3,5	;RP0=0, select bank0
  6231  14BB  1303               	bcf	3,6	;RP1=0, select bank0
  6232  14BC  0844               	movf	?___flmul+3,w
  6233  14BD  00E2               	movwf	___fladd@a+3
  6234  14BE  0843               	movf	?___flmul+2,w
  6235  14BF  00E1               	movwf	___fladd@a+2
  6236  14C0  0842               	movf	?___flmul+1,w
  6237  14C1  00E0               	movwf	___fladd@a+1
  6238  14C2  0841               	movf	?___flmul,w
  6239  14C3  00DF               	movwf	___fladd@a
  6240  14C4  120A  118A  239D  160A  118A  	fcall	___fladd
  6241  14C9  1283               	bcf	3,5	;RP0=0, select bank0
  6242  14CA  1303               	bcf	3,6	;RP1=0, select bank0
  6243  14CB  085E               	movf	?___fladd+3,w
  6244  14CC  1683               	bsf	3,5	;RP0=1, select bank1
  6245  14CD  1303               	bcf	3,6	;RP1=0, select bank1
  6246  14CE  00B3               	movwf	(eval_poly@res+3)^(0+128)
  6247  14CF  1283               	bcf	3,5	;RP0=0, select bank0
  6248  14D0  1303               	bcf	3,6	;RP1=0, select bank0
  6249  14D1  085D               	movf	?___fladd+2,w
  6250  14D2  1683               	bsf	3,5	;RP0=1, select bank1
  6251  14D3  1303               	bcf	3,6	;RP1=0, select bank1
  6252  14D4  00B2               	movwf	(eval_poly@res+2)^(0+128)
  6253  14D5  1283               	bcf	3,5	;RP0=0, select bank0
  6254  14D6  1303               	bcf	3,6	;RP1=0, select bank0
  6255  14D7  085C               	movf	?___fladd+1,w
  6256  14D8  1683               	bsf	3,5	;RP0=1, select bank1
  6257  14D9  1303               	bcf	3,6	;RP1=0, select bank1
  6258  14DA  00B1               	movwf	(eval_poly@res+1)^(0+128)
  6259  14DB  1283               	bcf	3,5	;RP0=0, select bank0
  6260  14DC  1303               	bcf	3,6	;RP1=0, select bank0
  6261  14DD  085B               	movf	?___fladd,w
  6262  14DE  1683               	bsf	3,5	;RP0=1, select bank1
  6263  14DF  1303               	bcf	3,6	;RP1=0, select bank1
  6264  14E0  00B0               	movwf	eval_poly@res^(0+128)
  6265  14E1                     l2662:	
  6266  14E1  0826               	movf	eval_poly@n^(0+128),w
  6267  14E2  0427               	iorwf	(eval_poly@n+1)^(0+128),w
  6268  14E3  1D03               	btfss	3,2
  6269  14E4  2CE6               	goto	u3881
  6270  14E5  2CE7               	goto	u3880
  6271  14E6                     u3881:	
  6272  14E6  2C23               	goto	l2660
  6273  14E7                     u3880:	
  6274  14E7                     l2664:	
  6275  14E7  0833               	movf	(eval_poly@res+3)^(0+128),w
  6276  14E8  00A3               	movwf	(?_eval_poly+3)^(0+128)
  6277  14E9  0832               	movf	(eval_poly@res+2)^(0+128),w
  6278  14EA  00A2               	movwf	(?_eval_poly+2)^(0+128)
  6279  14EB  0831               	movf	(eval_poly@res+1)^(0+128),w
  6280  14EC  00A1               	movwf	(?_eval_poly+1)^(0+128)
  6281  14ED  0830               	movf	eval_poly@res^(0+128),w
  6282  14EE  00A0               	movwf	?_eval_poly^(0+128)
  6283  14EF                     l784:	
  6284  14EF  0008               	return
  6285  14F0                     __end_of_eval_poly:	
  6286                           
  6287                           	psect	text16
  6288  003C                     __ptext16:	
  6289 ;; *************** function ___flmul *****************
  6290 ;; Defined at:
  6291 ;;		line 8 in file "C:\Program Files (x86)\Microchip\xc8\v2.10\pic\sources\c90\common\sprcmul.c"
  6292 ;; Parameters:    Size  Location     Type
  6293 ;;  b               4   33[BANK0 ] int 
  6294 ;;  a               4   37[BANK0 ] int 
  6295 ;; Auto vars:     Size  Location     Type
  6296 ;;  prod            4   53[BANK0 ] struct .
  6297 ;;  grs             4   47[BANK0 ] unsigned long 
  6298 ;;  temp            2   57[BANK0 ] struct .
  6299 ;;  bexp            1   52[BANK0 ] unsigned char 
  6300 ;;  aexp            1   51[BANK0 ] unsigned char 
  6301 ;;  sign            1   46[BANK0 ] unsigned char 
  6302 ;; Return value:  Size  Location     Type
  6303 ;;                  4   33[BANK0 ] unsigned char 
  6304 ;; Registers used:
  6305 ;;		wreg, status,2, status,0, btemp+1, pclath, cstack
  6306 ;; Tracked objects:
  6307 ;;		On entry : 0/0
  6308 ;;		On exit  : 0/0
  6309 ;;		Unchanged: 0/0
  6310 ;; Data sizes:     COMMON   BANK0   BANK1   BANK3   BANK2
  6311 ;;      Params:         0       8       0       0       0
  6312 ;;      Locals:         0      13       0       0       0
  6313 ;;      Temps:          0       5       0       0       0
  6314 ;;      Totals:         0      26       0       0       0
  6315 ;;Total ram usage:       26 bytes
  6316 ;; Hardware stack levels used:    1
  6317 ;; Hardware stack levels required when called:    2
  6318 ;; This function calls:
  6319 ;;		__Umul8_16
  6320 ;; This function is called by:
  6321 ;;		_pow
  6322 ;;		_exp
  6323 ;;		_log
  6324 ;;		_eval_poly
  6325 ;; This function uses a non-reentrant model
  6326 ;;
  6327                           
  6328                           
  6329                           ;psect for function ___flmul
  6330  003C                     ___flmul:	
  6331  003C                     l2270:	
  6332                           ;incstack = 0
  6333                           ; Regs used in ___flmul: [wreg+status,2+status,0+btemp+1+pclath+cstack]
  6334                           
  6335  003C  1283               	bcf	3,5	;RP0=0, select bank0
  6336  003D  1303               	bcf	3,6	;RP1=0, select bank0
  6337  003E  0844               	movf	___flmul@b+3,w
  6338  003F  3980               	andlw	128
  6339  0040  00C9               	movwf	??___flmul
  6340  0041  0849               	movf	??___flmul,w
  6341  0042  00CE               	movwf	___flmul@sign
  6342  0043                     l2272:	
  6343  0043  0844               	movf	___flmul@b+3,w
  6344  0044  00C9               	movwf	??___flmul
  6345  0045  0749               	addwf	??___flmul,w
  6346  0046  00CA               	movwf	??___flmul+1
  6347  0047  084A               	movf	??___flmul+1,w
  6348  0048  00D4               	movwf	___flmul@bexp
  6349  0049                     l2274:	
  6350  0049  1FC3               	btfss	___flmul@b+2,7
  6351  004A  284C               	goto	u2981
  6352  004B  284D               	goto	u2980
  6353  004C                     u2981:	
  6354  004C  284E               	goto	l2278
  6355  004D                     u2980:	
  6356  004D                     l2276:	
  6357  004D  1454               	bsf	___flmul@bexp,0
  6358  004E                     l2278:	
  6359  004E  0854               	movf	___flmul@bexp,w
  6360  004F  1903               	btfsc	3,2
  6361  0050  2852               	goto	u2991
  6362  0051  2853               	goto	u2990
  6363  0052                     u2991:	
  6364  0052  2862               	goto	l2286
  6365  0053                     u2990:	
  6366  0053                     l2280:	
  6367  0053  0A54               	incf	___flmul@bexp,w
  6368  0054  1D03               	btfss	3,2
  6369  0055  2857               	goto	u3001
  6370  0056  2858               	goto	u3000
  6371  0057                     u3001:	
  6372  0057  2860               	goto	l2284
  6373  0058                     u3000:	
  6374  0058                     l2282:	
  6375  0058  3000               	movlw	0
  6376  0059  00C4               	movwf	___flmul@b+3
  6377  005A  3000               	movlw	0
  6378  005B  00C3               	movwf	___flmul@b+2
  6379  005C  3000               	movlw	0
  6380  005D  00C2               	movwf	___flmul@b+1
  6381  005E  3000               	movlw	0
  6382  005F  00C1               	movwf	___flmul@b
  6383  0060                     l2284:	
  6384  0060  17C3               	bsf	___flmul@b+2,7
  6385  0061  286A               	goto	l2288
  6386  0062                     l2286:	
  6387  0062  3000               	movlw	0
  6388  0063  00C4               	movwf	___flmul@b+3
  6389  0064  3000               	movlw	0
  6390  0065  00C3               	movwf	___flmul@b+2
  6391  0066  3000               	movlw	0
  6392  0067  00C2               	movwf	___flmul@b+1
  6393  0068  3000               	movlw	0
  6394  0069  00C1               	movwf	___flmul@b
  6395  006A                     l2288:	
  6396  006A  0848               	movf	___flmul@a+3,w
  6397  006B  3980               	andlw	128
  6398  006C  00C9               	movwf	??___flmul
  6399  006D  0849               	movf	??___flmul,w
  6400  006E  06CE               	xorwf	___flmul@sign,f
  6401  006F                     l2290:	
  6402  006F  0848               	movf	___flmul@a+3,w
  6403  0070  00C9               	movwf	??___flmul
  6404  0071  0749               	addwf	??___flmul,w
  6405  0072  00CA               	movwf	??___flmul+1
  6406  0073  084A               	movf	??___flmul+1,w
  6407  0074  00D3               	movwf	___flmul@aexp
  6408  0075                     l2292:	
  6409  0075  1FC7               	btfss	___flmul@a+2,7
  6410  0076  2878               	goto	u3011
  6411  0077  2879               	goto	u3010
  6412  0078                     u3011:	
  6413  0078  287A               	goto	l2296
  6414  0079                     u3010:	
  6415  0079                     l2294:	
  6416  0079  1453               	bsf	___flmul@aexp,0
  6417  007A                     l2296:	
  6418  007A  0853               	movf	___flmul@aexp,w
  6419  007B  1903               	btfsc	3,2
  6420  007C  287E               	goto	u3021
  6421  007D  287F               	goto	u3020
  6422  007E                     u3021:	
  6423  007E  288E               	goto	l2304
  6424  007F                     u3020:	
  6425  007F                     l2298:	
  6426  007F  0A53               	incf	___flmul@aexp,w
  6427  0080  1D03               	btfss	3,2
  6428  0081  2883               	goto	u3031
  6429  0082  2884               	goto	u3030
  6430  0083                     u3031:	
  6431  0083  288C               	goto	l2302
  6432  0084                     u3030:	
  6433  0084                     l2300:	
  6434  0084  3000               	movlw	0
  6435  0085  00C8               	movwf	___flmul@a+3
  6436  0086  3000               	movlw	0
  6437  0087  00C7               	movwf	___flmul@a+2
  6438  0088  3000               	movlw	0
  6439  0089  00C6               	movwf	___flmul@a+1
  6440  008A  3000               	movlw	0
  6441  008B  00C5               	movwf	___flmul@a
  6442  008C                     l2302:	
  6443  008C  17C7               	bsf	___flmul@a+2,7
  6444  008D  2896               	goto	l2306
  6445  008E                     l2304:	
  6446  008E  3000               	movlw	0
  6447  008F  00C8               	movwf	___flmul@a+3
  6448  0090  3000               	movlw	0
  6449  0091  00C7               	movwf	___flmul@a+2
  6450  0092  3000               	movlw	0
  6451  0093  00C6               	movwf	___flmul@a+1
  6452  0094  3000               	movlw	0
  6453  0095  00C5               	movwf	___flmul@a
  6454  0096                     l2306:	
  6455  0096  0853               	movf	___flmul@aexp,w
  6456  0097  1903               	btfsc	3,2
  6457  0098  289A               	goto	u3041
  6458  0099  289B               	goto	u3040
  6459  009A                     u3041:	
  6460  009A  28A0               	goto	l2310
  6461  009B                     u3040:	
  6462  009B                     l2308:	
  6463  009B  0854               	movf	___flmul@bexp,w
  6464  009C  1D03               	btfss	3,2
  6465  009D  289F               	goto	u3051
  6466  009E  28A0               	goto	u3050
  6467  009F                     u3051:	
  6468  009F  28A9               	goto	l2314
  6469  00A0                     u3050:	
  6470  00A0                     l2310:	
  6471  00A0  3000               	movlw	0
  6472  00A1  00C4               	movwf	?___flmul+3
  6473  00A2  3000               	movlw	0
  6474  00A3  00C3               	movwf	?___flmul+2
  6475  00A4  3000               	movlw	0
  6476  00A5  00C2               	movwf	?___flmul+1
  6477  00A6  3000               	movlw	0
  6478  00A7  00C1               	movwf	?___flmul
  6479  00A8  2B9C               	goto	l642
  6480  00A9                     l2314:	
  6481  00A9  0841               	movf	___flmul@b,w
  6482  00AA  00C9               	movwf	??___flmul
  6483  00AB  0849               	movf	??___flmul,w
  6484  00AC  00A0               	movwf	__Umul8_16@multiplicand
  6485  00AD  0847               	movf	___flmul@a+2,w
  6486  00AE  120A  158A  200B  120A  118A  	fcall	__Umul8_16
  6487  00B3  1283               	bcf	3,5	;RP0=0, select bank0
  6488  00B4  1303               	bcf	3,6	;RP1=0, select bank0
  6489  00B5  0821               	movf	?__Umul8_16+1,w
  6490  00B6  00DA               	movwf	___flmul@temp+1
  6491  00B7  0820               	movf	?__Umul8_16,w
  6492  00B8  00D9               	movwf	___flmul@temp
  6493  00B9                     l2316:	
  6494  00B9  0859               	movf	___flmul@temp,w
  6495  00BA  00C9               	movwf	??___flmul
  6496  00BB  01CA               	clrf	??___flmul+1
  6497  00BC  01CB               	clrf	??___flmul+2
  6498  00BD  01CC               	clrf	??___flmul+3
  6499  00BE  084C               	movf	??___flmul+3,w
  6500  00BF  00D2               	movwf	___flmul@grs+3
  6501  00C0  084B               	movf	??___flmul+2,w
  6502  00C1  00D1               	movwf	___flmul@grs+2
  6503  00C2  084A               	movf	??___flmul+1,w
  6504  00C3  00D0               	movwf	___flmul@grs+1
  6505  00C4  0849               	movf	??___flmul,w
  6506  00C5  00CF               	movwf	___flmul@grs
  6507  00C6                     l2318:	
  6508  00C6  085A               	movf	___flmul@temp+1,w
  6509  00C7  00C9               	movwf	??___flmul
  6510  00C8  01CA               	clrf	??___flmul+1
  6511  00C9  01CB               	clrf	??___flmul+2
  6512  00CA  01CC               	clrf	??___flmul+3
  6513  00CB  084C               	movf	??___flmul+3,w
  6514  00CC  00D8               	movwf	___flmul@prod+3
  6515  00CD  084B               	movf	??___flmul+2,w
  6516  00CE  00D7               	movwf	___flmul@prod+2
  6517  00CF  084A               	movf	??___flmul+1,w
  6518  00D0  00D6               	movwf	___flmul@prod+1
  6519  00D1  0849               	movf	??___flmul,w
  6520  00D2  00D5               	movwf	___flmul@prod
  6521  00D3  0842               	movf	___flmul@b+1,w
  6522  00D4  00C9               	movwf	??___flmul
  6523  00D5  0849               	movf	??___flmul,w
  6524  00D6  00A0               	movwf	__Umul8_16@multiplicand
  6525  00D7  0846               	movf	___flmul@a+1,w
  6526  00D8  120A  158A  200B  120A  118A  	fcall	__Umul8_16
  6527  00DD  1283               	bcf	3,5	;RP0=0, select bank0
  6528  00DE  1303               	bcf	3,6	;RP1=0, select bank0
  6529  00DF  0821               	movf	?__Umul8_16+1,w
  6530  00E0  00DA               	movwf	___flmul@temp+1
  6531  00E1  0820               	movf	?__Umul8_16,w
  6532  00E2  00D9               	movwf	___flmul@temp
  6533  00E3                     l2320:	
  6534  00E3  0859               	movf	___flmul@temp,w
  6535  00E4  00C9               	movwf	??___flmul
  6536  00E5  01CA               	clrf	??___flmul+1
  6537  00E6  01CB               	clrf	??___flmul+2
  6538  00E7  01CC               	clrf	??___flmul+3
  6539  00E8  0849               	movf	??___flmul,w
  6540  00E9  07CF               	addwf	___flmul@grs,f
  6541  00EA  084A               	movf	??___flmul+1,w
  6542  00EB  1103               	clrz
  6543  00EC  1803               	skipnc
  6544  00ED  3E01               	addlw	1
  6545  00EE  1903               	skipnz
  6546  00EF  28F1               	goto	u3061
  6547  00F0  07D0               	addwf	___flmul@grs+1,f
  6548  00F1                     u3061:	
  6549  00F1  084B               	movf	??___flmul+2,w
  6550  00F2  1103               	clrz
  6551  00F3  1803               	skipnc
  6552  00F4  3E01               	addlw	1
  6553  00F5  1903               	skipnz
  6554  00F6  28F8               	goto	u3062
  6555  00F7  07D1               	addwf	___flmul@grs+2,f
  6556  00F8                     u3062:	
  6557  00F8  084C               	movf	??___flmul+3,w
  6558  00F9  1103               	clrz
  6559  00FA  1803               	skipnc
  6560  00FB  3E01               	addlw	1
  6561  00FC  1903               	skipnz
  6562  00FD  28FF               	goto	u3063
  6563  00FE  07D2               	addwf	___flmul@grs+3,f
  6564  00FF                     u3063:	
  6565  00FF                     l2322:	
  6566  00FF  085A               	movf	___flmul@temp+1,w
  6567  0100  00C9               	movwf	??___flmul
  6568  0101  01CA               	clrf	??___flmul+1
  6569  0102  01CB               	clrf	??___flmul+2
  6570  0103  01CC               	clrf	??___flmul+3
  6571  0104  0849               	movf	??___flmul,w
  6572  0105  07D5               	addwf	___flmul@prod,f
  6573  0106  084A               	movf	??___flmul+1,w
  6574  0107  1103               	clrz
  6575  0108  1803               	skipnc
  6576  0109  3E01               	addlw	1
  6577  010A  1903               	skipnz
  6578  010B  290D               	goto	u3071
  6579  010C  07D6               	addwf	___flmul@prod+1,f
  6580  010D                     u3071:	
  6581  010D  084B               	movf	??___flmul+2,w
  6582  010E  1103               	clrz
  6583  010F  1803               	skipnc
  6584  0110  3E01               	addlw	1
  6585  0111  1903               	skipnz
  6586  0112  2914               	goto	u3072
  6587  0113  07D7               	addwf	___flmul@prod+2,f
  6588  0114                     u3072:	
  6589  0114  084C               	movf	??___flmul+3,w
  6590  0115  1103               	clrz
  6591  0116  1803               	skipnc
  6592  0117  3E01               	addlw	1
  6593  0118  1903               	skipnz
  6594  0119  291B               	goto	u3073
  6595  011A  07D8               	addwf	___flmul@prod+3,f
  6596  011B                     u3073:	
  6597  011B  0843               	movf	___flmul@b+2,w
  6598  011C  00C9               	movwf	??___flmul
  6599  011D  0849               	movf	??___flmul,w
  6600  011E  00A0               	movwf	__Umul8_16@multiplicand
  6601  011F  0845               	movf	___flmul@a,w
  6602  0120  120A  158A  200B  120A  118A  	fcall	__Umul8_16
  6603  0125  1283               	bcf	3,5	;RP0=0, select bank0
  6604  0126  1303               	bcf	3,6	;RP1=0, select bank0
  6605  0127  0821               	movf	?__Umul8_16+1,w
  6606  0128  00DA               	movwf	___flmul@temp+1
  6607  0129  0820               	movf	?__Umul8_16,w
  6608  012A  00D9               	movwf	___flmul@temp
  6609  012B                     l2324:	
  6610  012B  0859               	movf	___flmul@temp,w
  6611  012C  00C9               	movwf	??___flmul
  6612  012D  01CA               	clrf	??___flmul+1
  6613  012E  01CB               	clrf	??___flmul+2
  6614  012F  01CC               	clrf	??___flmul+3
  6615  0130  0849               	movf	??___flmul,w
  6616  0131  07CF               	addwf	___flmul@grs,f
  6617  0132  084A               	movf	??___flmul+1,w
  6618  0133  1103               	clrz
  6619  0134  1803               	skipnc
  6620  0135  3E01               	addlw	1
  6621  0136  1903               	skipnz
  6622  0137  2939               	goto	u3081
  6623  0138  07D0               	addwf	___flmul@grs+1,f
  6624  0139                     u3081:	
  6625  0139  084B               	movf	??___flmul+2,w
  6626  013A  1103               	clrz
  6627  013B  1803               	skipnc
  6628  013C  3E01               	addlw	1
  6629  013D  1903               	skipnz
  6630  013E  2940               	goto	u3082
  6631  013F  07D1               	addwf	___flmul@grs+2,f
  6632  0140                     u3082:	
  6633  0140  084C               	movf	??___flmul+3,w
  6634  0141  1103               	clrz
  6635  0142  1803               	skipnc
  6636  0143  3E01               	addlw	1
  6637  0144  1903               	skipnz
  6638  0145  2947               	goto	u3083
  6639  0146  07D2               	addwf	___flmul@grs+3,f
  6640  0147                     u3083:	
  6641  0147                     l2326:	
  6642  0147  085A               	movf	___flmul@temp+1,w
  6643  0148  00C9               	movwf	??___flmul
  6644  0149  01CA               	clrf	??___flmul+1
  6645  014A  01CB               	clrf	??___flmul+2
  6646  014B  01CC               	clrf	??___flmul+3
  6647  014C  0849               	movf	??___flmul,w
  6648  014D  07D5               	addwf	___flmul@prod,f
  6649  014E  084A               	movf	??___flmul+1,w
  6650  014F  1103               	clrz
  6651  0150  1803               	skipnc
  6652  0151  3E01               	addlw	1
  6653  0152  1903               	skipnz
  6654  0153  2955               	goto	u3091
  6655  0154  07D6               	addwf	___flmul@prod+1,f
  6656  0155                     u3091:	
  6657  0155  084B               	movf	??___flmul+2,w
  6658  0156  1103               	clrz
  6659  0157  1803               	skipnc
  6660  0158  3E01               	addlw	1
  6661  0159  1903               	skipnz
  6662  015A  295C               	goto	u3092
  6663  015B  07D7               	addwf	___flmul@prod+2,f
  6664  015C                     u3092:	
  6665  015C  084C               	movf	??___flmul+3,w
  6666  015D  1103               	clrz
  6667  015E  1803               	skipnc
  6668  015F  3E01               	addlw	1
  6669  0160  1903               	skipnz
  6670  0161  2963               	goto	u3093
  6671  0162  07D8               	addwf	___flmul@prod+3,f
  6672  0163                     u3093:	
  6673  0163                     l2328:	
  6674  0163  3008               	movlw	8
  6675  0164  00C9               	movwf	??___flmul
  6676  0165                     u3105:	
  6677  0165  1003               	clrc
  6678  0166  0DCF               	rlf	___flmul@grs,f
  6679  0167  0DD0               	rlf	___flmul@grs+1,f
  6680  0168  0DD1               	rlf	___flmul@grs+2,f
  6681  0169  0DD2               	rlf	___flmul@grs+3,f
  6682  016A  0BC9               	decfsz	??___flmul,f
  6683  016B  2965               	goto	u3105
  6684  016C                     l2330:	
  6685  016C  0842               	movf	___flmul@b+1,w
  6686  016D  00C9               	movwf	??___flmul
  6687  016E  0849               	movf	??___flmul,w
  6688  016F  00A0               	movwf	__Umul8_16@multiplicand
  6689  0170  0845               	movf	___flmul@a,w
  6690  0171  120A  158A  200B  120A  118A  	fcall	__Umul8_16
  6691  0176  1283               	bcf	3,5	;RP0=0, select bank0
  6692  0177  1303               	bcf	3,6	;RP1=0, select bank0
  6693  0178  0821               	movf	?__Umul8_16+1,w
  6694  0179  00DA               	movwf	___flmul@temp+1
  6695  017A  0820               	movf	?__Umul8_16,w
  6696  017B  00D9               	movwf	___flmul@temp
  6697  017C                     l2332:	
  6698  017C  0859               	movf	___flmul@temp,w
  6699  017D  00C9               	movwf	??___flmul
  6700  017E  085A               	movf	___flmul@temp+1,w
  6701  017F  00CA               	movwf	??___flmul+1
  6702  0180  01CB               	clrf	??___flmul+2
  6703  0181  01CC               	clrf	??___flmul+3
  6704  0182  0849               	movf	??___flmul,w
  6705  0183  07CF               	addwf	___flmul@grs,f
  6706  0184  084A               	movf	??___flmul+1,w
  6707  0185  1103               	clrz
  6708  0186  1803               	skipnc
  6709  0187  3E01               	addlw	1
  6710  0188  1903               	skipnz
  6711  0189  298B               	goto	u3111
  6712  018A  07D0               	addwf	___flmul@grs+1,f
  6713  018B                     u3111:	
  6714  018B  084B               	movf	??___flmul+2,w
  6715  018C  1103               	clrz
  6716  018D  1803               	skipnc
  6717  018E  3E01               	addlw	1
  6718  018F  1903               	skipnz
  6719  0190  2992               	goto	u3112
  6720  0191  07D1               	addwf	___flmul@grs+2,f
  6721  0192                     u3112:	
  6722  0192  084C               	movf	??___flmul+3,w
  6723  0193  1103               	clrz
  6724  0194  1803               	skipnc
  6725  0195  3E01               	addlw	1
  6726  0196  1903               	skipnz
  6727  0197  2999               	goto	u3113
  6728  0198  07D2               	addwf	___flmul@grs+3,f
  6729  0199                     u3113:	
  6730  0199                     l2334:	
  6731  0199  0841               	movf	___flmul@b,w
  6732  019A  00C9               	movwf	??___flmul
  6733  019B  0849               	movf	??___flmul,w
  6734  019C  00A0               	movwf	__Umul8_16@multiplicand
  6735  019D  0846               	movf	___flmul@a+1,w
  6736  019E  120A  158A  200B  120A  118A  	fcall	__Umul8_16
  6737  01A3  1283               	bcf	3,5	;RP0=0, select bank0
  6738  01A4  1303               	bcf	3,6	;RP1=0, select bank0
  6739  01A5  0821               	movf	?__Umul8_16+1,w
  6740  01A6  00DA               	movwf	___flmul@temp+1
  6741  01A7  0820               	movf	?__Umul8_16,w
  6742  01A8  00D9               	movwf	___flmul@temp
  6743  01A9                     l2336:	
  6744  01A9  0859               	movf	___flmul@temp,w
  6745  01AA  00C9               	movwf	??___flmul
  6746  01AB  085A               	movf	___flmul@temp+1,w
  6747  01AC  00CA               	movwf	??___flmul+1
  6748  01AD  01CB               	clrf	??___flmul+2
  6749  01AE  01CC               	clrf	??___flmul+3
  6750  01AF  0849               	movf	??___flmul,w
  6751  01B0  07CF               	addwf	___flmul@grs,f
  6752  01B1  084A               	movf	??___flmul+1,w
  6753  01B2  1103               	clrz
  6754  01B3  1803               	skipnc
  6755  01B4  3E01               	addlw	1
  6756  01B5  1903               	skipnz
  6757  01B6  29B8               	goto	u3121
  6758  01B7  07D0               	addwf	___flmul@grs+1,f
  6759  01B8                     u3121:	
  6760  01B8  084B               	movf	??___flmul+2,w
  6761  01B9  1103               	clrz
  6762  01BA  1803               	skipnc
  6763  01BB  3E01               	addlw	1
  6764  01BC  1903               	skipnz
  6765  01BD  29BF               	goto	u3122
  6766  01BE  07D1               	addwf	___flmul@grs+2,f
  6767  01BF                     u3122:	
  6768  01BF  084C               	movf	??___flmul+3,w
  6769  01C0  1103               	clrz
  6770  01C1  1803               	skipnc
  6771  01C2  3E01               	addlw	1
  6772  01C3  1903               	skipnz
  6773  01C4  29C6               	goto	u3123
  6774  01C5  07D2               	addwf	___flmul@grs+3,f
  6775  01C6                     u3123:	
  6776  01C6                     l2338:	
  6777  01C6  3008               	movlw	8
  6778  01C7  00C9               	movwf	??___flmul
  6779  01C8                     u3135:	
  6780  01C8  1003               	clrc
  6781  01C9  0DCF               	rlf	___flmul@grs,f
  6782  01CA  0DD0               	rlf	___flmul@grs+1,f
  6783  01CB  0DD1               	rlf	___flmul@grs+2,f
  6784  01CC  0DD2               	rlf	___flmul@grs+3,f
  6785  01CD  0BC9               	decfsz	??___flmul,f
  6786  01CE  29C8               	goto	u3135
  6787  01CF  0841               	movf	___flmul@b,w
  6788  01D0  00C9               	movwf	??___flmul
  6789  01D1  0849               	movf	??___flmul,w
  6790  01D2  00A0               	movwf	__Umul8_16@multiplicand
  6791  01D3  0845               	movf	___flmul@a,w
  6792  01D4  120A  158A  200B  120A  118A  	fcall	__Umul8_16
  6793  01D9  1283               	bcf	3,5	;RP0=0, select bank0
  6794  01DA  1303               	bcf	3,6	;RP1=0, select bank0
  6795  01DB  0821               	movf	?__Umul8_16+1,w
  6796  01DC  00DA               	movwf	___flmul@temp+1
  6797  01DD  0820               	movf	?__Umul8_16,w
  6798  01DE  00D9               	movwf	___flmul@temp
  6799  01DF                     l2340:	
  6800  01DF  0859               	movf	___flmul@temp,w
  6801  01E0  00C9               	movwf	??___flmul
  6802  01E1  085A               	movf	___flmul@temp+1,w
  6803  01E2  00CA               	movwf	??___flmul+1
  6804  01E3  01CB               	clrf	??___flmul+2
  6805  01E4  01CC               	clrf	??___flmul+3
  6806  01E5  0849               	movf	??___flmul,w
  6807  01E6  07CF               	addwf	___flmul@grs,f
  6808  01E7  084A               	movf	??___flmul+1,w
  6809  01E8  1103               	clrz
  6810  01E9  1803               	skipnc
  6811  01EA  3E01               	addlw	1
  6812  01EB  1903               	skipnz
  6813  01EC  29EE               	goto	u3141
  6814  01ED  07D0               	addwf	___flmul@grs+1,f
  6815  01EE                     u3141:	
  6816  01EE  084B               	movf	??___flmul+2,w
  6817  01EF  1103               	clrz
  6818  01F0  1803               	skipnc
  6819  01F1  3E01               	addlw	1
  6820  01F2  1903               	skipnz
  6821  01F3  29F5               	goto	u3142
  6822  01F4  07D1               	addwf	___flmul@grs+2,f
  6823  01F5                     u3142:	
  6824  01F5  084C               	movf	??___flmul+3,w
  6825  01F6  1103               	clrz
  6826  01F7  1803               	skipnc
  6827  01F8  3E01               	addlw	1
  6828  01F9  1903               	skipnz
  6829  01FA  29FC               	goto	u3143
  6830  01FB  07D2               	addwf	___flmul@grs+3,f
  6831  01FC                     u3143:	
  6832  01FC                     l2342:	
  6833  01FC  0842               	movf	___flmul@b+1,w
  6834  01FD  00C9               	movwf	??___flmul
  6835  01FE  0849               	movf	??___flmul,w
  6836  01FF  00A0               	movwf	__Umul8_16@multiplicand
  6837  0200  0847               	movf	___flmul@a+2,w
  6838  0201  120A  158A  200B  120A  118A  	fcall	__Umul8_16
  6839  0206  1283               	bcf	3,5	;RP0=0, select bank0
  6840  0207  1303               	bcf	3,6	;RP1=0, select bank0
  6841  0208  0821               	movf	?__Umul8_16+1,w
  6842  0209  00DA               	movwf	___flmul@temp+1
  6843  020A  0820               	movf	?__Umul8_16,w
  6844  020B  00D9               	movwf	___flmul@temp
  6845  020C  0859               	movf	___flmul@temp,w
  6846  020D  00C9               	movwf	??___flmul
  6847  020E  085A               	movf	___flmul@temp+1,w
  6848  020F  00CA               	movwf	??___flmul+1
  6849  0210  01CB               	clrf	??___flmul+2
  6850  0211  01CC               	clrf	??___flmul+3
  6851  0212  0849               	movf	??___flmul,w
  6852  0213  07D5               	addwf	___flmul@prod,f
  6853  0214  084A               	movf	??___flmul+1,w
  6854  0215  1103               	clrz
  6855  0216  1803               	skipnc
  6856  0217  3E01               	addlw	1
  6857  0218  1903               	skipnz
  6858  0219  2A1B               	goto	u3151
  6859  021A  07D6               	addwf	___flmul@prod+1,f
  6860  021B                     u3151:	
  6861  021B  084B               	movf	??___flmul+2,w
  6862  021C  1103               	clrz
  6863  021D  1803               	skipnc
  6864  021E  3E01               	addlw	1
  6865  021F  1903               	skipnz
  6866  0220  2A22               	goto	u3152
  6867  0221  07D7               	addwf	___flmul@prod+2,f
  6868  0222                     u3152:	
  6869  0222  084C               	movf	??___flmul+3,w
  6870  0223  1103               	clrz
  6871  0224  1803               	skipnc
  6872  0225  3E01               	addlw	1
  6873  0226  1903               	skipnz
  6874  0227  2A29               	goto	u3153
  6875  0228  07D8               	addwf	___flmul@prod+3,f
  6876  0229                     u3153:	
  6877  0229                     l2344:	
  6878  0229  0843               	movf	___flmul@b+2,w
  6879  022A  00C9               	movwf	??___flmul
  6880  022B  0849               	movf	??___flmul,w
  6881  022C  00A0               	movwf	__Umul8_16@multiplicand
  6882  022D  0846               	movf	___flmul@a+1,w
  6883  022E  120A  158A  200B  120A  118A  	fcall	__Umul8_16
  6884  0233  1283               	bcf	3,5	;RP0=0, select bank0
  6885  0234  1303               	bcf	3,6	;RP1=0, select bank0
  6886  0235  0821               	movf	?__Umul8_16+1,w
  6887  0236  00DA               	movwf	___flmul@temp+1
  6888  0237  0820               	movf	?__Umul8_16,w
  6889  0238  00D9               	movwf	___flmul@temp
  6890  0239                     l2346:	
  6891  0239  0859               	movf	___flmul@temp,w
  6892  023A  00C9               	movwf	??___flmul
  6893  023B  085A               	movf	___flmul@temp+1,w
  6894  023C  00CA               	movwf	??___flmul+1
  6895  023D  01CB               	clrf	??___flmul+2
  6896  023E  01CC               	clrf	??___flmul+3
  6897  023F  0849               	movf	??___flmul,w
  6898  0240  07D5               	addwf	___flmul@prod,f
  6899  0241  084A               	movf	??___flmul+1,w
  6900  0242  1103               	clrz
  6901  0243  1803               	skipnc
  6902  0244  3E01               	addlw	1
  6903  0245  1903               	skipnz
  6904  0246  2A48               	goto	u3161
  6905  0247  07D6               	addwf	___flmul@prod+1,f
  6906  0248                     u3161:	
  6907  0248  084B               	movf	??___flmul+2,w
  6908  0249  1103               	clrz
  6909  024A  1803               	skipnc
  6910  024B  3E01               	addlw	1
  6911  024C  1903               	skipnz
  6912  024D  2A4F               	goto	u3162
  6913  024E  07D7               	addwf	___flmul@prod+2,f
  6914  024F                     u3162:	
  6915  024F  084C               	movf	??___flmul+3,w
  6916  0250  1103               	clrz
  6917  0251  1803               	skipnc
  6918  0252  3E01               	addlw	1
  6919  0253  1903               	skipnz
  6920  0254  2A56               	goto	u3163
  6921  0255  07D8               	addwf	___flmul@prod+3,f
  6922  0256                     u3163:	
  6923  0256  0843               	movf	___flmul@b+2,w
  6924  0257  00C9               	movwf	??___flmul
  6925  0258  0849               	movf	??___flmul,w
  6926  0259  00A0               	movwf	__Umul8_16@multiplicand
  6927  025A  0847               	movf	___flmul@a+2,w
  6928  025B  120A  158A  200B  120A  118A  	fcall	__Umul8_16
  6929  0260  1283               	bcf	3,5	;RP0=0, select bank0
  6930  0261  1303               	bcf	3,6	;RP1=0, select bank0
  6931  0262  0821               	movf	?__Umul8_16+1,w
  6932  0263  00DA               	movwf	___flmul@temp+1
  6933  0264  0820               	movf	?__Umul8_16,w
  6934  0265  00D9               	movwf	___flmul@temp
  6935  0266                     l2348:	
  6936  0266  0859               	movf	___flmul@temp,w
  6937  0267  00C9               	movwf	??___flmul
  6938  0268  085A               	movf	___flmul@temp+1,w
  6939  0269  00CA               	movwf	??___flmul+1
  6940  026A  01CB               	clrf	??___flmul+2
  6941  026B  01CC               	clrf	??___flmul+3
  6942  026C  3008               	movlw	8
  6943  026D                     u3175:	
  6944  026D  1003               	clrc
  6945  026E  0DC9               	rlf	??___flmul,f
  6946  026F  0DCA               	rlf	??___flmul+1,f
  6947  0270  0DCB               	rlf	??___flmul+2,f
  6948  0271  0DCC               	rlf	??___flmul+3,f
  6949  0272                     u3170:	
  6950  0272  3EFF               	addlw	-1
  6951  0273  1D03               	skipz
  6952  0274  2A6D               	goto	u3175
  6953  0275  0849               	movf	??___flmul,w
  6954  0276  07D5               	addwf	___flmul@prod,f
  6955  0277  084A               	movf	??___flmul+1,w
  6956  0278  1103               	clrz
  6957  0279  1803               	skipnc
  6958  027A  3E01               	addlw	1
  6959  027B  1903               	skipnz
  6960  027C  2A7E               	goto	u3181
  6961  027D  07D6               	addwf	___flmul@prod+1,f
  6962  027E                     u3181:	
  6963  027E  084B               	movf	??___flmul+2,w
  6964  027F  1103               	clrz
  6965  0280  1803               	skipnc
  6966  0281  3E01               	addlw	1
  6967  0282  1903               	skipnz
  6968  0283  2A85               	goto	u3182
  6969  0284  07D7               	addwf	___flmul@prod+2,f
  6970  0285                     u3182:	
  6971  0285  084C               	movf	??___flmul+3,w
  6972  0286  1103               	clrz
  6973  0287  1803               	skipnc
  6974  0288  3E01               	addlw	1
  6975  0289  1903               	skipnz
  6976  028A  2A8C               	goto	u3183
  6977  028B  07D8               	addwf	___flmul@prod+3,f
  6978  028C                     u3183:	
  6979  028C                     l2350:	
  6980  028C  084F               	movf	___flmul@grs,w
  6981  028D  00C9               	movwf	??___flmul
  6982  028E  0850               	movf	___flmul@grs+1,w
  6983  028F  00CA               	movwf	??___flmul+1
  6984  0290  0851               	movf	___flmul@grs+2,w
  6985  0291  00CB               	movwf	??___flmul+2
  6986  0292  0852               	movf	___flmul@grs+3,w
  6987  0293  00CC               	movwf	??___flmul+3
  6988  0294  3018               	movlw	24
  6989  0295                     u3195:	
  6990  0295  1003               	clrc
  6991  0296  0CCC               	rrf	??___flmul+3,f
  6992  0297  0CCB               	rrf	??___flmul+2,f
  6993  0298  0CCA               	rrf	??___flmul+1,f
  6994  0299  0CC9               	rrf	??___flmul,f
  6995  029A                     u3190:	
  6996  029A  3EFF               	addlw	-1
  6997  029B  1D03               	skipz
  6998  029C  2A95               	goto	u3195
  6999  029D  0849               	movf	??___flmul,w
  7000  029E  07D5               	addwf	___flmul@prod,f
  7001  029F  084A               	movf	??___flmul+1,w
  7002  02A0  1103               	clrz
  7003  02A1  1803               	skipnc
  7004  02A2  3E01               	addlw	1
  7005  02A3  1903               	skipnz
  7006  02A4  2AA6               	goto	u3201
  7007  02A5  07D6               	addwf	___flmul@prod+1,f
  7008  02A6                     u3201:	
  7009  02A6  084B               	movf	??___flmul+2,w
  7010  02A7  1103               	clrz
  7011  02A8  1803               	skipnc
  7012  02A9  3E01               	addlw	1
  7013  02AA  1903               	skipnz
  7014  02AB  2AAD               	goto	u3202
  7015  02AC  07D7               	addwf	___flmul@prod+2,f
  7016  02AD                     u3202:	
  7017  02AD  084C               	movf	??___flmul+3,w
  7018  02AE  1103               	clrz
  7019  02AF  1803               	skipnc
  7020  02B0  3E01               	addlw	1
  7021  02B1  1903               	skipnz
  7022  02B2  2AB4               	goto	u3203
  7023  02B3  07D8               	addwf	___flmul@prod+3,f
  7024  02B4                     u3203:	
  7025  02B4                     l2352:	
  7026  02B4  3008               	movlw	8
  7027  02B5  00C9               	movwf	??___flmul
  7028  02B6                     u3215:	
  7029  02B6  1003               	clrc
  7030  02B7  0DCF               	rlf	___flmul@grs,f
  7031  02B8  0DD0               	rlf	___flmul@grs+1,f
  7032  02B9  0DD1               	rlf	___flmul@grs+2,f
  7033  02BA  0DD2               	rlf	___flmul@grs+3,f
  7034  02BB  0BC9               	decfsz	??___flmul,f
  7035  02BC  2AB6               	goto	u3215
  7036  02BD                     l2354:	
  7037  02BD  0854               	movf	___flmul@bexp,w
  7038  02BE  0753               	addwf	___flmul@aexp,w
  7039  02BF  00C9               	movwf	??___flmul
  7040  02C0  01CA               	clrf	??___flmul+1
  7041  02C1  0DCA               	rlf	??___flmul+1,f
  7042  02C2  0849               	movf	??___flmul,w
  7043  02C3  3E82               	addlw	130
  7044  02C4  00D9               	movwf	___flmul@temp
  7045  02C5  084A               	movf	??___flmul+1,w
  7046  02C6  1803               	skipnc
  7047  02C7  3E01               	addlw	1
  7048  02C8  3EFF               	addlw	255
  7049  02C9  00DA               	movwf	___flmul@temp+1
  7050  02CA  2AE8               	goto	l2366
  7051  02CB                     l2356:	
  7052  02CB  3001               	movlw	1
  7053  02CC  00C9               	movwf	??___flmul
  7054  02CD                     u3225:	
  7055  02CD  1003               	clrc
  7056  02CE  0DD5               	rlf	___flmul@prod,f
  7057  02CF  0DD6               	rlf	___flmul@prod+1,f
  7058  02D0  0DD7               	rlf	___flmul@prod+2,f
  7059  02D1  0DD8               	rlf	___flmul@prod+3,f
  7060  02D2  0BC9               	decfsz	??___flmul,f
  7061  02D3  2ACD               	goto	u3225
  7062  02D4                     l2358:	
  7063  02D4  1FD2               	btfss	___flmul@grs+3,7
  7064  02D5  2AD7               	goto	u3231
  7065  02D6  2AD8               	goto	u3230
  7066  02D7                     u3231:	
  7067  02D7  2AD9               	goto	l2362
  7068  02D8                     u3230:	
  7069  02D8                     l2360:	
  7070  02D8  1455               	bsf	___flmul@prod,0
  7071  02D9                     l2362:	
  7072  02D9  3001               	movlw	1
  7073  02DA  00C9               	movwf	??___flmul
  7074  02DB                     u3245:	
  7075  02DB  1003               	clrc
  7076  02DC  0DCF               	rlf	___flmul@grs,f
  7077  02DD  0DD0               	rlf	___flmul@grs+1,f
  7078  02DE  0DD1               	rlf	___flmul@grs+2,f
  7079  02DF  0DD2               	rlf	___flmul@grs+3,f
  7080  02E0  0BC9               	decfsz	??___flmul,f
  7081  02E1  2ADB               	goto	u3245
  7082  02E2                     l2364:	
  7083  02E2  30FF               	movlw	255
  7084  02E3  07D9               	addwf	___flmul@temp,f
  7085  02E4  1803               	skipnc
  7086  02E5  0ADA               	incf	___flmul@temp+1,f
  7087  02E6  30FF               	movlw	255
  7088  02E7  07DA               	addwf	___flmul@temp+1,f
  7089  02E8                     l2366:	
  7090  02E8  1FD7               	btfss	___flmul@prod+2,7
  7091  02E9  2AEB               	goto	u3251
  7092  02EA  2AEC               	goto	u3250
  7093  02EB                     u3251:	
  7094  02EB  2ACB               	goto	l2356
  7095  02EC                     u3250:	
  7096  02EC                     l2368:	
  7097  02EC  01D3               	clrf	___flmul@aexp
  7098  02ED                     l2370:	
  7099  02ED  1FD2               	btfss	___flmul@grs+3,7
  7100  02EE  2AF0               	goto	u3261
  7101  02EF  2AF1               	goto	u3260
  7102  02F0                     u3261:	
  7103  02F0  2B0D               	goto	l2378
  7104  02F1                     u3260:	
  7105  02F1                     l2372:	
  7106  02F1  30FF               	movlw	255
  7107  02F2  054F               	andwf	___flmul@grs,w
  7108  02F3  00C9               	movwf	??___flmul
  7109  02F4  30FF               	movlw	255
  7110  02F5  0550               	andwf	___flmul@grs+1,w
  7111  02F6  00CA               	movwf	??___flmul+1
  7112  02F7  30FF               	movlw	255
  7113  02F8  0551               	andwf	___flmul@grs+2,w
  7114  02F9  00CB               	movwf	??___flmul+2
  7115  02FA  307F               	movlw	127
  7116  02FB  0552               	andwf	___flmul@grs+3,w
  7117  02FC  00CC               	movwf	??___flmul+3
  7118  02FD  084C               	movf	??___flmul+3,w
  7119  02FE  044B               	iorwf	??___flmul+2,w
  7120  02FF  044A               	iorwf	??___flmul+1,w
  7121  0300  0449               	iorwf	??___flmul,w
  7122  0301  1903               	skipnz
  7123  0302  2B04               	goto	u3271
  7124  0303  2B05               	goto	u3270
  7125  0304                     u3271:	
  7126  0304  2B08               	goto	l648
  7127  0305                     u3270:	
  7128  0305                     l2374:	
  7129  0305  01D3               	clrf	___flmul@aexp
  7130  0306  0AD3               	incf	___flmul@aexp,f
  7131  0307  2B0D               	goto	l2378
  7132  0308                     l648:	
  7133  0308  1C55               	btfss	___flmul@prod,0
  7134  0309  2B0B               	goto	u3281
  7135  030A  2B0C               	goto	u3280
  7136  030B                     u3281:	
  7137  030B  2B0D               	goto	l2378
  7138  030C                     u3280:	
  7139  030C  2B05               	goto	l2374
  7140  030D                     l2378:	
  7141  030D  0853               	movf	___flmul@aexp,w
  7142  030E  1903               	btfsc	3,2
  7143  030F  2B11               	goto	u3291
  7144  0310  2B12               	goto	u3290
  7145  0311                     u3291:	
  7146  0311  2B43               	goto	l2388
  7147  0312                     u3290:	
  7148  0312                     l2380:	
  7149  0312  3001               	movlw	1
  7150  0313  07D5               	addwf	___flmul@prod,f
  7151  0314  3000               	movlw	0
  7152  0315  1803               	skipnc
  7153  0316  3001               	movlw	1
  7154  0317  07D6               	addwf	___flmul@prod+1,f
  7155  0318  3000               	movlw	0
  7156  0319  1803               	skipnc
  7157  031A  3001               	movlw	1
  7158  031B  07D7               	addwf	___flmul@prod+2,f
  7159  031C  3000               	movlw	0
  7160  031D  1803               	skipnc
  7161  031E  3001               	movlw	1
  7162  031F  07D8               	addwf	___flmul@prod+3,f
  7163  0320                     l2382:	
  7164  0320  1C58               	btfss	___flmul@prod+3,0
  7165  0321  2B23               	goto	u3301
  7166  0322  2B24               	goto	u3300
  7167  0323                     u3301:	
  7168  0323  2B43               	goto	l2388
  7169  0324                     u3300:	
  7170  0324                     l2384:	
  7171  0324  0855               	movf	___flmul@prod,w
  7172  0325  00C9               	movwf	??___flmul
  7173  0326  0856               	movf	___flmul@prod+1,w
  7174  0327  00CA               	movwf	??___flmul+1
  7175  0328  0857               	movf	___flmul@prod+2,w
  7176  0329  00CB               	movwf	??___flmul+2
  7177  032A  0858               	movf	___flmul@prod+3,w
  7178  032B  00CC               	movwf	??___flmul+3
  7179  032C  3001               	movlw	1
  7180  032D  00CD               	movwf	??___flmul+4
  7181  032E                     u3315:	
  7182  032E  0D4C               	rlf	??___flmul+3,w
  7183  032F  0CCC               	rrf	??___flmul+3,f
  7184  0330  0CCB               	rrf	??___flmul+2,f
  7185  0331  0CCA               	rrf	??___flmul+1,f
  7186  0332  0CC9               	rrf	??___flmul,f
  7187  0333                     u3310:	
  7188  0333  0BCD               	decfsz	??___flmul+4,f
  7189  0334  2B2E               	goto	u3315
  7190  0335  084C               	movf	??___flmul+3,w
  7191  0336  00D8               	movwf	___flmul@prod+3
  7192  0337  084B               	movf	??___flmul+2,w
  7193  0338  00D7               	movwf	___flmul@prod+2
  7194  0339  084A               	movf	??___flmul+1,w
  7195  033A  00D6               	movwf	___flmul@prod+1
  7196  033B  0849               	movf	??___flmul,w
  7197  033C  00D5               	movwf	___flmul@prod
  7198  033D                     l2386:	
  7199  033D  3001               	movlw	1
  7200  033E  07D9               	addwf	___flmul@temp,f
  7201  033F  1803               	skipnc
  7202  0340  0ADA               	incf	___flmul@temp+1,f
  7203  0341  3000               	movlw	0
  7204  0342  07DA               	addwf	___flmul@temp+1,f
  7205  0343                     l2388:	
  7206  0343  085A               	movf	___flmul@temp+1,w
  7207  0344  3A80               	xorlw	128
  7208  0345  00FF               	movwf	btemp+1
  7209  0346  3080               	movlw	128
  7210  0347  027F               	subwf	btemp+1,w
  7211  0348  1D03               	skipz
  7212  0349  2B4C               	goto	u3325
  7213  034A  30FF               	movlw	255
  7214  034B  0259               	subwf	___flmul@temp,w
  7215  034C                     u3325:	
  7216  034C  1C03               	skipc
  7217  034D  2B4F               	goto	u3321
  7218  034E  2B50               	goto	u3320
  7219  034F                     u3321:	
  7220  034F  2B5B               	goto	l2392
  7221  0350                     u3320:	
  7222  0350                     l2390:	
  7223  0350  307F               	movlw	127
  7224  0351  1283               	bcf	3,5	;RP0=0, select bank0
  7225  0352  1303               	bcf	3,6	;RP1=0, select bank0
  7226  0353  00D8               	movwf	___flmul@prod+3
  7227  0354  3080               	movlw	128
  7228  0355  00D7               	movwf	___flmul@prod+2
  7229  0356  3000               	movlw	0
  7230  0357  00D6               	movwf	___flmul@prod+1
  7231  0358  3000               	movlw	0
  7232  0359  00D5               	movwf	___flmul@prod
  7233  035A  2B90               	goto	l654
  7234  035B                     l2392:	
  7235  035B  1283               	bcf	3,5	;RP0=0, select bank0
  7236  035C  1303               	bcf	3,6	;RP1=0, select bank0
  7237  035D  085A               	movf	___flmul@temp+1,w
  7238  035E  3A80               	xorlw	128
  7239  035F  00FF               	movwf	btemp+1
  7240  0360  3080               	movlw	128
  7241  0361  027F               	subwf	btemp+1,w
  7242  0362  1D03               	skipz
  7243  0363  2B66               	goto	u3335
  7244  0364  3001               	movlw	1
  7245  0365  0259               	subwf	___flmul@temp,w
  7246  0366                     u3335:	
  7247  0366  1803               	skipnc
  7248  0367  2B69               	goto	u3331
  7249  0368  2B6A               	goto	u3330
  7250  0369                     u3331:	
  7251  0369  2B76               	goto	l2398
  7252  036A                     u3330:	
  7253  036A                     l2394:	
  7254  036A  3000               	movlw	0
  7255  036B  1283               	bcf	3,5	;RP0=0, select bank0
  7256  036C  1303               	bcf	3,6	;RP1=0, select bank0
  7257  036D  00D8               	movwf	___flmul@prod+3
  7258  036E  3000               	movlw	0
  7259  036F  00D7               	movwf	___flmul@prod+2
  7260  0370  3000               	movlw	0
  7261  0371  00D6               	movwf	___flmul@prod+1
  7262  0372  3000               	movlw	0
  7263  0373  00D5               	movwf	___flmul@prod
  7264  0374                     l2396:	
  7265  0374  01CE               	clrf	___flmul@sign
  7266  0375  2B90               	goto	l654
  7267  0376                     l2398:	
  7268  0376  1283               	bcf	3,5	;RP0=0, select bank0
  7269  0377  1303               	bcf	3,6	;RP1=0, select bank0
  7270  0378  0859               	movf	___flmul@temp,w
  7271  0379  00C9               	movwf	??___flmul
  7272  037A  0849               	movf	??___flmul,w
  7273  037B  00D4               	movwf	___flmul@bexp
  7274  037C  30FF               	movlw	255
  7275  037D  05D5               	andwf	___flmul@prod,f
  7276  037E  30FF               	movlw	255
  7277  037F  05D6               	andwf	___flmul@prod+1,f
  7278  0380  307F               	movlw	127
  7279  0381  05D7               	andwf	___flmul@prod+2,f
  7280  0382  3000               	movlw	0
  7281  0383  05D8               	andwf	___flmul@prod+3,f
  7282  0384                     l2400:	
  7283  0384  1C54               	btfss	___flmul@bexp,0
  7284  0385  2B87               	goto	u3341
  7285  0386  2B88               	goto	u3340
  7286  0387                     u3341:	
  7287  0387  2B89               	goto	l2404
  7288  0388                     u3340:	
  7289  0388                     l2402:	
  7290  0388  17D7               	bsf	___flmul@prod+2,7
  7291  0389                     l2404:	
  7292  0389  0854               	movf	___flmul@bexp,w
  7293  038A  00C9               	movwf	??___flmul
  7294  038B  1003               	clrc
  7295  038C  0C49               	rrf	??___flmul,w
  7296  038D  00CA               	movwf	??___flmul+1
  7297  038E  084A               	movf	??___flmul+1,w
  7298  038F  00D8               	movwf	___flmul@prod+3
  7299  0390                     l654:	
  7300  0390  084E               	movf	___flmul@sign,w
  7301  0391  00C9               	movwf	??___flmul
  7302  0392  0849               	movf	??___flmul,w
  7303  0393  04D8               	iorwf	___flmul@prod+3,f
  7304  0394                     l2406:	
  7305  0394  0858               	movf	___flmul@prod+3,w
  7306  0395  00C4               	movwf	?___flmul+3
  7307  0396  0857               	movf	___flmul@prod+2,w
  7308  0397  00C3               	movwf	?___flmul+2
  7309  0398  0856               	movf	___flmul@prod+1,w
  7310  0399  00C2               	movwf	?___flmul+1
  7311  039A  0855               	movf	___flmul@prod,w
  7312  039B  00C1               	movwf	?___flmul
  7313  039C                     l642:	
  7314  039C  0008               	return
  7315  039D                     __end_of___flmul:	
  7316                           
  7317                           	psect	text17
  7318  080B                     __ptext17:	
  7319 ;; *************** function __Umul8_16 *****************
  7320 ;; Defined at:
  7321 ;;		line 4 in file "C:\Program Files (x86)\Microchip\xc8\v2.10\pic\sources\c90\common\Umul8_16.c"
  7322 ;; Parameters:    Size  Location     Type
  7323 ;;  multiplier      1    wreg     unsigned char 
  7324 ;;  multiplicand    1    0[BANK0 ] unsigned char 
  7325 ;; Auto vars:     Size  Location     Type
  7326 ;;  multiplier      1    8[BANK0 ] unsigned char 
  7327 ;;  word_mpld       2    6[BANK0 ] unsigned int 
  7328 ;;  product         2    4[BANK0 ] unsigned int 
  7329 ;; Return value:  Size  Location     Type
  7330 ;;                  2    0[BANK0 ] unsigned int 
  7331 ;; Registers used:
  7332 ;;		wreg, status,2, status,0
  7333 ;; Tracked objects:
  7334 ;;		On entry : 0/0
  7335 ;;		On exit  : 0/0
  7336 ;;		Unchanged: 0/0
  7337 ;; Data sizes:     COMMON   BANK0   BANK1   BANK3   BANK2
  7338 ;;      Params:         0       2       0       0       0
  7339 ;;      Locals:         0       5       0       0       0
  7340 ;;      Temps:          0       2       0       0       0
  7341 ;;      Totals:         0       9       0       0       0
  7342 ;;Total ram usage:        9 bytes
  7343 ;; Hardware stack levels used:    1
  7344 ;; Hardware stack levels required when called:    1
  7345 ;; This function calls:
  7346 ;;		Nothing
  7347 ;; This function is called by:
  7348 ;;		___flmul
  7349 ;; This function uses a non-reentrant model
  7350 ;;
  7351                           
  7352                           
  7353                           ;psect for function __Umul8_16
  7354  080B                     __Umul8_16:	
  7355                           
  7356                           ;incstack = 0
  7357                           ; Regs used in __Umul8_16: [wreg+status,2+status,0]
  7358                           ;__Umul8_16@multiplier stored from wreg
  7359  080B  1283               	bcf	3,5	;RP0=0, select bank0
  7360  080C  1303               	bcf	3,6	;RP1=0, select bank0
  7361  080D  00A8               	movwf	__Umul8_16@multiplier
  7362  080E                     l2006:	
  7363  080E  01A4               	clrf	__Umul8_16@product
  7364  080F  01A5               	clrf	__Umul8_16@product+1
  7365  0810                     l2008:	
  7366  0810  0820               	movf	__Umul8_16@multiplicand,w
  7367  0811  00A2               	movwf	??__Umul8_16
  7368  0812  01A3               	clrf	??__Umul8_16+1
  7369  0813  0822               	movf	??__Umul8_16,w
  7370  0814  00A6               	movwf	__Umul8_16@word_mpld
  7371  0815  0823               	movf	??__Umul8_16+1,w
  7372  0816  00A7               	movwf	__Umul8_16@word_mpld+1
  7373  0817                     l2010:	
  7374  0817  1C28               	btfss	__Umul8_16@multiplier,0
  7375  0818  281A               	goto	u2321
  7376  0819  281B               	goto	u2320
  7377  081A                     u2321:	
  7378  081A  2821               	goto	l714
  7379  081B                     u2320:	
  7380  081B                     l2012:	
  7381  081B  0826               	movf	__Umul8_16@word_mpld,w
  7382  081C  07A4               	addwf	__Umul8_16@product,f
  7383  081D  1803               	skipnc
  7384  081E  0AA5               	incf	__Umul8_16@product+1,f
  7385  081F  0827               	movf	__Umul8_16@word_mpld+1,w
  7386  0820  07A5               	addwf	__Umul8_16@product+1,f
  7387  0821                     l714:	
  7388  0821  3001               	movlw	1
  7389  0822                     u2335:	
  7390  0822  1003               	clrc
  7391  0823  0DA6               	rlf	__Umul8_16@word_mpld,f
  7392  0824  0DA7               	rlf	__Umul8_16@word_mpld+1,f
  7393  0825  3EFF               	addlw	-1
  7394  0826  1D03               	skipz
  7395  0827  2822               	goto	u2335
  7396  0828  1003               	clrc
  7397  0829  0CA8               	rrf	__Umul8_16@multiplier,f
  7398  082A                     l2014:	
  7399  082A  0828               	movf	__Umul8_16@multiplier,w
  7400  082B  1D03               	btfss	3,2
  7401  082C  282E               	goto	u2341
  7402  082D  282F               	goto	u2340
  7403  082E                     u2341:	
  7404  082E  2817               	goto	l2010
  7405  082F                     u2340:	
  7406  082F                     l2016:	
  7407  082F  0825               	movf	__Umul8_16@product+1,w
  7408  0830  00A1               	movwf	?__Umul8_16+1
  7409  0831  0824               	movf	__Umul8_16@product,w
  7410  0832  00A0               	movwf	?__Umul8_16
  7411  0833                     l716:	
  7412  0833  0008               	return
  7413  0834                     __end_of__Umul8_16:	
  7414                           
  7415                           	psect	text18
  7416  1EE4                     __ptext18:	
  7417 ;; *************** function ___flsub *****************
  7418 ;; Defined at:
  7419 ;;		line 242 in file "C:\Program Files (x86)\Microchip\xc8\v2.10\pic\sources\c90\common\sprcadd.c"
  7420 ;; Parameters:    Size  Location     Type
  7421 ;;  a               4    0[BANK1 ] unsigned int 
  7422 ;;  b               4    4[BANK1 ] unsigned int 
  7423 ;; Auto vars:     Size  Location     Type
  7424 ;;		None
  7425 ;; Return value:  Size  Location     Type
  7426 ;;                  4    0[BANK1 ] unsigned int 
  7427 ;; Registers used:
  7428 ;;		wreg, status,2, status,0, btemp+1, pclath, cstack
  7429 ;; Tracked objects:
  7430 ;;		On entry : 0/0
  7431 ;;		On exit  : 0/0
  7432 ;;		Unchanged: 0/0
  7433 ;; Data sizes:     COMMON   BANK0   BANK1   BANK3   BANK2
  7434 ;;      Params:         0       0       8       0       0
  7435 ;;      Locals:         0       0       0       0       0
  7436 ;;      Temps:          0       0       0       0       0
  7437 ;;      Totals:         0       0       8       0       0
  7438 ;;Total ram usage:        8 bytes
  7439 ;; Hardware stack levels used:    1
  7440 ;; Hardware stack levels required when called:    2
  7441 ;; This function calls:
  7442 ;;		___fladd
  7443 ;; This function is called by:
  7444 ;;		_exp
  7445 ;; This function uses a non-reentrant model
  7446 ;;
  7447                           
  7448                           
  7449                           ;psect for function ___flsub
  7450  1EE4                     ___flsub:	
  7451  1EE4                     l2482:	
  7452                           ;incstack = 0
  7453                           ; Regs used in ___flsub: [wreg+status,2+status,0+btemp+1+pclath+cstack]
  7454                           
  7455  1EE4  3080               	movlw	128
  7456  1EE5  1683               	bsf	3,5	;RP0=1, select bank1
  7457  1EE6  1303               	bcf	3,6	;RP1=0, select bank1
  7458  1EE7  06A3               	xorwf	(___flsub@a+3)^(0+128),f
  7459  1EE8                     l2484:	
  7460  1EE8  0827               	movf	(___flsub@b+3)^(0+128),w
  7461  1EE9  1283               	bcf	3,5	;RP0=0, select bank0
  7462  1EEA  1303               	bcf	3,6	;RP1=0, select bank0
  7463  1EEB  00DE               	movwf	___fladd@b+3
  7464  1EEC  1683               	bsf	3,5	;RP0=1, select bank1
  7465  1EED  1303               	bcf	3,6	;RP1=0, select bank1
  7466  1EEE  0826               	movf	(___flsub@b+2)^(0+128),w
  7467  1EEF  1283               	bcf	3,5	;RP0=0, select bank0
  7468  1EF0  1303               	bcf	3,6	;RP1=0, select bank0
  7469  1EF1  00DD               	movwf	___fladd@b+2
  7470  1EF2  1683               	bsf	3,5	;RP0=1, select bank1
  7471  1EF3  1303               	bcf	3,6	;RP1=0, select bank1
  7472  1EF4  0825               	movf	(___flsub@b+1)^(0+128),w
  7473  1EF5  1283               	bcf	3,5	;RP0=0, select bank0
  7474  1EF6  1303               	bcf	3,6	;RP1=0, select bank0
  7475  1EF7  00DC               	movwf	___fladd@b+1
  7476  1EF8  1683               	bsf	3,5	;RP0=1, select bank1
  7477  1EF9  1303               	bcf	3,6	;RP1=0, select bank1
  7478  1EFA  0824               	movf	___flsub@b^(0+128),w
  7479  1EFB  1283               	bcf	3,5	;RP0=0, select bank0
  7480  1EFC  1303               	bcf	3,6	;RP1=0, select bank0
  7481  1EFD  00DB               	movwf	___fladd@b
  7482  1EFE  1683               	bsf	3,5	;RP0=1, select bank1
  7483  1EFF  1303               	bcf	3,6	;RP1=0, select bank1
  7484  1F00  0823               	movf	(___flsub@a+3)^(0+128),w
  7485  1F01  1283               	bcf	3,5	;RP0=0, select bank0
  7486  1F02  1303               	bcf	3,6	;RP1=0, select bank0
  7487  1F03  00E2               	movwf	___fladd@a+3
  7488  1F04  1683               	bsf	3,5	;RP0=1, select bank1
  7489  1F05  1303               	bcf	3,6	;RP1=0, select bank1
  7490  1F06  0822               	movf	(___flsub@a+2)^(0+128),w
  7491  1F07  1283               	bcf	3,5	;RP0=0, select bank0
  7492  1F08  1303               	bcf	3,6	;RP1=0, select bank0
  7493  1F09  00E1               	movwf	___fladd@a+2
  7494  1F0A  1683               	bsf	3,5	;RP0=1, select bank1
  7495  1F0B  1303               	bcf	3,6	;RP1=0, select bank1
  7496  1F0C  0821               	movf	(___flsub@a+1)^(0+128),w
  7497  1F0D  1283               	bcf	3,5	;RP0=0, select bank0
  7498  1F0E  1303               	bcf	3,6	;RP1=0, select bank0
  7499  1F0F  00E0               	movwf	___fladd@a+1
  7500  1F10  1683               	bsf	3,5	;RP0=1, select bank1
  7501  1F11  1303               	bcf	3,6	;RP1=0, select bank1
  7502  1F12  0820               	movf	___flsub@a^(0+128),w
  7503  1F13  1283               	bcf	3,5	;RP0=0, select bank0
  7504  1F14  1303               	bcf	3,6	;RP1=0, select bank0
  7505  1F15  00DF               	movwf	___fladd@a
  7506  1F16  120A  118A  239D  160A  158A  	fcall	___fladd
  7507  1F1B  1283               	bcf	3,5	;RP0=0, select bank0
  7508  1F1C  1303               	bcf	3,6	;RP1=0, select bank0
  7509  1F1D  085E               	movf	?___fladd+3,w
  7510  1F1E  1683               	bsf	3,5	;RP0=1, select bank1
  7511  1F1F  1303               	bcf	3,6	;RP1=0, select bank1
  7512  1F20  00A3               	movwf	(?___flsub+3)^(0+128)
  7513  1F21  1283               	bcf	3,5	;RP0=0, select bank0
  7514  1F22  1303               	bcf	3,6	;RP1=0, select bank0
  7515  1F23  085D               	movf	?___fladd+2,w
  7516  1F24  1683               	bsf	3,5	;RP0=1, select bank1
  7517  1F25  1303               	bcf	3,6	;RP1=0, select bank1
  7518  1F26  00A2               	movwf	(?___flsub+2)^(0+128)
  7519  1F27  1283               	bcf	3,5	;RP0=0, select bank0
  7520  1F28  1303               	bcf	3,6	;RP1=0, select bank0
  7521  1F29  085C               	movf	?___fladd+1,w
  7522  1F2A  1683               	bsf	3,5	;RP0=1, select bank1
  7523  1F2B  1303               	bcf	3,6	;RP1=0, select bank1
  7524  1F2C  00A1               	movwf	(?___flsub+1)^(0+128)
  7525  1F2D  1283               	bcf	3,5	;RP0=0, select bank0
  7526  1F2E  1303               	bcf	3,6	;RP1=0, select bank0
  7527  1F2F  085B               	movf	?___fladd,w
  7528  1F30  1683               	bsf	3,5	;RP0=1, select bank1
  7529  1F31  1303               	bcf	3,6	;RP1=0, select bank1
  7530  1F32  00A0               	movwf	?___flsub^(0+128)
  7531  1F33                     l592:	
  7532  1F33  0008               	return
  7533  1F34                     __end_of___flsub:	
  7534                           
  7535                           	psect	text19
  7536  039D                     __ptext19:	
  7537 ;; *************** function ___fladd *****************
  7538 ;; Defined at:
  7539 ;;		line 10 in file "C:\Program Files (x86)\Microchip\xc8\v2.10\pic\sources\c90\common\sprcadd.c"
  7540 ;; Parameters:    Size  Location     Type
  7541 ;;  b               4   59[BANK0 ] unsigned int 
  7542 ;;  a               4   63[BANK0 ] unsigned int 
  7543 ;; Auto vars:     Size  Location     Type
  7544 ;;  grs             1   78[BANK0 ] unsigned char 
  7545 ;;  bexp            1   77[BANK0 ] unsigned char 
  7546 ;;  aexp            1   76[BANK0 ] unsigned char 
  7547 ;;  signs           1   75[BANK0 ] unsigned char 
  7548 ;; Return value:  Size  Location     Type
  7549 ;;                  4   59[BANK0 ] unsigned char 
  7550 ;; Registers used:
  7551 ;;		wreg, status,2, status,0, btemp+1
  7552 ;; Tracked objects:
  7553 ;;		On entry : 0/0
  7554 ;;		On exit  : 0/0
  7555 ;;		Unchanged: 0/0
  7556 ;; Data sizes:     COMMON   BANK0   BANK1   BANK3   BANK2
  7557 ;;      Params:         0       8       0       0       0
  7558 ;;      Locals:         0       4       0       0       0
  7559 ;;      Temps:          0       8       0       0       0
  7560 ;;      Totals:         0      20       0       0       0
  7561 ;;Total ram usage:       20 bytes
  7562 ;; Hardware stack levels used:    1
  7563 ;; Hardware stack levels required when called:    1
  7564 ;; This function calls:
  7565 ;;		Nothing
  7566 ;; This function is called by:
  7567 ;;		___flsub
  7568 ;;		_floor
  7569 ;;		_log
  7570 ;;		_eval_poly
  7571 ;; This function uses a non-reentrant model
  7572 ;;
  7573                           
  7574                           
  7575                           ;psect for function ___fladd
  7576  039D                     ___fladd:	
  7577  039D                     l2076:	
  7578                           ;incstack = 0
  7579                           ; Regs used in ___fladd: [wreg+status,2+status,0+btemp+1]
  7580                           
  7581  039D  1283               	bcf	3,5	;RP0=0, select bank0
  7582  039E  1303               	bcf	3,6	;RP1=0, select bank0
  7583  039F  085E               	movf	___fladd@b+3,w
  7584  03A0  3980               	andlw	128
  7585  03A1  00E3               	movwf	??___fladd
  7586  03A2  0863               	movf	??___fladd,w
  7587  03A3  00EB               	movwf	___fladd@signs
  7588  03A4                     l2078:	
  7589  03A4  085E               	movf	___fladd@b+3,w
  7590  03A5  00E3               	movwf	??___fladd
  7591  03A6  0763               	addwf	??___fladd,w
  7592  03A7  00E4               	movwf	??___fladd+1
  7593  03A8  0864               	movf	??___fladd+1,w
  7594  03A9  00ED               	movwf	___fladd@bexp
  7595  03AA                     l2080:	
  7596  03AA  1FDD               	btfss	___fladd@b+2,7
  7597  03AB  2BAD               	goto	u2521
  7598  03AC  2BAE               	goto	u2520
  7599  03AD                     u2521:	
  7600  03AD  2BAF               	goto	l2084
  7601  03AE                     u2520:	
  7602  03AE                     l2082:	
  7603  03AE  146D               	bsf	___fladd@bexp,0
  7604  03AF                     l2084:	
  7605  03AF  086D               	movf	___fladd@bexp,w
  7606  03B0  1903               	btfsc	3,2
  7607  03B1  2BB3               	goto	u2531
  7608  03B2  2BB4               	goto	u2530
  7609  03B3                     u2531:	
  7610  03B3  2BC4               	goto	l2094
  7611  03B4                     u2530:	
  7612  03B4                     l2086:	
  7613  03B4  0A6D               	incf	___fladd@bexp,w
  7614  03B5  1D03               	btfss	3,2
  7615  03B6  2BB8               	goto	u2541
  7616  03B7  2BB9               	goto	u2540
  7617  03B8                     u2541:	
  7618  03B8  2BC1               	goto	l2090
  7619  03B9                     u2540:	
  7620  03B9                     l2088:	
  7621  03B9  3000               	movlw	0
  7622  03BA  00DE               	movwf	___fladd@b+3
  7623  03BB  3000               	movlw	0
  7624  03BC  00DD               	movwf	___fladd@b+2
  7625  03BD  3000               	movlw	0
  7626  03BE  00DC               	movwf	___fladd@b+1
  7627  03BF  3000               	movlw	0
  7628  03C0  00DB               	movwf	___fladd@b
  7629  03C1                     l2090:	
  7630  03C1  17DD               	bsf	___fladd@b+2,7
  7631  03C2                     l2092:	
  7632  03C2  01DE               	clrf	___fladd@b+3
  7633  03C3  2BCC               	goto	l2096
  7634  03C4                     l2094:	
  7635  03C4  3000               	movlw	0
  7636  03C5  00DE               	movwf	___fladd@b+3
  7637  03C6  3000               	movlw	0
  7638  03C7  00DD               	movwf	___fladd@b+2
  7639  03C8  3000               	movlw	0
  7640  03C9  00DC               	movwf	___fladd@b+1
  7641  03CA  3000               	movlw	0
  7642  03CB  00DB               	movwf	___fladd@b
  7643  03CC                     l2096:	
  7644  03CC  0862               	movf	___fladd@a+3,w
  7645  03CD  3980               	andlw	128
  7646  03CE  00E3               	movwf	??___fladd
  7647  03CF  0863               	movf	??___fladd,w
  7648  03D0  00EC               	movwf	___fladd@aexp
  7649  03D1                     l2098:	
  7650  03D1  086C               	movf	___fladd@aexp,w
  7651  03D2  066B               	xorwf	___fladd@signs,w
  7652  03D3  1903               	skipnz
  7653  03D4  2BD6               	goto	u2551
  7654  03D5  2BD7               	goto	u2550
  7655  03D6                     u2551:	
  7656  03D6  2BD8               	goto	l2102
  7657  03D7                     u2550:	
  7658  03D7                     l2100:	
  7659  03D7  176B               	bsf	___fladd@signs,6
  7660  03D8                     l2102:	
  7661  03D8  0862               	movf	___fladd@a+3,w
  7662  03D9  00E3               	movwf	??___fladd
  7663  03DA  0763               	addwf	??___fladd,w
  7664  03DB  00E4               	movwf	??___fladd+1
  7665  03DC  0864               	movf	??___fladd+1,w
  7666  03DD  00EC               	movwf	___fladd@aexp
  7667  03DE                     l2104:	
  7668  03DE  1FE1               	btfss	___fladd@a+2,7
  7669  03DF  2BE1               	goto	u2561
  7670  03E0  2BE2               	goto	u2560
  7671  03E1                     u2561:	
  7672  03E1  2BE3               	goto	l2108
  7673  03E2                     u2560:	
  7674  03E2                     l2106:	
  7675  03E2  146C               	bsf	___fladd@aexp,0
  7676  03E3                     l2108:	
  7677  03E3  086C               	movf	___fladd@aexp,w
  7678  03E4  1903               	btfsc	3,2
  7679  03E5  2BE7               	goto	u2571
  7680  03E6  2BE8               	goto	u2570
  7681  03E7                     u2571:	
  7682  03E7  2BF8               	goto	l2118
  7683  03E8                     u2570:	
  7684  03E8                     l2110:	
  7685  03E8  0A6C               	incf	___fladd@aexp,w
  7686  03E9  1D03               	btfss	3,2
  7687  03EA  2BEC               	goto	u2581
  7688  03EB  2BED               	goto	u2580
  7689  03EC                     u2581:	
  7690  03EC  2BF5               	goto	l2114
  7691  03ED                     u2580:	
  7692  03ED                     l2112:	
  7693  03ED  3000               	movlw	0
  7694  03EE  00E2               	movwf	___fladd@a+3
  7695  03EF  3000               	movlw	0
  7696  03F0  00E1               	movwf	___fladd@a+2
  7697  03F1  3000               	movlw	0
  7698  03F2  00E0               	movwf	___fladd@a+1
  7699  03F3  3000               	movlw	0
  7700  03F4  00DF               	movwf	___fladd@a
  7701  03F5                     l2114:	
  7702  03F5  17E1               	bsf	___fladd@a+2,7
  7703  03F6                     l2116:	
  7704  03F6  01E2               	clrf	___fladd@a+3
  7705  03F7  2C00               	goto	l546
  7706  03F8                     l2118:	
  7707  03F8  3000               	movlw	0
  7708  03F9  00E2               	movwf	___fladd@a+3
  7709  03FA  3000               	movlw	0
  7710  03FB  00E1               	movwf	___fladd@a+2
  7711  03FC  3000               	movlw	0
  7712  03FD  00E0               	movwf	___fladd@a+1
  7713  03FE  3000               	movlw	0
  7714  03FF  00DF               	movwf	___fladd@a
  7715  0400                     l546:	
  7716  0400  086D               	movf	___fladd@bexp,w
  7717  0401  026C               	subwf	___fladd@aexp,w
  7718  0402  1803               	skipnc
  7719  0403  2C05               	goto	u2591
  7720  0404  2C06               	goto	u2590
  7721  0405                     u2591:	
  7722  0405  2C4A               	goto	l2154
  7723  0406                     u2590:	
  7724  0406                     l2120:	
  7725  0406  1F6B               	btfss	___fladd@signs,6
  7726  0407  2C09               	goto	u2601
  7727  0408  2C0A               	goto	u2600
  7728  0409                     u2601:	
  7729  0409  2C0E               	goto	l2124
  7730  040A                     u2600:	
  7731  040A                     l2122:	
  7732  040A  3080               	movlw	128
  7733  040B  00E3               	movwf	??___fladd
  7734  040C  0863               	movf	??___fladd,w
  7735  040D  06EB               	xorwf	___fladd@signs,f
  7736  040E                     l2124:	
  7737  040E  086D               	movf	___fladd@bexp,w
  7738  040F  00E3               	movwf	??___fladd
  7739  0410  0863               	movf	??___fladd,w
  7740  0411  00EE               	movwf	___fladd@grs
  7741  0412                     l2126:	
  7742  0412  086C               	movf	___fladd@aexp,w
  7743  0413  00E3               	movwf	??___fladd
  7744  0414  0863               	movf	??___fladd,w
  7745  0415  00ED               	movwf	___fladd@bexp
  7746  0416                     l2128:	
  7747  0416  086E               	movf	___fladd@grs,w
  7748  0417  00E3               	movwf	??___fladd
  7749  0418  0863               	movf	??___fladd,w
  7750  0419  00EC               	movwf	___fladd@aexp
  7751  041A                     l2130:	
  7752  041A  085B               	movf	___fladd@b,w
  7753  041B  00E3               	movwf	??___fladd
  7754  041C  0863               	movf	??___fladd,w
  7755  041D  00EE               	movwf	___fladd@grs
  7756  041E                     l2132:	
  7757  041E  085F               	movf	___fladd@a,w
  7758  041F  00E3               	movwf	??___fladd
  7759  0420  0863               	movf	??___fladd,w
  7760  0421  00DB               	movwf	___fladd@b
  7761  0422                     l2134:	
  7762  0422  086E               	movf	___fladd@grs,w
  7763  0423  00E3               	movwf	??___fladd
  7764  0424  0863               	movf	??___fladd,w
  7765  0425  00DF               	movwf	___fladd@a
  7766  0426                     l2136:	
  7767  0426  085C               	movf	___fladd@b+1,w
  7768  0427  00E3               	movwf	??___fladd
  7769  0428  0863               	movf	??___fladd,w
  7770  0429  00EE               	movwf	___fladd@grs
  7771  042A                     l2138:	
  7772  042A  0860               	movf	___fladd@a+1,w
  7773  042B  00E3               	movwf	??___fladd
  7774  042C  0863               	movf	??___fladd,w
  7775  042D  00DC               	movwf	___fladd@b+1
  7776  042E                     l2140:	
  7777  042E  086E               	movf	___fladd@grs,w
  7778  042F  00E3               	movwf	??___fladd
  7779  0430  0863               	movf	??___fladd,w
  7780  0431  00E0               	movwf	___fladd@a+1
  7781  0432                     l2142:	
  7782  0432  085D               	movf	___fladd@b+2,w
  7783  0433  00E3               	movwf	??___fladd
  7784  0434  0863               	movf	??___fladd,w
  7785  0435  00EE               	movwf	___fladd@grs
  7786  0436                     l2144:	
  7787  0436  0861               	movf	___fladd@a+2,w
  7788  0437  00E3               	movwf	??___fladd
  7789  0438  0863               	movf	??___fladd,w
  7790  0439  00DD               	movwf	___fladd@b+2
  7791  043A                     l2146:	
  7792  043A  086E               	movf	___fladd@grs,w
  7793  043B  00E3               	movwf	??___fladd
  7794  043C  0863               	movf	??___fladd,w
  7795  043D  00E1               	movwf	___fladd@a+2
  7796  043E                     l2148:	
  7797  043E  085E               	movf	___fladd@b+3,w
  7798  043F  00E3               	movwf	??___fladd
  7799  0440  0863               	movf	??___fladd,w
  7800  0441  00EE               	movwf	___fladd@grs
  7801  0442                     l2150:	
  7802  0442  0862               	movf	___fladd@a+3,w
  7803  0443  00E3               	movwf	??___fladd
  7804  0444  0863               	movf	??___fladd,w
  7805  0445  00DE               	movwf	___fladd@b+3
  7806  0446                     l2152:	
  7807  0446  086E               	movf	___fladd@grs,w
  7808  0447  00E3               	movwf	??___fladd
  7809  0448  0863               	movf	??___fladd,w
  7810  0449  00E2               	movwf	___fladd@a+3
  7811  044A                     l2154:	
  7812  044A  01EE               	clrf	___fladd@grs
  7813  044B                     l2156:	
  7814  044B  086C               	movf	___fladd@aexp,w
  7815  044C  00E3               	movwf	??___fladd
  7816  044D  01E4               	clrf	??___fladd+1
  7817  044E  0864               	movf	??___fladd+1,w
  7818  044F  00E6               	movwf	??___fladd+3
  7819  0450  086D               	movf	___fladd@bexp,w
  7820  0451  0263               	subwf	??___fladd,w
  7821  0452  00E5               	movwf	??___fladd+2
  7822  0453  1C03               	skipc
  7823  0454  03E6               	decf	??___fladd+3,f
  7824  0455  0866               	movf	??___fladd+3,w
  7825  0456  3A80               	xorlw	128
  7826  0457  00FF               	movwf	btemp+1
  7827  0458  3080               	movlw	128
  7828  0459  027F               	subwf	btemp+1,w
  7829  045A  1D03               	skipz
  7830  045B  2C5E               	goto	u2615
  7831  045C  301A               	movlw	26
  7832  045D  0265               	subwf	??___fladd+2,w
  7833  045E                     u2615:	
  7834  045E  1C03               	skipc
  7835  045F  2C61               	goto	u2611
  7836  0460  2C62               	goto	u2610
  7837  0461                     u2611:	
  7838  0461  2C9F               	goto	l2172
  7839  0462                     u2610:	
  7840  0462                     l2158:	
  7841  0462  1283               	bcf	3,5	;RP0=0, select bank0
  7842  0463  1303               	bcf	3,6	;RP1=0, select bank0
  7843  0464  085E               	movf	___fladd@b+3,w
  7844  0465  045D               	iorwf	___fladd@b+2,w
  7845  0466  045C               	iorwf	___fladd@b+1,w
  7846  0467  045B               	iorwf	___fladd@b,w
  7847  0468  1D03               	skipz
  7848  0469  2C6B               	goto	u2621
  7849  046A  2C6D               	goto	u2620
  7850  046B                     u2621:	
  7851  046B  3001               	movlw	1
  7852  046C  2C6E               	goto	u2630
  7853  046D                     u2620:	
  7854  046D  3000               	movlw	0
  7855  046E                     u2630:	
  7856  046E  00E3               	movwf	??___fladd
  7857  046F  0863               	movf	??___fladd,w
  7858  0470  00EE               	movwf	___fladd@grs
  7859  0471  3000               	movlw	0
  7860  0472  00DE               	movwf	___fladd@b+3
  7861  0473  3000               	movlw	0
  7862  0474  00DD               	movwf	___fladd@b+2
  7863  0475  3000               	movlw	0
  7864  0476  00DC               	movwf	___fladd@b+1
  7865  0477  3000               	movlw	0
  7866  0478  00DB               	movwf	___fladd@b
  7867  0479  086C               	movf	___fladd@aexp,w
  7868  047A  00E3               	movwf	??___fladd
  7869  047B  0863               	movf	??___fladd,w
  7870  047C  00ED               	movwf	___fladd@bexp
  7871  047D  2CA7               	goto	l550
  7872  047E                     l552:	
  7873  047E  1C6E               	btfss	___fladd@grs,0
  7874  047F  2C81               	goto	u2641
  7875  0480  2C82               	goto	u2640
  7876  0481                     u2641:	
  7877  0481  2C8B               	goto	l2162
  7878  0482                     u2640:	
  7879  0482                     l2160:	
  7880  0482  086E               	movf	___fladd@grs,w
  7881  0483  00E3               	movwf	??___fladd
  7882  0484  1003               	clrc
  7883  0485  0C63               	rrf	??___fladd,w
  7884  0486  3801               	iorlw	1
  7885  0487  00E4               	movwf	??___fladd+1
  7886  0488  0864               	movf	??___fladd+1,w
  7887  0489  00EE               	movwf	___fladd@grs
  7888  048A  2C8D               	goto	l2164
  7889  048B                     l2162:	
  7890  048B  1003               	clrc
  7891  048C  0CEE               	rrf	___fladd@grs,f
  7892  048D                     l2164:	
  7893  048D  1C5B               	btfss	___fladd@b,0
  7894  048E  2C90               	goto	u2651
  7895  048F  2C91               	goto	u2650
  7896  0490                     u2651:	
  7897  0490  2C92               	goto	l2168
  7898  0491                     u2650:	
  7899  0491                     l2166:	
  7900  0491  17EE               	bsf	___fladd@grs,7
  7901  0492                     l2168:	
  7902  0492  3001               	movlw	1
  7903  0493  00E3               	movwf	??___fladd
  7904  0494                     u2665:	
  7905  0494  0D5E               	rlf	___fladd@b+3,w
  7906  0495  0CDE               	rrf	___fladd@b+3,f
  7907  0496  0CDD               	rrf	___fladd@b+2,f
  7908  0497  0CDC               	rrf	___fladd@b+1,f
  7909  0498  0CDB               	rrf	___fladd@b,f
  7910  0499  0BE3               	decfsz	??___fladd& (0+127),f
  7911  049A  2C94               	goto	u2665
  7912  049B                     l2170:	
  7913  049B  3001               	movlw	1
  7914  049C  00E3               	movwf	??___fladd
  7915  049D  0863               	movf	??___fladd,w
  7916  049E  07ED               	addwf	___fladd@bexp,f
  7917  049F                     l2172:	
  7918  049F  1283               	bcf	3,5	;RP0=0, select bank0
  7919  04A0  1303               	bcf	3,6	;RP1=0, select bank0
  7920  04A1  086C               	movf	___fladd@aexp,w
  7921  04A2  026D               	subwf	___fladd@bexp,w
  7922  04A3  1C03               	skipc
  7923  04A4  2CA6               	goto	u2671
  7924  04A5  2CA7               	goto	u2670
  7925  04A6                     u2671:	
  7926  04A6  2C7E               	goto	l552
  7927  04A7                     u2670:	
  7928  04A7                     l550:	
  7929  04A7  1B6B               	btfsc	___fladd@signs,6
  7930  04A8  2CAA               	goto	u2681
  7931  04A9  2CAB               	goto	u2680
  7932  04AA                     u2681:	
  7933  04AA  2CF6               	goto	l2198
  7934  04AB                     u2680:	
  7935  04AB                     l2174:	
  7936  04AB  086D               	movf	___fladd@bexp,w
  7937  04AC  1D03               	btfss	3,2
  7938  04AD  2CAF               	goto	u2691
  7939  04AE  2CB0               	goto	u2690
  7940  04AF                     u2691:	
  7941  04AF  2CB9               	goto	l2180
  7942  04B0                     u2690:	
  7943  04B0                     l2176:	
  7944  04B0  3000               	movlw	0
  7945  04B1  00DE               	movwf	?___fladd+3
  7946  04B2  3000               	movlw	0
  7947  04B3  00DD               	movwf	?___fladd+2
  7948  04B4  3000               	movlw	0
  7949  04B5  00DC               	movwf	?___fladd+1
  7950  04B6  3000               	movlw	0
  7951  04B7  00DB               	movwf	?___fladd
  7952  04B8  2E24               	goto	l559
  7953  04B9                     l2180:	
  7954  04B9  085F               	movf	___fladd@a,w
  7955  04BA  07DB               	addwf	___fladd@b,f
  7956  04BB  0860               	movf	___fladd@a+1,w
  7957  04BC  1103               	clrz
  7958  04BD  1803               	skipnc
  7959  04BE  3E01               	addlw	1
  7960  04BF  1903               	skipnz
  7961  04C0  2CC2               	goto	u2701
  7962  04C1  07DC               	addwf	___fladd@b+1,f
  7963  04C2                     u2701:	
  7964  04C2  0861               	movf	___fladd@a+2,w
  7965  04C3  1103               	clrz
  7966  04C4  1803               	skipnc
  7967  04C5  3E01               	addlw	1
  7968  04C6  1903               	skipnz
  7969  04C7  2CC9               	goto	u2702
  7970  04C8  07DD               	addwf	___fladd@b+2,f
  7971  04C9                     u2702:	
  7972  04C9  0862               	movf	___fladd@a+3,w
  7973  04CA  1103               	clrz
  7974  04CB  1803               	skipnc
  7975  04CC  3E01               	addlw	1
  7976  04CD  1903               	skipnz
  7977  04CE  2CD0               	goto	u2703
  7978  04CF  07DE               	addwf	___fladd@b+3,f
  7979  04D0                     u2703:	
  7980  04D0                     l2182:	
  7981  04D0  1C5E               	btfss	___fladd@b+3,0
  7982  04D1  2CD3               	goto	u2711
  7983  04D2  2CD4               	goto	u2710
  7984  04D3                     u2711:	
  7985  04D3  2DAA               	goto	l2232
  7986  04D4                     u2710:	
  7987  04D4                     l2184:	
  7988  04D4  1C6E               	btfss	___fladd@grs,0
  7989  04D5  2CD7               	goto	u2721
  7990  04D6  2CD8               	goto	u2720
  7991  04D7                     u2721:	
  7992  04D7  2CE1               	goto	l2188
  7993  04D8                     u2720:	
  7994  04D8                     l2186:	
  7995  04D8  086E               	movf	___fladd@grs,w
  7996  04D9  00E3               	movwf	??___fladd
  7997  04DA  1003               	clrc
  7998  04DB  0C63               	rrf	??___fladd,w
  7999  04DC  3801               	iorlw	1
  8000  04DD  00E4               	movwf	??___fladd+1
  8001  04DE  0864               	movf	??___fladd+1,w
  8002  04DF  00EE               	movwf	___fladd@grs
  8003  04E0  2CE3               	goto	l2190
  8004  04E1                     l2188:	
  8005  04E1  1003               	clrc
  8006  04E2  0CEE               	rrf	___fladd@grs,f
  8007  04E3                     l2190:	
  8008  04E3  1C5B               	btfss	___fladd@b,0
  8009  04E4  2CE6               	goto	u2731
  8010  04E5  2CE7               	goto	u2730
  8011  04E6                     u2731:	
  8012  04E6  2CE8               	goto	l2194
  8013  04E7                     u2730:	
  8014  04E7                     l2192:	
  8015  04E7  17EE               	bsf	___fladd@grs,7
  8016  04E8                     l2194:	
  8017  04E8  3001               	movlw	1
  8018  04E9  00E3               	movwf	??___fladd
  8019  04EA                     u2745:	
  8020  04EA  0D5E               	rlf	___fladd@b+3,w
  8021  04EB  0CDE               	rrf	___fladd@b+3,f
  8022  04EC  0CDD               	rrf	___fladd@b+2,f
  8023  04ED  0CDC               	rrf	___fladd@b+1,f
  8024  04EE  0CDB               	rrf	___fladd@b,f
  8025  04EF  0BE3               	decfsz	??___fladd& (0+127),f
  8026  04F0  2CEA               	goto	u2745
  8027  04F1                     l2196:	
  8028  04F1  3001               	movlw	1
  8029  04F2  00E3               	movwf	??___fladd
  8030  04F3  0863               	movf	??___fladd,w
  8031  04F4  07ED               	addwf	___fladd@bexp,f
  8032  04F5  2DAA               	goto	l2232
  8033  04F6                     l2198:	
  8034  04F6  085E               	movf	___fladd@b+3,w
  8035  04F7  3A80               	xorlw	128
  8036  04F8  00FF               	movwf	btemp+1
  8037  04F9  0862               	movf	___fladd@a+3,w
  8038  04FA  3A80               	xorlw	128
  8039  04FB  027F               	subwf	btemp+1,w
  8040  04FC  1D03               	skipz
  8041  04FD  2D08               	goto	u2753
  8042  04FE  0861               	movf	___fladd@a+2,w
  8043  04FF  025D               	subwf	___fladd@b+2,w
  8044  0500  1D03               	skipz
  8045  0501  2D08               	goto	u2753
  8046  0502  0860               	movf	___fladd@a+1,w
  8047  0503  025C               	subwf	___fladd@b+1,w
  8048  0504  1D03               	skipz
  8049  0505  2D08               	goto	u2753
  8050  0506  085F               	movf	___fladd@a,w
  8051  0507  025B               	subwf	___fladd@b,w
  8052  0508                     u2753:	
  8053  0508  1803               	skipnc
  8054  0509  2D0B               	goto	u2751
  8055  050A  2D0C               	goto	u2750
  8056  050B                     u2751:	
  8057  050B  2D64               	goto	l2208
  8058  050C                     u2750:	
  8059  050C                     l2200:	
  8060  050C  30FF               	movlw	255
  8061  050D  00E3               	movwf	??___fladd
  8062  050E  30FF               	movlw	255
  8063  050F  00E4               	movwf	??___fladd+1
  8064  0510  30FF               	movlw	255
  8065  0511  00E5               	movwf	??___fladd+2
  8066  0512  30FF               	movlw	255
  8067  0513  00E6               	movwf	??___fladd+3
  8068  0514  085F               	movf	___fladd@a,w
  8069  0515  00E7               	movwf	??___fladd+4
  8070  0516  0860               	movf	___fladd@a+1,w
  8071  0517  00E8               	movwf	??___fladd+5
  8072  0518  0861               	movf	___fladd@a+2,w
  8073  0519  00E9               	movwf	??___fladd+6
  8074  051A  0862               	movf	___fladd@a+3,w
  8075  051B  00EA               	movwf	??___fladd+7
  8076  051C  085B               	movf	___fladd@b,w
  8077  051D  02E7               	subwf	??___fladd+4,f
  8078  051E  085C               	movf	___fladd@b+1,w
  8079  051F  1C03               	skipc
  8080  0520  0F5C               	incfsz	___fladd@b+1,w
  8081  0521  2D23               	goto	u2761
  8082  0522  2D24               	goto	u2762
  8083  0523                     u2761:	
  8084  0523  02E8               	subwf	??___fladd+5,f
  8085  0524                     u2762:	
  8086  0524  085D               	movf	___fladd@b+2,w
  8087  0525  1C03               	skipc
  8088  0526  0F5D               	incfsz	___fladd@b+2,w
  8089  0527  2D29               	goto	u2763
  8090  0528  2D2A               	goto	u2764
  8091  0529                     u2763:	
  8092  0529  02E9               	subwf	??___fladd+6,f
  8093  052A                     u2764:	
  8094  052A  085E               	movf	___fladd@b+3,w
  8095  052B  1C03               	skipc
  8096  052C  0F5E               	incfsz	___fladd@b+3,w
  8097  052D  2D2F               	goto	u2765
  8098  052E  2D30               	goto	u2766
  8099  052F                     u2765:	
  8100  052F  02EA               	subwf	??___fladd+7,f
  8101  0530                     u2766:	
  8102  0530  0867               	movf	??___fladd+4,w
  8103  0531  07E3               	addwf	??___fladd,f
  8104  0532  0868               	movf	??___fladd+5,w
  8105  0533  1803               	skipnc
  8106  0534  0F68               	incfsz	??___fladd+5,w
  8107  0535  2D37               	goto	u2770
  8108  0536  2D38               	goto	u2771
  8109  0537                     u2770:	
  8110  0537  07E4               	addwf	??___fladd+1,f
  8111  0538                     u2771:	
  8112  0538  0869               	movf	??___fladd+6,w
  8113  0539  1803               	skipnc
  8114  053A  0F69               	incfsz	??___fladd+6,w
  8115  053B  2D3D               	goto	u2772
  8116  053C  2D3E               	goto	u2773
  8117  053D                     u2772:	
  8118  053D  07E5               	addwf	??___fladd+2,f
  8119  053E                     u2773:	
  8120  053E  086A               	movf	??___fladd+7,w
  8121  053F  1803               	skipnc
  8122  0540  0A6A               	incf	??___fladd+7,w
  8123  0541  07E6               	addwf	??___fladd+3,f
  8124  0542  0866               	movf	??___fladd+3,w
  8125  0543  00DE               	movwf	___fladd@b+3
  8126  0544  0865               	movf	??___fladd+2,w
  8127  0545  00DD               	movwf	___fladd@b+2
  8128  0546  0864               	movf	??___fladd+1,w
  8129  0547  00DC               	movwf	___fladd@b+1
  8130  0548  0863               	movf	??___fladd,w
  8131  0549  00DB               	movwf	___fladd@b
  8132  054A                     l2202:	
  8133  054A  3080               	movlw	128
  8134  054B  00E3               	movwf	??___fladd
  8135  054C  0863               	movf	??___fladd,w
  8136  054D  06EB               	xorwf	___fladd@signs,f
  8137  054E  09EE               	comf	___fladd@grs,f
  8138  054F  0AEE               	incf	___fladd@grs,f
  8139  0550                     l2204:	
  8140  0550  086E               	movf	___fladd@grs,w
  8141  0551  1D03               	btfss	3,2
  8142  0552  2D54               	goto	u2781
  8143  0553  2D55               	goto	u2780
  8144  0554                     u2781:	
  8145  0554  2D72               	goto	l567
  8146  0555                     u2780:	
  8147  0555                     l2206:	
  8148  0555  3001               	movlw	1
  8149  0556  07DB               	addwf	___fladd@b,f
  8150  0557  3000               	movlw	0
  8151  0558  1803               	skipnc
  8152  0559  3001               	movlw	1
  8153  055A  07DC               	addwf	___fladd@b+1,f
  8154  055B  3000               	movlw	0
  8155  055C  1803               	skipnc
  8156  055D  3001               	movlw	1
  8157  055E  07DD               	addwf	___fladd@b+2,f
  8158  055F  3000               	movlw	0
  8159  0560  1803               	skipnc
  8160  0561  3001               	movlw	1
  8161  0562  07DE               	addwf	___fladd@b+3,f
  8162  0563  2D72               	goto	l567
  8163  0564                     l2208:	
  8164  0564  085F               	movf	___fladd@a,w
  8165  0565  02DB               	subwf	___fladd@b,f
  8166  0566  0860               	movf	___fladd@a+1,w
  8167  0567  1C03               	skipc
  8168  0568  0F60               	incfsz	___fladd@a+1,w
  8169  0569  02DC               	subwf	___fladd@b+1,f
  8170  056A  0861               	movf	___fladd@a+2,w
  8171  056B  1C03               	skipc
  8172  056C  0F61               	incfsz	___fladd@a+2,w
  8173  056D  02DD               	subwf	___fladd@b+2,f
  8174  056E  0862               	movf	___fladd@a+3,w
  8175  056F  1C03               	skipc
  8176  0570  0F62               	incfsz	___fladd@a+3,w
  8177  0571  02DE               	subwf	___fladd@b+3,f
  8178  0572                     l567:	
  8179  0572  085E               	movf	___fladd@b+3,w
  8180  0573  045D               	iorwf	___fladd@b+2,w
  8181  0574  045C               	iorwf	___fladd@b+1,w
  8182  0575  045B               	iorwf	___fladd@b,w
  8183  0576  1D03               	skipz
  8184  0577  2D79               	goto	u2791
  8185  0578  2D7A               	goto	u2790
  8186  0579                     u2791:	
  8187  0579  2DA6               	goto	l2230
  8188  057A                     u2790:	
  8189  057A                     l2210:	
  8190  057A  086E               	movf	___fladd@grs,w
  8191  057B  1D03               	btfss	3,2
  8192  057C  2D7E               	goto	u2801
  8193  057D  2D7F               	goto	u2800
  8194  057E                     u2801:	
  8195  057E  2DA6               	goto	l2230
  8196  057F                     u2800:	
  8197  057F                     l2212:	
  8198  057F  3000               	movlw	0
  8199  0580  00DE               	movwf	?___fladd+3
  8200  0581  3000               	movlw	0
  8201  0582  00DD               	movwf	?___fladd+2
  8202  0583  3000               	movlw	0
  8203  0584  00DC               	movwf	?___fladd+1
  8204  0585  3000               	movlw	0
  8205  0586  00DB               	movwf	?___fladd
  8206  0587  2E24               	goto	l559
  8207  0588                     l2216:	
  8208  0588  3001               	movlw	1
  8209  0589  00E3               	movwf	??___fladd
  8210  058A                     u2815:	
  8211  058A  1003               	clrc
  8212  058B  0DDB               	rlf	___fladd@b,f
  8213  058C  0DDC               	rlf	___fladd@b+1,f
  8214  058D  0DDD               	rlf	___fladd@b+2,f
  8215  058E  0DDE               	rlf	___fladd@b+3,f
  8216  058F  0BE3               	decfsz	??___fladd,f
  8217  0590  2D8A               	goto	u2815
  8218  0591                     l2218:	
  8219  0591  1FEE               	btfss	___fladd@grs,7
  8220  0592  2D94               	goto	u2821
  8221  0593  2D95               	goto	u2820
  8222  0594                     u2821:	
  8223  0594  2D96               	goto	l571
  8224  0595                     u2820:	
  8225  0595                     l2220:	
  8226  0595  145B               	bsf	___fladd@b,0
  8227  0596                     l571:	
  8228  0596  1C6E               	btfss	___fladd@grs,0
  8229  0597  2D99               	goto	u2831
  8230  0598  2D9A               	goto	u2830
  8231  0599                     u2831:	
  8232  0599  2D9D               	goto	l2224
  8233  059A                     u2830:	
  8234  059A                     l2222:	
  8235  059A  1403               	setc
  8236  059B  0DEE               	rlf	___fladd@grs,f
  8237  059C  2D9F               	goto	l2226
  8238  059D                     l2224:	
  8239  059D  1003               	clrc
  8240  059E  0DEE               	rlf	___fladd@grs,f
  8241  059F                     l2226:	
  8242  059F  086D               	movf	___fladd@bexp,w
  8243  05A0  1903               	btfsc	3,2
  8244  05A1  2DA3               	goto	u2841
  8245  05A2  2DA4               	goto	u2840
  8246  05A3                     u2841:	
  8247  05A3  2DA6               	goto	l2230
  8248  05A4                     u2840:	
  8249  05A4                     l2228:	
  8250  05A4  3001               	movlw	1
  8251  05A5  02ED               	subwf	___fladd@bexp,f
  8252  05A6                     l2230:	
  8253  05A6  1FDD               	btfss	___fladd@b+2,7
  8254  05A7  2DA9               	goto	u2851
  8255  05A8  2DAA               	goto	u2850
  8256  05A9                     u2851:	
  8257  05A9  2D88               	goto	l2216
  8258  05AA                     u2850:	
  8259  05AA                     l2232:	
  8260  05AA  01EC               	clrf	___fladd@aexp
  8261  05AB                     l2234:	
  8262  05AB  1FEE               	btfss	___fladd@grs,7
  8263  05AC  2DAE               	goto	u2861
  8264  05AD  2DAF               	goto	u2860
  8265  05AE                     u2861:	
  8266  05AE  2DBD               	goto	l2242
  8267  05AF                     u2860:	
  8268  05AF                     l2236:	
  8269  05AF  086E               	movf	___fladd@grs,w
  8270  05B0  397F               	andlw	127
  8271  05B1  1903               	btfsc	3,2
  8272  05B2  2DB4               	goto	u2871
  8273  05B3  2DB5               	goto	u2870
  8274  05B4                     u2871:	
  8275  05B4  2DB8               	goto	l577
  8276  05B5                     u2870:	
  8277  05B5                     l2238:	
  8278  05B5  01EC               	clrf	___fladd@aexp
  8279  05B6  0AEC               	incf	___fladd@aexp,f
  8280  05B7  2DBD               	goto	l2242
  8281  05B8                     l577:	
  8282  05B8  1C5B               	btfss	___fladd@b,0
  8283  05B9  2DBB               	goto	u2881
  8284  05BA  2DBC               	goto	u2880
  8285  05BB                     u2881:	
  8286  05BB  2DBD               	goto	l2242
  8287  05BC                     u2880:	
  8288  05BC  2DB5               	goto	l2238
  8289  05BD                     l2242:	
  8290  05BD  086C               	movf	___fladd@aexp,w
  8291  05BE  1903               	btfsc	3,2
  8292  05BF  2DC1               	goto	u2891
  8293  05C0  2DC2               	goto	u2890
  8294  05C1                     u2891:	
  8295  05C1  2DF6               	goto	l580
  8296  05C2                     u2890:	
  8297  05C2                     l2244:	
  8298  05C2  3001               	movlw	1
  8299  05C3  07DB               	addwf	___fladd@b,f
  8300  05C4  3000               	movlw	0
  8301  05C5  1803               	skipnc
  8302  05C6  3001               	movlw	1
  8303  05C7  07DC               	addwf	___fladd@b+1,f
  8304  05C8  3000               	movlw	0
  8305  05C9  1803               	skipnc
  8306  05CA  3001               	movlw	1
  8307  05CB  07DD               	addwf	___fladd@b+2,f
  8308  05CC  3000               	movlw	0
  8309  05CD  1803               	skipnc
  8310  05CE  3001               	movlw	1
  8311  05CF  07DE               	addwf	___fladd@b+3,f
  8312  05D0                     l2246:	
  8313  05D0  1C5E               	btfss	___fladd@b+3,0
  8314  05D1  2DD3               	goto	u2901
  8315  05D2  2DD4               	goto	u2900
  8316  05D3                     u2901:	
  8317  05D3  2DF6               	goto	l580
  8318  05D4                     u2900:	
  8319  05D4                     l2248:	
  8320  05D4  085B               	movf	___fladd@b,w
  8321  05D5  00E3               	movwf	??___fladd
  8322  05D6  085C               	movf	___fladd@b+1,w
  8323  05D7  00E4               	movwf	??___fladd+1
  8324  05D8  085D               	movf	___fladd@b+2,w
  8325  05D9  00E5               	movwf	??___fladd+2
  8326  05DA  085E               	movf	___fladd@b+3,w
  8327  05DB  00E6               	movwf	??___fladd+3
  8328  05DC  3001               	movlw	1
  8329  05DD  00E7               	movwf	??___fladd+4
  8330  05DE                     u2915:	
  8331  05DE  0D66               	rlf	??___fladd+3,w
  8332  05DF  0CE6               	rrf	??___fladd+3,f
  8333  05E0  0CE5               	rrf	??___fladd+2,f
  8334  05E1  0CE4               	rrf	??___fladd+1,f
  8335  05E2  0CE3               	rrf	??___fladd,f
  8336  05E3                     u2910:	
  8337  05E3  0BE7               	decfsz	??___fladd+4,f
  8338  05E4  2DDE               	goto	u2915
  8339  05E5  0866               	movf	??___fladd+3,w
  8340  05E6  00DE               	movwf	___fladd@b+3
  8341  05E7  0865               	movf	??___fladd+2,w
  8342  05E8  00DD               	movwf	___fladd@b+2
  8343  05E9  0864               	movf	??___fladd+1,w
  8344  05EA  00DC               	movwf	___fladd@b+1
  8345  05EB  0863               	movf	??___fladd,w
  8346  05EC  00DB               	movwf	___fladd@b
  8347  05ED  0A6D               	incf	___fladd@bexp,w
  8348  05EE  1903               	btfsc	3,2
  8349  05EF  2DF1               	goto	u2921
  8350  05F0  2DF2               	goto	u2920
  8351  05F1                     u2921:	
  8352  05F1  2DF6               	goto	l580
  8353  05F2                     u2920:	
  8354  05F2                     l2250:	
  8355  05F2  3001               	movlw	1
  8356  05F3  00E3               	movwf	??___fladd
  8357  05F4  0863               	movf	??___fladd,w
  8358  05F5  07ED               	addwf	___fladd@bexp,f
  8359  05F6                     l580:	
  8360  05F6  0A6D               	incf	___fladd@bexp,w
  8361  05F7  1903               	btfsc	3,2
  8362  05F8  2DFA               	goto	u2931
  8363  05F9  2DFB               	goto	u2930
  8364  05FA                     u2931:	
  8365  05FA  2E00               	goto	l2254
  8366  05FB                     u2930:	
  8367  05FB                     l2252:	
  8368  05FB  086D               	movf	___fladd@bexp,w
  8369  05FC  1D03               	btfss	3,2
  8370  05FD  2DFF               	goto	u2941
  8371  05FE  2E00               	goto	u2940
  8372  05FF                     u2941:	
  8373  05FF  2E0E               	goto	l2260
  8374  0600                     u2940:	
  8375  0600                     l2254:	
  8376  0600  3000               	movlw	0
  8377  0601  00DE               	movwf	___fladd@b+3
  8378  0602  3000               	movlw	0
  8379  0603  00DD               	movwf	___fladd@b+2
  8380  0604  3000               	movlw	0
  8381  0605  00DC               	movwf	___fladd@b+1
  8382  0606  3000               	movlw	0
  8383  0607  00DB               	movwf	___fladd@b
  8384  0608                     l2256:	
  8385  0608  086D               	movf	___fladd@bexp,w
  8386  0609  1D03               	btfss	3,2
  8387  060A  2E0C               	goto	u2951
  8388  060B  2E0D               	goto	u2950
  8389  060C                     u2951:	
  8390  060C  2E0E               	goto	l2260
  8391  060D                     u2950:	
  8392  060D                     l2258:	
  8393  060D  01EB               	clrf	___fladd@signs
  8394  060E                     l2260:	
  8395  060E  1C6D               	btfss	___fladd@bexp,0
  8396  060F  2E11               	goto	u2961
  8397  0610  2E12               	goto	u2960
  8398  0611                     u2961:	
  8399  0611  2E14               	goto	l2264
  8400  0612                     u2960:	
  8401  0612                     l2262:	
  8402  0612  17DD               	bsf	___fladd@b+2,7
  8403  0613  2E18               	goto	l588
  8404  0614                     l2264:	
  8405  0614  307F               	movlw	127
  8406  0615  00E3               	movwf	??___fladd
  8407  0616  0863               	movf	??___fladd,w
  8408  0617  05DD               	andwf	___fladd@b+2,f
  8409  0618                     l588:	
  8410  0618  086D               	movf	___fladd@bexp,w
  8411  0619  00E3               	movwf	??___fladd
  8412  061A  1003               	clrc
  8413  061B  0C63               	rrf	??___fladd,w
  8414  061C  00E4               	movwf	??___fladd+1
  8415  061D  0864               	movf	??___fladd+1,w
  8416  061E  00DE               	movwf	___fladd@b+3
  8417  061F                     l2266:	
  8418  061F  1FEB               	btfss	___fladd@signs,7
  8419  0620  2E22               	goto	u2971
  8420  0621  2E23               	goto	u2970
  8421  0622                     u2971:	
  8422  0622  2E24               	goto	l589
  8423  0623                     u2970:	
  8424  0623                     l2268:	
  8425  0623  17DE               	bsf	___fladd@b+3,7
  8426  0624                     l589:	
  8427  0624                     l559:	
  8428  0624  0008               	return
  8429  0625                     __end_of___fladd:	
  8430                           
  8431                           	psect	text20
  8432  1D39                     __ptext20:	
  8433 ;; *************** function ___flneg *****************
  8434 ;; Defined at:
  8435 ;;		line 15 in file "C:\Program Files (x86)\Microchip\xc8\v2.10\pic\sources\c90\common\flneg.c"
  8436 ;; Parameters:    Size  Location     Type
  8437 ;;  f1              4    0[BANK0 ] unsigned char 
  8438 ;; Auto vars:     Size  Location     Type
  8439 ;;		None
  8440 ;; Return value:  Size  Location     Type
  8441 ;;                  4    0[BANK0 ] unsigned char 
  8442 ;; Registers used:
  8443 ;;		wreg
  8444 ;; Tracked objects:
  8445 ;;		On entry : 0/0
  8446 ;;		On exit  : 0/0
  8447 ;;		Unchanged: 0/0
  8448 ;; Data sizes:     COMMON   BANK0   BANK1   BANK3   BANK2
  8449 ;;      Params:         0       4       0       0       0
  8450 ;;      Locals:         0       0       0       0       0
  8451 ;;      Temps:          0       0       0       0       0
  8452 ;;      Totals:         0       4       0       0       0
  8453 ;;Total ram usage:        4 bytes
  8454 ;; Hardware stack levels used:    1
  8455 ;; Hardware stack levels required when called:    1
  8456 ;; This function calls:
  8457 ;;		Nothing
  8458 ;; This function is called by:
  8459 ;;		_pow
  8460 ;;		_exp
  8461 ;; This function uses a non-reentrant model
  8462 ;;
  8463                           
  8464                           
  8465                           ;psect for function ___flneg
  8466  1D39                     ___flneg:	
  8467  1D39                     l2474:	
  8468                           ;incstack = 0
  8469                           ; Regs used in ___flneg: [wreg]
  8470                           
  8471  1D39  1283               	bcf	3,5	;RP0=0, select bank0
  8472  1D3A  1303               	bcf	3,6	;RP1=0, select bank0
  8473  1D3B  0823               	movf	___flneg@f1+3,w
  8474  1D3C  0422               	iorwf	___flneg@f1+2,w
  8475  1D3D  0421               	iorwf	___flneg@f1+1,w
  8476  1D3E  0420               	iorwf	___flneg@f1,w
  8477  1D3F  1903               	skipnz
  8478  1D40  2D42               	goto	u3501
  8479  1D41  2D43               	goto	u3500
  8480  1D42                     u3501:	
  8481  1D42  2D45               	goto	l2478
  8482  1D43                     u3500:	
  8483  1D43                     l2476:	
  8484  1D43  3080               	movlw	128
  8485  1D44  06A3               	xorwf	___flneg@f1+3,f
  8486  1D45                     l2478:	
  8487  1D45                     l435:	
  8488  1D45  0008               	return
  8489  1D46                     __end_of___flneg:	
  8490                           
  8491                           	psect	text21
  8492  1623                     __ptext21:	
  8493 ;; *************** function ___fldiv *****************
  8494 ;; Defined at:
  8495 ;;		line 8 in file "C:\Program Files (x86)\Microchip\xc8\v2.10\pic\sources\c90\common\sprcdiv.c"
  8496 ;; Parameters:    Size  Location     Type
  8497 ;;  a               4    0[BANK0 ] unsigned char 
  8498 ;;  b               4    4[BANK0 ] unsigned char 
  8499 ;; Auto vars:     Size  Location     Type
  8500 ;;  grs             4   20[BANK0 ] unsigned long 
  8501 ;;  rem             4   13[BANK0 ] unsigned long 
  8502 ;;  new_exp         2   18[BANK0 ] int 
  8503 ;;  aexp            1   25[BANK0 ] unsigned char 
  8504 ;;  bexp            1   24[BANK0 ] unsigned char 
  8505 ;;  sign            1   17[BANK0 ] unsigned char 
  8506 ;; Return value:  Size  Location     Type
  8507 ;;                  4    0[BANK0 ] unsigned char 
  8508 ;; Registers used:
  8509 ;;		wreg, status,2, status,0, btemp+1
  8510 ;; Tracked objects:
  8511 ;;		On entry : 0/0
  8512 ;;		On exit  : 0/0
  8513 ;;		Unchanged: 0/0
  8514 ;; Data sizes:     COMMON   BANK0   BANK1   BANK3   BANK2
  8515 ;;      Params:         0       8       0       0       0
  8516 ;;      Locals:         0      13       0       0       0
  8517 ;;      Temps:          0       5       0       0       0
  8518 ;;      Totals:         0      26       0       0       0
  8519 ;;Total ram usage:       26 bytes
  8520 ;; Hardware stack levels used:    1
  8521 ;; Hardware stack levels required when called:    1
  8522 ;; This function calls:
  8523 ;;		Nothing
  8524 ;; This function is called by:
  8525 ;;		_exp
  8526 ;; This function uses a non-reentrant model
  8527 ;;
  8528                           
  8529                           
  8530                           ;psect for function ___fldiv
  8531  1623                     ___fldiv:	
  8532  1623                     l2488:	
  8533                           ;incstack = 0
  8534                           ; Regs used in ___fldiv: [wreg+status,2+status,0+btemp+1]
  8535                           
  8536  1623  1283               	bcf	3,5	;RP0=0, select bank0
  8537  1624  1303               	bcf	3,6	;RP1=0, select bank0
  8538  1625  0827               	movf	___fldiv@b+3,w
  8539  1626  3980               	andlw	128
  8540  1627  00A8               	movwf	??___fldiv
  8541  1628  0828               	movf	??___fldiv,w
  8542  1629  00B1               	movwf	___fldiv@sign
  8543  162A                     l2490:	
  8544  162A  0827               	movf	___fldiv@b+3,w
  8545  162B  00A8               	movwf	??___fldiv
  8546  162C  0728               	addwf	??___fldiv,w
  8547  162D  00A9               	movwf	??___fldiv+1
  8548  162E  0829               	movf	??___fldiv+1,w
  8549  162F  00B8               	movwf	___fldiv@bexp
  8550  1630                     l2492:	
  8551  1630  1FA6               	btfss	___fldiv@b+2,7
  8552  1631  2E33               	goto	u3511
  8553  1632  2E34               	goto	u3510
  8554  1633                     u3511:	
  8555  1633  2E35               	goto	l2496
  8556  1634                     u3510:	
  8557  1634                     l2494:	
  8558  1634  1438               	bsf	___fldiv@bexp,0
  8559  1635                     l2496:	
  8560  1635  0838               	movf	___fldiv@bexp,w
  8561  1636  1903               	btfsc	3,2
  8562  1637  2E39               	goto	u3521
  8563  1638  2E3A               	goto	u3520
  8564  1639                     u3521:	
  8565  1639  2E4A               	goto	l2506
  8566  163A                     u3520:	
  8567  163A                     l2498:	
  8568  163A  0A38               	incf	___fldiv@bexp,w
  8569  163B  1D03               	btfss	3,2
  8570  163C  2E3E               	goto	u3531
  8571  163D  2E3F               	goto	u3530
  8572  163E                     u3531:	
  8573  163E  2E47               	goto	l2502
  8574  163F                     u3530:	
  8575  163F                     l2500:	
  8576  163F  3000               	movlw	0
  8577  1640  00A7               	movwf	___fldiv@b+3
  8578  1641  3000               	movlw	0
  8579  1642  00A6               	movwf	___fldiv@b+2
  8580  1643  3000               	movlw	0
  8581  1644  00A5               	movwf	___fldiv@b+1
  8582  1645  3000               	movlw	0
  8583  1646  00A4               	movwf	___fldiv@b
  8584  1647                     l2502:	
  8585  1647  17A6               	bsf	___fldiv@b+2,7
  8586  1648                     l2504:	
  8587  1648  01A7               	clrf	___fldiv@b+3
  8588  1649  2E52               	goto	l2508
  8589  164A                     l2506:	
  8590  164A  3000               	movlw	0
  8591  164B  00A7               	movwf	___fldiv@b+3
  8592  164C  3000               	movlw	0
  8593  164D  00A6               	movwf	___fldiv@b+2
  8594  164E  3000               	movlw	0
  8595  164F  00A5               	movwf	___fldiv@b+1
  8596  1650  3000               	movlw	0
  8597  1651  00A4               	movwf	___fldiv@b
  8598  1652                     l2508:	
  8599  1652  0823               	movf	___fldiv@a+3,w
  8600  1653  3980               	andlw	128
  8601  1654  00A8               	movwf	??___fldiv
  8602  1655  0828               	movf	??___fldiv,w
  8603  1656  06B1               	xorwf	___fldiv@sign,f
  8604  1657                     l2510:	
  8605  1657  0823               	movf	___fldiv@a+3,w
  8606  1658  00A8               	movwf	??___fldiv
  8607  1659  0728               	addwf	??___fldiv,w
  8608  165A  00A9               	movwf	??___fldiv+1
  8609  165B  0829               	movf	??___fldiv+1,w
  8610  165C  00B9               	movwf	___fldiv@aexp
  8611  165D                     l2512:	
  8612  165D  1FA2               	btfss	___fldiv@a+2,7
  8613  165E  2E60               	goto	u3541
  8614  165F  2E61               	goto	u3540
  8615  1660                     u3541:	
  8616  1660  2E62               	goto	l2516
  8617  1661                     u3540:	
  8618  1661                     l2514:	
  8619  1661  1439               	bsf	___fldiv@aexp,0
  8620  1662                     l2516:	
  8621  1662  0839               	movf	___fldiv@aexp,w
  8622  1663  1903               	btfsc	3,2
  8623  1664  2E66               	goto	u3551
  8624  1665  2E67               	goto	u3550
  8625  1666                     u3551:	
  8626  1666  2E77               	goto	l2526
  8627  1667                     u3550:	
  8628  1667                     l2518:	
  8629  1667  0A39               	incf	___fldiv@aexp,w
  8630  1668  1D03               	btfss	3,2
  8631  1669  2E6B               	goto	u3561
  8632  166A  2E6C               	goto	u3560
  8633  166B                     u3561:	
  8634  166B  2E74               	goto	l2522
  8635  166C                     u3560:	
  8636  166C                     l2520:	
  8637  166C  3000               	movlw	0
  8638  166D  00A3               	movwf	___fldiv@a+3
  8639  166E  3000               	movlw	0
  8640  166F  00A2               	movwf	___fldiv@a+2
  8641  1670  3000               	movlw	0
  8642  1671  00A1               	movwf	___fldiv@a+1
  8643  1672  3000               	movlw	0
  8644  1673  00A0               	movwf	___fldiv@a
  8645  1674                     l2522:	
  8646  1674  17A2               	bsf	___fldiv@a+2,7
  8647  1675                     l2524:	
  8648  1675  01A3               	clrf	___fldiv@a+3
  8649  1676  2E7F               	goto	l602
  8650  1677                     l2526:	
  8651  1677  3000               	movlw	0
  8652  1678  00A3               	movwf	___fldiv@a+3
  8653  1679  3000               	movlw	0
  8654  167A  00A2               	movwf	___fldiv@a+2
  8655  167B  3000               	movlw	0
  8656  167C  00A1               	movwf	___fldiv@a+1
  8657  167D  3000               	movlw	0
  8658  167E  00A0               	movwf	___fldiv@a
  8659  167F                     l602:	
  8660  167F  0823               	movf	___fldiv@a+3,w
  8661  1680  0422               	iorwf	___fldiv@a+2,w
  8662  1681  0421               	iorwf	___fldiv@a+1,w
  8663  1682  0420               	iorwf	___fldiv@a,w
  8664  1683  1D03               	skipz
  8665  1684  2E86               	goto	u3571
  8666  1685  2E87               	goto	u3570
  8667  1686                     u3571:	
  8668  1686  2EA0               	goto	l2536
  8669  1687                     u3570:	
  8670  1687                     l2528:	
  8671  1687  3000               	movlw	0
  8672  1688  00A7               	movwf	___fldiv@b+3
  8673  1689  3000               	movlw	0
  8674  168A  00A6               	movwf	___fldiv@b+2
  8675  168B  3000               	movlw	0
  8676  168C  00A5               	movwf	___fldiv@b+1
  8677  168D  3000               	movlw	0
  8678  168E  00A4               	movwf	___fldiv@b
  8679  168F  3080               	movlw	128
  8680  1690  04A6               	iorwf	___fldiv@b+2,f
  8681  1691  307F               	movlw	127
  8682  1692  04A7               	iorwf	___fldiv@b+3,f
  8683  1693                     l2530:	
  8684  1693  0831               	movf	___fldiv@sign,w
  8685  1694  00A8               	movwf	??___fldiv
  8686  1695  0828               	movf	??___fldiv,w
  8687  1696  04A7               	iorwf	___fldiv@b+3,f
  8688  1697                     l2532:	
  8689  1697  0827               	movf	___fldiv@b+3,w
  8690  1698  00A3               	movwf	?___fldiv+3
  8691  1699  0826               	movf	___fldiv@b+2,w
  8692  169A  00A2               	movwf	?___fldiv+2
  8693  169B  0825               	movf	___fldiv@b+1,w
  8694  169C  00A1               	movwf	?___fldiv+1
  8695  169D  0824               	movf	___fldiv@b,w
  8696  169E  00A0               	movwf	?___fldiv
  8697  169F  2FFF               	goto	l604
  8698  16A0                     l2536:	
  8699  16A0  0838               	movf	___fldiv@bexp,w
  8700  16A1  1D03               	btfss	3,2
  8701  16A2  2EA4               	goto	u3581
  8702  16A3  2EA5               	goto	u3580
  8703  16A4                     u3581:	
  8704  16A4  2EAE               	goto	l2542
  8705  16A5                     u3580:	
  8706  16A5                     l2538:	
  8707  16A5  3000               	movlw	0
  8708  16A6  00A3               	movwf	?___fldiv+3
  8709  16A7  3000               	movlw	0
  8710  16A8  00A2               	movwf	?___fldiv+2
  8711  16A9  3000               	movlw	0
  8712  16AA  00A1               	movwf	?___fldiv+1
  8713  16AB  3000               	movlw	0
  8714  16AC  00A0               	movwf	?___fldiv
  8715  16AD  2FFF               	goto	l604
  8716  16AE                     l2542:	
  8717  16AE  0838               	movf	___fldiv@bexp,w
  8718  16AF  00A8               	movwf	??___fldiv
  8719  16B0  01A9               	clrf	??___fldiv+1
  8720  16B1  0829               	movf	??___fldiv+1,w
  8721  16B2  00AB               	movwf	??___fldiv+3
  8722  16B3  0839               	movf	___fldiv@aexp,w
  8723  16B4  0228               	subwf	??___fldiv,w
  8724  16B5  00AA               	movwf	??___fldiv+2
  8725  16B6  1C03               	skipc
  8726  16B7  03AB               	decf	??___fldiv+3,f
  8727  16B8  082A               	movf	??___fldiv+2,w
  8728  16B9  3E7F               	addlw	127
  8729  16BA  00B2               	movwf	___fldiv@new_exp
  8730  16BB  082B               	movf	??___fldiv+3,w
  8731  16BC  1803               	skipnc
  8732  16BD  3E01               	addlw	1
  8733  16BE  3E00               	addlw	0
  8734  16BF  00B3               	movwf	___fldiv@new_exp+1
  8735  16C0                     l2544:	
  8736  16C0  0827               	movf	___fldiv@b+3,w
  8737  16C1  00B0               	movwf	___fldiv@rem+3
  8738  16C2  0826               	movf	___fldiv@b+2,w
  8739  16C3  00AF               	movwf	___fldiv@rem+2
  8740  16C4  0825               	movf	___fldiv@b+1,w
  8741  16C5  00AE               	movwf	___fldiv@rem+1
  8742  16C6  0824               	movf	___fldiv@b,w
  8743  16C7  00AD               	movwf	___fldiv@rem
  8744  16C8                     l2546:	
  8745  16C8  3000               	movlw	0
  8746  16C9  00A7               	movwf	___fldiv@b+3
  8747  16CA  3000               	movlw	0
  8748  16CB  00A6               	movwf	___fldiv@b+2
  8749  16CC  3000               	movlw	0
  8750  16CD  00A5               	movwf	___fldiv@b+1
  8751  16CE  3000               	movlw	0
  8752  16CF  00A4               	movwf	___fldiv@b
  8753  16D0                     l2548:	
  8754  16D0  3000               	movlw	0
  8755  16D1  00B7               	movwf	___fldiv@grs+3
  8756  16D2  3000               	movlw	0
  8757  16D3  00B6               	movwf	___fldiv@grs+2
  8758  16D4  3000               	movlw	0
  8759  16D5  00B5               	movwf	___fldiv@grs+1
  8760  16D6  3000               	movlw	0
  8761  16D7  00B4               	movwf	___fldiv@grs
  8762  16D8                     l2550:	
  8763  16D8  01B9               	clrf	___fldiv@aexp
  8764  16D9  2F24               	goto	l2570
  8765  16DA                     l2552:	
  8766  16DA  0839               	movf	___fldiv@aexp,w
  8767  16DB  1903               	btfsc	3,2
  8768  16DC  2EDE               	goto	u3591
  8769  16DD  2EDF               	goto	u3590
  8770  16DE                     u3591:	
  8771  16DE  2EFF               	goto	l2562
  8772  16DF                     u3590:	
  8773  16DF                     l2554:	
  8774  16DF  3001               	movlw	1
  8775  16E0  00A8               	movwf	??___fldiv
  8776  16E1                     u3605:	
  8777  16E1  1003               	clrc
  8778  16E2  0DAD               	rlf	___fldiv@rem,f
  8779  16E3  0DAE               	rlf	___fldiv@rem+1,f
  8780  16E4  0DAF               	rlf	___fldiv@rem+2,f
  8781  16E5  0DB0               	rlf	___fldiv@rem+3,f
  8782  16E6  0BA8               	decfsz	??___fldiv,f
  8783  16E7  2EE1               	goto	u3605
  8784  16E8  3001               	movlw	1
  8785  16E9  00A8               	movwf	??___fldiv
  8786  16EA                     u3615:	
  8787  16EA  1003               	clrc
  8788  16EB  0DA4               	rlf	___fldiv@b,f
  8789  16EC  0DA5               	rlf	___fldiv@b+1,f
  8790  16ED  0DA6               	rlf	___fldiv@b+2,f
  8791  16EE  0DA7               	rlf	___fldiv@b+3,f
  8792  16EF  0BA8               	decfsz	??___fldiv,f
  8793  16F0  2EEA               	goto	u3615
  8794  16F1                     l2556:	
  8795  16F1  1FB7               	btfss	___fldiv@grs+3,7
  8796  16F2  2EF4               	goto	u3621
  8797  16F3  2EF5               	goto	u3620
  8798  16F4                     u3621:	
  8799  16F4  2EF6               	goto	l2560
  8800  16F5                     u3620:	
  8801  16F5                     l2558:	
  8802  16F5  1424               	bsf	___fldiv@b,0
  8803  16F6                     l2560:	
  8804  16F6  3001               	movlw	1
  8805  16F7  00A8               	movwf	??___fldiv
  8806  16F8                     u3635:	
  8807  16F8  1003               	clrc
  8808  16F9  0DB4               	rlf	___fldiv@grs,f
  8809  16FA  0DB5               	rlf	___fldiv@grs+1,f
  8810  16FB  0DB6               	rlf	___fldiv@grs+2,f
  8811  16FC  0DB7               	rlf	___fldiv@grs+3,f
  8812  16FD  0BA8               	decfsz	??___fldiv,f
  8813  16FE  2EF8               	goto	u3635
  8814  16FF                     l2562:	
  8815  16FF  0823               	movf	___fldiv@a+3,w
  8816  1700  0230               	subwf	___fldiv@rem+3,w
  8817  1701  1D03               	skipz
  8818  1702  2F0D               	goto	u3645
  8819  1703  0822               	movf	___fldiv@a+2,w
  8820  1704  022F               	subwf	___fldiv@rem+2,w
  8821  1705  1D03               	skipz
  8822  1706  2F0D               	goto	u3645
  8823  1707  0821               	movf	___fldiv@a+1,w
  8824  1708  022E               	subwf	___fldiv@rem+1,w
  8825  1709  1D03               	skipz
  8826  170A  2F0D               	goto	u3645
  8827  170B  0820               	movf	___fldiv@a,w
  8828  170C  022D               	subwf	___fldiv@rem,w
  8829  170D                     u3645:	
  8830  170D  1C03               	skipc
  8831  170E  2F10               	goto	u3641
  8832  170F  2F11               	goto	u3640
  8833  1710                     u3641:	
  8834  1710  2F20               	goto	l2568
  8835  1711                     u3640:	
  8836  1711                     l2564:	
  8837  1711  1737               	bsf	___fldiv@grs+3,6
  8838  1712                     l2566:	
  8839  1712  0820               	movf	___fldiv@a,w
  8840  1713  02AD               	subwf	___fldiv@rem,f
  8841  1714  0821               	movf	___fldiv@a+1,w
  8842  1715  1C03               	skipc
  8843  1716  0F21               	incfsz	___fldiv@a+1,w
  8844  1717  02AE               	subwf	___fldiv@rem+1,f
  8845  1718  0822               	movf	___fldiv@a+2,w
  8846  1719  1C03               	skipc
  8847  171A  0F22               	incfsz	___fldiv@a+2,w
  8848  171B  02AF               	subwf	___fldiv@rem+2,f
  8849  171C  0823               	movf	___fldiv@a+3,w
  8850  171D  1C03               	skipc
  8851  171E  0F23               	incfsz	___fldiv@a+3,w
  8852  171F  02B0               	subwf	___fldiv@rem+3,f
  8853  1720                     l2568:	
  8854  1720  3001               	movlw	1
  8855  1721  00A8               	movwf	??___fldiv
  8856  1722  0828               	movf	??___fldiv,w
  8857  1723  07B9               	addwf	___fldiv@aexp,f
  8858  1724                     l2570:	
  8859  1724  301A               	movlw	26
  8860  1725  0239               	subwf	___fldiv@aexp,w
  8861  1726  1C03               	skipc
  8862  1727  2F29               	goto	u3651
  8863  1728  2F2A               	goto	u3650
  8864  1729                     u3651:	
  8865  1729  2EDA               	goto	l2552
  8866  172A                     u3650:	
  8867  172A                     l2572:	
  8868  172A  0830               	movf	___fldiv@rem+3,w
  8869  172B  042F               	iorwf	___fldiv@rem+2,w
  8870  172C  042E               	iorwf	___fldiv@rem+1,w
  8871  172D  042D               	iorwf	___fldiv@rem,w
  8872  172E  1903               	skipnz
  8873  172F  2F31               	goto	u3661
  8874  1730  2F32               	goto	u3660
  8875  1731                     u3661:	
  8876  1731  2F51               	goto	l2586
  8877  1732                     u3660:	
  8878  1732                     l2574:	
  8879  1732  1434               	bsf	___fldiv@grs,0
  8880  1733  2F51               	goto	l2586
  8881  1734                     l2576:	
  8882  1734  3001               	movlw	1
  8883  1735  00A8               	movwf	??___fldiv
  8884  1736                     u3675:	
  8885  1736  1003               	clrc
  8886  1737  0DA4               	rlf	___fldiv@b,f
  8887  1738  0DA5               	rlf	___fldiv@b+1,f
  8888  1739  0DA6               	rlf	___fldiv@b+2,f
  8889  173A  0DA7               	rlf	___fldiv@b+3,f
  8890  173B  0BA8               	decfsz	??___fldiv,f
  8891  173C  2F36               	goto	u3675
  8892  173D                     l2578:	
  8893  173D  1FB7               	btfss	___fldiv@grs+3,7
  8894  173E  2F40               	goto	u3681
  8895  173F  2F41               	goto	u3680
  8896  1740                     u3681:	
  8897  1740  2F42               	goto	l2582
  8898  1741                     u3680:	
  8899  1741                     l2580:	
  8900  1741  1424               	bsf	___fldiv@b,0
  8901  1742                     l2582:	
  8902  1742  3001               	movlw	1
  8903  1743  00A8               	movwf	??___fldiv
  8904  1744                     u3695:	
  8905  1744  1003               	clrc
  8906  1745  0DB4               	rlf	___fldiv@grs,f
  8907  1746  0DB5               	rlf	___fldiv@grs+1,f
  8908  1747  0DB6               	rlf	___fldiv@grs+2,f
  8909  1748  0DB7               	rlf	___fldiv@grs+3,f
  8910  1749  0BA8               	decfsz	??___fldiv,f
  8911  174A  2F44               	goto	u3695
  8912  174B                     l2584:	
  8913  174B  30FF               	movlw	255
  8914  174C  07B2               	addwf	___fldiv@new_exp,f
  8915  174D  1803               	skipnc
  8916  174E  0AB3               	incf	___fldiv@new_exp+1,f
  8917  174F  30FF               	movlw	255
  8918  1750  07B3               	addwf	___fldiv@new_exp+1,f
  8919  1751                     l2586:	
  8920  1751  1FA6               	btfss	___fldiv@b+2,7
  8921  1752  2F54               	goto	u3701
  8922  1753  2F55               	goto	u3700
  8923  1754                     u3701:	
  8924  1754  2F34               	goto	l2576
  8925  1755                     u3700:	
  8926  1755                     l2588:	
  8927  1755  01B9               	clrf	___fldiv@aexp
  8928  1756                     l2590:	
  8929  1756  1FB7               	btfss	___fldiv@grs+3,7
  8930  1757  2F59               	goto	u3711
  8931  1758  2F5A               	goto	u3710
  8932  1759                     u3711:	
  8933  1759  2F76               	goto	l2598
  8934  175A                     u3710:	
  8935  175A                     l2592:	
  8936  175A  30FF               	movlw	255
  8937  175B  0534               	andwf	___fldiv@grs,w
  8938  175C  00A8               	movwf	??___fldiv
  8939  175D  30FF               	movlw	255
  8940  175E  0535               	andwf	___fldiv@grs+1,w
  8941  175F  00A9               	movwf	??___fldiv+1
  8942  1760  30FF               	movlw	255
  8943  1761  0536               	andwf	___fldiv@grs+2,w
  8944  1762  00AA               	movwf	??___fldiv+2
  8945  1763  307F               	movlw	127
  8946  1764  0537               	andwf	___fldiv@grs+3,w
  8947  1765  00AB               	movwf	??___fldiv+3
  8948  1766  082B               	movf	??___fldiv+3,w
  8949  1767  042A               	iorwf	??___fldiv+2,w
  8950  1768  0429               	iorwf	??___fldiv+1,w
  8951  1769  0428               	iorwf	??___fldiv,w
  8952  176A  1903               	skipnz
  8953  176B  2F6D               	goto	u3721
  8954  176C  2F6E               	goto	u3720
  8955  176D                     u3721:	
  8956  176D  2F71               	goto	l618
  8957  176E                     u3720:	
  8958  176E                     l2594:	
  8959  176E  01B9               	clrf	___fldiv@aexp
  8960  176F  0AB9               	incf	___fldiv@aexp,f
  8961  1770  2F76               	goto	l2598
  8962  1771                     l618:	
  8963  1771  1C24               	btfss	___fldiv@b,0
  8964  1772  2F74               	goto	u3731
  8965  1773  2F75               	goto	u3730
  8966  1774                     u3731:	
  8967  1774  2F76               	goto	l2598
  8968  1775                     u3730:	
  8969  1775  2F6E               	goto	l2594
  8970  1776                     l2598:	
  8971  1776  0839               	movf	___fldiv@aexp,w
  8972  1777  1903               	btfsc	3,2
  8973  1778  2F7A               	goto	u3741
  8974  1779  2F7B               	goto	u3740
  8975  177A                     u3741:	
  8976  177A  2FAC               	goto	l2608
  8977  177B                     u3740:	
  8978  177B                     l2600:	
  8979  177B  3001               	movlw	1
  8980  177C  07A4               	addwf	___fldiv@b,f
  8981  177D  3000               	movlw	0
  8982  177E  1803               	skipnc
  8983  177F  3001               	movlw	1
  8984  1780  07A5               	addwf	___fldiv@b+1,f
  8985  1781  3000               	movlw	0
  8986  1782  1803               	skipnc
  8987  1783  3001               	movlw	1
  8988  1784  07A6               	addwf	___fldiv@b+2,f
  8989  1785  3000               	movlw	0
  8990  1786  1803               	skipnc
  8991  1787  3001               	movlw	1
  8992  1788  07A7               	addwf	___fldiv@b+3,f
  8993  1789                     l2602:	
  8994  1789  1C27               	btfss	___fldiv@b+3,0
  8995  178A  2F8C               	goto	u3751
  8996  178B  2F8D               	goto	u3750
  8997  178C                     u3751:	
  8998  178C  2FAC               	goto	l2608
  8999  178D                     u3750:	
  9000  178D                     l2604:	
  9001  178D  0824               	movf	___fldiv@b,w
  9002  178E  00A8               	movwf	??___fldiv
  9003  178F  0825               	movf	___fldiv@b+1,w
  9004  1790  00A9               	movwf	??___fldiv+1
  9005  1791  0826               	movf	___fldiv@b+2,w
  9006  1792  00AA               	movwf	??___fldiv+2
  9007  1793  0827               	movf	___fldiv@b+3,w
  9008  1794  00AB               	movwf	??___fldiv+3
  9009  1795  3001               	movlw	1
  9010  1796  00AC               	movwf	??___fldiv+4
  9011  1797                     u3765:	
  9012  1797  0D2B               	rlf	??___fldiv+3,w
  9013  1798  0CAB               	rrf	??___fldiv+3,f
  9014  1799  0CAA               	rrf	??___fldiv+2,f
  9015  179A  0CA9               	rrf	??___fldiv+1,f
  9016  179B  0CA8               	rrf	??___fldiv,f
  9017  179C                     u3760:	
  9018  179C  0BAC               	decfsz	??___fldiv+4,f
  9019  179D  2F97               	goto	u3765
  9020  179E  082B               	movf	??___fldiv+3,w
  9021  179F  00A7               	movwf	___fldiv@b+3
  9022  17A0  082A               	movf	??___fldiv+2,w
  9023  17A1  00A6               	movwf	___fldiv@b+2
  9024  17A2  0829               	movf	??___fldiv+1,w
  9025  17A3  00A5               	movwf	___fldiv@b+1
  9026  17A4  0828               	movf	??___fldiv,w
  9027  17A5  00A4               	movwf	___fldiv@b
  9028  17A6                     l2606:	
  9029  17A6  3001               	movlw	1
  9030  17A7  07B2               	addwf	___fldiv@new_exp,f
  9031  17A8  1803               	skipnc
  9032  17A9  0AB3               	incf	___fldiv@new_exp+1,f
  9033  17AA  3000               	movlw	0
  9034  17AB  07B3               	addwf	___fldiv@new_exp+1,f
  9035  17AC                     l2608:	
  9036  17AC  0833               	movf	___fldiv@new_exp+1,w
  9037  17AD  3A80               	xorlw	128
  9038  17AE  00FF               	movwf	btemp+1
  9039  17AF  3080               	movlw	128
  9040  17B0  027F               	subwf	btemp+1,w
  9041  17B1  1D03               	skipz
  9042  17B2  2FB5               	goto	u3775
  9043  17B3  30FF               	movlw	255
  9044  17B4  0232               	subwf	___fldiv@new_exp,w
  9045  17B5                     u3775:	
  9046  17B5  1C03               	skipc
  9047  17B6  2FB8               	goto	u3771
  9048  17B7  2FB9               	goto	u3770
  9049  17B8                     u3771:	
  9050  17B8  2FC7               	goto	l2612
  9051  17B9                     u3770:	
  9052  17B9                     l2610:	
  9053  17B9  30FF               	movlw	255
  9054  17BA  1283               	bcf	3,5	;RP0=0, select bank0
  9055  17BB  1303               	bcf	3,6	;RP1=0, select bank0
  9056  17BC  00B2               	movwf	___fldiv@new_exp
  9057  17BD  3000               	movlw	0
  9058  17BE  00B3               	movwf	___fldiv@new_exp+1
  9059  17BF  3000               	movlw	0
  9060  17C0  00A7               	movwf	___fldiv@b+3
  9061  17C1  3000               	movlw	0
  9062  17C2  00A6               	movwf	___fldiv@b+2
  9063  17C3  3000               	movlw	0
  9064  17C4  00A5               	movwf	___fldiv@b+1
  9065  17C5  3000               	movlw	0
  9066  17C6  00A4               	movwf	___fldiv@b
  9067  17C7                     l2612:	
  9068  17C7  1283               	bcf	3,5	;RP0=0, select bank0
  9069  17C8  1303               	bcf	3,6	;RP1=0, select bank0
  9070  17C9  0833               	movf	___fldiv@new_exp+1,w
  9071  17CA  3A80               	xorlw	128
  9072  17CB  00FF               	movwf	btemp+1
  9073  17CC  3080               	movlw	128
  9074  17CD  027F               	subwf	btemp+1,w
  9075  17CE  1D03               	skipz
  9076  17CF  2FD2               	goto	u3785
  9077  17D0  3001               	movlw	1
  9078  17D1  0232               	subwf	___fldiv@new_exp,w
  9079  17D2                     u3785:	
  9080  17D2  1803               	skipnc
  9081  17D3  2FD5               	goto	u3781
  9082  17D4  2FD6               	goto	u3780
  9083  17D5                     u3781:	
  9084  17D5  2FE3               	goto	l624
  9085  17D6                     u3780:	
  9086  17D6                     l2614:	
  9087  17D6  1283               	bcf	3,5	;RP0=0, select bank0
  9088  17D7  1303               	bcf	3,6	;RP1=0, select bank0
  9089  17D8  01B2               	clrf	___fldiv@new_exp
  9090  17D9  01B3               	clrf	___fldiv@new_exp+1
  9091  17DA                     l2616:	
  9092  17DA  3000               	movlw	0
  9093  17DB  00A7               	movwf	___fldiv@b+3
  9094  17DC  3000               	movlw	0
  9095  17DD  00A6               	movwf	___fldiv@b+2
  9096  17DE  3000               	movlw	0
  9097  17DF  00A5               	movwf	___fldiv@b+1
  9098  17E0  3000               	movlw	0
  9099  17E1  00A4               	movwf	___fldiv@b
  9100  17E2                     l2618:	
  9101  17E2  01B1               	clrf	___fldiv@sign
  9102  17E3                     l624:	
  9103  17E3  1283               	bcf	3,5	;RP0=0, select bank0
  9104  17E4  1303               	bcf	3,6	;RP1=0, select bank0
  9105  17E5  0832               	movf	___fldiv@new_exp,w
  9106  17E6  00A8               	movwf	??___fldiv
  9107  17E7  0828               	movf	??___fldiv,w
  9108  17E8  00B8               	movwf	___fldiv@bexp
  9109  17E9                     l2620:	
  9110  17E9  1C38               	btfss	___fldiv@bexp,0
  9111  17EA  2FEC               	goto	u3791
  9112  17EB  2FED               	goto	u3790
  9113  17EC                     u3791:	
  9114  17EC  2FEF               	goto	l2624
  9115  17ED                     u3790:	
  9116  17ED                     l2622:	
  9117  17ED  17A6               	bsf	___fldiv@b+2,7
  9118  17EE  2FF3               	goto	l626
  9119  17EF                     l2624:	
  9120  17EF  307F               	movlw	127
  9121  17F0  00A8               	movwf	??___fldiv
  9122  17F1  0828               	movf	??___fldiv,w
  9123  17F2  05A6               	andwf	___fldiv@b+2,f
  9124  17F3                     l626:	
  9125  17F3  0838               	movf	___fldiv@bexp,w
  9126  17F4  00A8               	movwf	??___fldiv
  9127  17F5  1003               	clrc
  9128  17F6  0C28               	rrf	??___fldiv,w
  9129  17F7  00A9               	movwf	??___fldiv+1
  9130  17F8  0829               	movf	??___fldiv+1,w
  9131  17F9  00A7               	movwf	___fldiv@b+3
  9132  17FA  0831               	movf	___fldiv@sign,w
  9133  17FB  00A8               	movwf	??___fldiv
  9134  17FC  0828               	movf	??___fldiv,w
  9135  17FD  04A7               	iorwf	___fldiv@b+3,f
  9136  17FE  2E97               	goto	l2532
  9137  17FF                     l604:	
  9138  17FF  0008               	return
  9139  1800                     __end_of___fldiv:	
  9140                           
  9141                           	psect	text22
  9142  1D89                     __ptext22:	
  9143 ;; *************** function _eeprom_read *****************
  9144 ;; Defined at:
  9145 ;;		line 6 in file "C:\Program Files (x86)\Microchip\xc8\v2.10\pic\sources\c90\pic\__eeread.c"
  9146 ;; Parameters:    Size  Location     Type
  9147 ;;  addr            1    wreg     unsigned char 
  9148 ;; Auto vars:     Size  Location     Type
  9149 ;;  addr            1    1[BANK0 ] unsigned char 
  9150 ;; Return value:  Size  Location     Type
  9151 ;;                  1    wreg      unsigned char 
  9152 ;; Registers used:
  9153 ;;		wreg, status,2, status,0
  9154 ;; Tracked objects:
  9155 ;;		On entry : 0/0
  9156 ;;		On exit  : 0/0
  9157 ;;		Unchanged: 0/0
  9158 ;; Data sizes:     COMMON   BANK0   BANK1   BANK3   BANK2
  9159 ;;      Params:         0       0       0       0       0
  9160 ;;      Locals:         0       1       0       0       0
  9161 ;;      Temps:          0       1       0       0       0
  9162 ;;      Totals:         0       2       0       0       0
  9163 ;;Total ram usage:        2 bytes
  9164 ;; Hardware stack levels used:    1
  9165 ;; Hardware stack levels required when called:    1
  9166 ;; This function calls:
  9167 ;;		Nothing
  9168 ;; This function is called by:
  9169 ;;		_EEPROM_search
  9170 ;;		_main
  9171 ;; This function uses a non-reentrant model
  9172 ;;
  9173                           
  9174                           
  9175                           ;psect for function _eeprom_read
  9176  1D89                     _eeprom_read:	
  9177                           
  9178                           ;incstack = 0
  9179                           ; Regs used in _eeprom_read: [wreg+status,2+status,0]
  9180                           ;eeprom_read@addr stored from wreg
  9181  1D89  1283               	bcf	3,5	;RP0=0, select bank0
  9182  1D8A  1303               	bcf	3,6	;RP1=0, select bank0
  9183  1D8B  00A1               	movwf	eeprom_read@addr
  9184  1D8C                     l223:	
  9185                           ;C:\Program Files (x86)\Microchip\xc8\v2.10\pic\sources\c90\pic\__eeread.c: 6: eeprom_re
      +                          ad(unsigned char addr);C:\Program Files (x86)\Microchip\xc8\v2.10\pic\sources\c90\pic\__
      +                          eeread.c: 7: {;C:\Program Files (x86)\Microchip\xc8\v2.10\pic\sources\c90\pic\__eeread.c
      +                          : 8:  do
  9186                           
  9187  1D8C  0064               	clrwdt	;# 
  9188  1D8D  1683               	bsf	3,5	;RP0=1, select bank3
  9189  1D8E  1703               	bsf	3,6	;RP1=1, select bank3
  9190  1D8F  188C               	btfsc	12,1	;volsfr
  9191  1D90  2D92               	goto	u4031
  9192  1D91  2D95               	goto	u4030
  9193  1D92                     u4031:	
  9194  1D92  1283               	bcf	3,5	;RP0=0, select bank0
  9195  1D93  1303               	bcf	3,6	;RP1=0, select bank0
  9196  1D94  2D8C               	goto	l223
  9197  1D95                     u4030:	
  9198  1D95                     l2774:	
  9199                           
  9200                           ;C:\Program Files (x86)\Microchip\xc8\v2.10\pic\sources\c90\pic\__eeread.c: 18:  return 
      +                          ( EEADR = addr, EECON1 &= 0x3F, EECON1bits.RD = 1, EEDATA);
  9201  1D95  1283               	bcf	3,5	;RP0=0, select bank0
  9202  1D96  1303               	bcf	3,6	;RP1=0, select bank0
  9203  1D97  0821               	movf	eeprom_read@addr,w
  9204  1D98  1283               	bcf	3,5	;RP0=0, select bank2
  9205  1D99  1703               	bsf	3,6	;RP1=1, select bank2
  9206  1D9A  008D               	movwf	13	;volatile
  9207  1D9B  303F               	movlw	63
  9208  1D9C  1283               	bcf	3,5	;RP0=0, select bank0
  9209  1D9D  1303               	bcf	3,6	;RP1=0, select bank0
  9210  1D9E  00A0               	movwf	??_eeprom_read
  9211  1D9F  0820               	movf	??_eeprom_read,w
  9212  1DA0  1683               	bsf	3,5	;RP0=1, select bank3
  9213  1DA1  1703               	bsf	3,6	;RP1=1, select bank3
  9214  1DA2  058C               	andwf	12,f	;volsfr
  9215  1DA3  140C               	bsf	12,0	;volsfr
  9216  1DA4  1283               	bcf	3,5	;RP0=0, select bank2
  9217  1DA5  1703               	bsf	3,6	;RP1=1, select bank2
  9218  1DA6  080C               	movf	12,w	;volatile
  9219  1DA7                     l225:	
  9220  1DA7  0008               	return
  9221  1DA8                     __end_of_eeprom_read:	
  9222                           
  9223                           	psect	text23
  9224  1DC8                     __ptext23:	
  9225 ;; *************** function ___wmul *****************
  9226 ;; Defined at:
  9227 ;;		line 15 in file "C:\Program Files (x86)\Microchip\xc8\v2.10\pic\sources\c90\common\Umul16.c"
  9228 ;; Parameters:    Size  Location     Type
  9229 ;;  multiplier      2    4[BANK0 ] unsigned int 
  9230 ;;  multiplicand    2    6[BANK0 ] unsigned int 
  9231 ;; Auto vars:     Size  Location     Type
  9232 ;;  product         2    8[BANK0 ] unsigned int 
  9233 ;; Return value:  Size  Location     Type
  9234 ;;                  2    4[BANK0 ] unsigned int 
  9235 ;; Registers used:
  9236 ;;		wreg, status,2, status,0
  9237 ;; Tracked objects:
  9238 ;;		On entry : 0/0
  9239 ;;		On exit  : 0/0
  9240 ;;		Unchanged: 0/0
  9241 ;; Data sizes:     COMMON   BANK0   BANK1   BANK3   BANK2
  9242 ;;      Params:         0       4       0       0       0
  9243 ;;      Locals:         0       2       0       0       0
  9244 ;;      Temps:          0       0       0       0       0
  9245 ;;      Totals:         0       6       0       0       0
  9246 ;;Total ram usage:        6 bytes
  9247 ;; Hardware stack levels used:    1
  9248 ;; Hardware stack levels required when called:    1
  9249 ;; This function calls:
  9250 ;;		Nothing
  9251 ;; This function is called by:
  9252 ;;		_EEPROM_search
  9253 ;; This function uses a non-reentrant model
  9254 ;;
  9255                           
  9256                           
  9257                           ;psect for function ___wmul
  9258  1DC8                     ___wmul:	
  9259  1DC8                     l2818:	
  9260                           ;incstack = 0
  9261                           ; Regs used in ___wmul: [wreg+status,2+status,0]
  9262                           
  9263  1DC8  1283               	bcf	3,5	;RP0=0, select bank0
  9264  1DC9  1303               	bcf	3,6	;RP1=0, select bank0
  9265  1DCA  01A8               	clrf	___wmul@product
  9266  1DCB  01A9               	clrf	___wmul@product+1
  9267  1DCC                     l2820:	
  9268  1DCC  1C24               	btfss	___wmul@multiplier,0
  9269  1DCD  2DCF               	goto	u4101
  9270  1DCE  2DD0               	goto	u4100
  9271  1DCF                     u4101:	
  9272  1DCF  2DD6               	goto	l253
  9273  1DD0                     u4100:	
  9274  1DD0                     l2822:	
  9275  1DD0  0826               	movf	___wmul@multiplicand,w
  9276  1DD1  07A8               	addwf	___wmul@product,f
  9277  1DD2  1803               	skipnc
  9278  1DD3  0AA9               	incf	___wmul@product+1,f
  9279  1DD4  0827               	movf	___wmul@multiplicand+1,w
  9280  1DD5  07A9               	addwf	___wmul@product+1,f
  9281  1DD6                     l253:	
  9282  1DD6  3001               	movlw	1
  9283  1DD7                     u4115:	
  9284  1DD7  1003               	clrc
  9285  1DD8  0DA6               	rlf	___wmul@multiplicand,f
  9286  1DD9  0DA7               	rlf	___wmul@multiplicand+1,f
  9287  1DDA  3EFF               	addlw	-1
  9288  1DDB  1D03               	skipz
  9289  1DDC  2DD7               	goto	u4115
  9290  1DDD                     l2824:	
  9291  1DDD  3001               	movlw	1
  9292  1DDE                     u4125:	
  9293  1DDE  1003               	clrc
  9294  1DDF  0CA5               	rrf	___wmul@multiplier+1,f
  9295  1DE0  0CA4               	rrf	___wmul@multiplier,f
  9296  1DE1  3EFF               	addlw	-1
  9297  1DE2  1D03               	skipz
  9298  1DE3  2DDE               	goto	u4125
  9299  1DE4                     l2826:	
  9300  1DE4  0824               	movf	___wmul@multiplier,w
  9301  1DE5  0425               	iorwf	___wmul@multiplier+1,w
  9302  1DE6  1D03               	btfss	3,2
  9303  1DE7  2DE9               	goto	u4131
  9304  1DE8  2DEA               	goto	u4130
  9305  1DE9                     u4131:	
  9306  1DE9  2DCC               	goto	l2820
  9307  1DEA                     u4130:	
  9308  1DEA                     l2828:	
  9309  1DEA  0829               	movf	___wmul@product+1,w
  9310  1DEB  00A5               	movwf	?___wmul+1
  9311  1DEC  0828               	movf	___wmul@product,w
  9312  1DED  00A4               	movwf	?___wmul
  9313  1DEE                     l255:	
  9314  1DEE  0008               	return
  9315  1DEF                     __end_of___wmul:	
  9316                           
  9317                           	psect	text24
  9318  1D55                     __ptext24:	
  9319 ;; *************** function ___bmul *****************
  9320 ;; Defined at:
  9321 ;;		line 4 in file "C:\Program Files (x86)\Microchip\xc8\v2.10\pic\sources\c90\common\Umul8.c"
  9322 ;; Parameters:    Size  Location     Type
  9323 ;;  multiplier      1    wreg     unsigned char 
  9324 ;;  multiplicand    1    0[BANK0 ] unsigned char 
  9325 ;; Auto vars:     Size  Location     Type
  9326 ;;  multiplier      1    3[BANK0 ] unsigned char 
  9327 ;;  product         1    2[BANK0 ] unsigned char 
  9328 ;; Return value:  Size  Location     Type
  9329 ;;                  1    wreg      unsigned char 
  9330 ;; Registers used:
  9331 ;;		wreg, status,2, status,0
  9332 ;; Tracked objects:
  9333 ;;		On entry : 0/0
  9334 ;;		On exit  : 0/0
  9335 ;;		Unchanged: 0/0
  9336 ;; Data sizes:     COMMON   BANK0   BANK1   BANK3   BANK2
  9337 ;;      Params:         0       1       0       0       0
  9338 ;;      Locals:         0       2       0       0       0
  9339 ;;      Temps:          0       1       0       0       0
  9340 ;;      Totals:         0       4       0       0       0
  9341 ;;Total ram usage:        4 bytes
  9342 ;; Hardware stack levels used:    1
  9343 ;; Hardware stack levels required when called:    1
  9344 ;; This function calls:
  9345 ;;		Nothing
  9346 ;; This function is called by:
  9347 ;;		_EEPROM_search
  9348 ;;		_main
  9349 ;; This function uses a non-reentrant model
  9350 ;;
  9351                           
  9352                           
  9353                           ;psect for function ___bmul
  9354  1D55                     ___bmul:	
  9355                           
  9356                           ;incstack = 0
  9357                           ; Regs used in ___bmul: [wreg+status,2+status,0]
  9358                           ;___bmul@multiplier stored from wreg
  9359  1D55  1283               	bcf	3,5	;RP0=0, select bank0
  9360  1D56  1303               	bcf	3,6	;RP1=0, select bank0
  9361  1D57  00A3               	movwf	___bmul@multiplier
  9362  1D58                     l2832:	
  9363  1D58  01A2               	clrf	___bmul@product
  9364  1D59                     l2834:	
  9365  1D59  1C23               	btfss	___bmul@multiplier,0
  9366  1D5A  2D5C               	goto	u4141
  9367  1D5B  2D5D               	goto	u4140
  9368  1D5C                     u4141:	
  9369  1D5C  2D61               	goto	l2838
  9370  1D5D                     u4140:	
  9371  1D5D                     l2836:	
  9372  1D5D  0820               	movf	___bmul@multiplicand,w
  9373  1D5E  00A1               	movwf	??___bmul
  9374  1D5F  0821               	movf	??___bmul,w
  9375  1D60  07A2               	addwf	___bmul@product,f
  9376  1D61                     l2838:	
  9377  1D61  1003               	clrc
  9378  1D62  0DA0               	rlf	___bmul@multiplicand,f
  9379  1D63                     l2840:	
  9380  1D63  1003               	clrc
  9381  1D64  0CA3               	rrf	___bmul@multiplier,f
  9382  1D65  0823               	movf	___bmul@multiplier,w
  9383  1D66  1D03               	btfss	3,2
  9384  1D67  2D69               	goto	u4151
  9385  1D68  2D6A               	goto	u4150
  9386  1D69                     u4151:	
  9387  1D69  2D59               	goto	l2834
  9388  1D6A                     u4150:	
  9389  1D6A                     l2842:	
  9390  1D6A  0822               	movf	___bmul@product,w
  9391  1D6B                     l279:	
  9392  1D6B  0008               	return
  9393  1D6C                     __end_of___bmul:	
  9394                           
  9395                           	psect	text25
  9396  1DA8                     __ptext25:	
  9397 ;; *************** function _accionesDeshacer *****************
  9398 ;; Defined at:
  9399 ;;		line 105 in file "main.c"
  9400 ;; Parameters:    Size  Location     Type
  9401 ;;		None
  9402 ;; Auto vars:     Size  Location     Type
  9403 ;;		None
  9404 ;; Return value:  Size  Location     Type
  9405 ;;                  1    wreg      void 
  9406 ;; Registers used:
  9407 ;;		wreg, fsr0l, fsr0h, status,2, status,0, btemp+1, pclath, cstack
  9408 ;; Tracked objects:
  9409 ;;		On entry : 0/0
  9410 ;;		On exit  : 0/0
  9411 ;;		Unchanged: 0/0
  9412 ;; Data sizes:     COMMON   BANK0   BANK1   BANK3   BANK2
  9413 ;;      Params:         0       0       0       0       0
  9414 ;;      Locals:         0       0       0       0       0
  9415 ;;      Temps:          0       0       0       0       0
  9416 ;;      Totals:         0       0       0       0       0
  9417 ;;Total ram usage:        0 bytes
  9418 ;; Hardware stack levels used:    1
  9419 ;; Hardware stack levels required when called:    3
  9420 ;; This function calls:
  9421 ;;		_mostrarDigitos
  9422 ;; This function is called by:
  9423 ;;		_main
  9424 ;; This function uses a non-reentrant model
  9425 ;;
  9426                           
  9427                           
  9428                           ;psect for function _accionesDeshacer
  9429  1DA8                     _accionesDeshacer:	
  9430  1DA8                     l2982:	
  9431                           ;incstack = 0
  9432                           ; Regs used in _accionesDeshacer: [wreg-fsr0h+status,2+status,0+btemp+1+pclath+cstack]
  9433                           
  9434                           
  9435                           ;main.c: 107:     if (cuenta != auxCuenta){
  9436  1DA8  087C               	movf	_auxCuenta+1,w
  9437  1DA9  1683               	bsf	3,5	;RP0=1, select bank3
  9438  1DAA  1703               	bsf	3,6	;RP1=1, select bank3
  9439  1DAB  0652               	xorwf	(_cuenta+1)^(0+384),w
  9440  1DAC  1D03               	skipz
  9441  1DAD  2DB0               	goto	u4385
  9442  1DAE  087B               	movf	_auxCuenta,w
  9443  1DAF  0651               	xorwf	_cuenta^(0+384),w
  9444  1DB0                     u4385:	
  9445  1DB0  1903               	skipnz
  9446  1DB1  2DB3               	goto	u4381
  9447  1DB2  2DB4               	goto	u4380
  9448  1DB3                     u4381:	
  9449  1DB3  2DC7               	goto	l77
  9450  1DB4                     u4380:	
  9451  1DB4                     l2984:	
  9452                           
  9453                           ;main.c: 108:         cuenta = auxCuenta;
  9454  1DB4  087C               	movf	_auxCuenta+1,w
  9455  1DB5  00D2               	movwf	(_cuenta+1)^(0+384)
  9456  1DB6  087B               	movf	_auxCuenta,w
  9457  1DB7  00D1               	movwf	_cuenta^(0+384)
  9458  1DB8                     l2986:	
  9459                           
  9460                           ;main.c: 109:         mostrarDigitos(cuenta);
  9461  1DB8  0852               	movf	(_cuenta+1)^(0+384),w
  9462  1DB9  1283               	bcf	3,5	;RP0=0, select bank0
  9463  1DBA  1303               	bcf	3,6	;RP1=0, select bank0
  9464  1DBB  00A9               	movwf	mostrarDigitos@num+1
  9465  1DBC  1683               	bsf	3,5	;RP0=1, select bank3
  9466  1DBD  1703               	bsf	3,6	;RP1=1, select bank3
  9467  1DBE  0851               	movf	_cuenta^(0+384),w
  9468  1DBF  1283               	bcf	3,5	;RP0=0, select bank0
  9469  1DC0  1303               	bcf	3,6	;RP1=0, select bank0
  9470  1DC1  00A8               	movwf	mostrarDigitos@num
  9471  1DC2  160A  118A  21A9  160A  158A  	fcall	_mostrarDigitos
  9472  1DC7                     l77:	
  9473  1DC7  0008               	return
  9474  1DC8                     __end_of_accionesDeshacer:	
  9475                           
  9476                           	psect	text26
  9477  1D6C                     __ptext26:	
  9478 ;; *************** function _accionesAceptar *****************
  9479 ;; Defined at:
  9480 ;;		line 95 in file "main.c"
  9481 ;; Parameters:    Size  Location     Type
  9482 ;;		None
  9483 ;; Auto vars:     Size  Location     Type
  9484 ;;		None
  9485 ;; Return value:  Size  Location     Type
  9486 ;;                  1    wreg      void 
  9487 ;; Registers used:
  9488 ;;		wreg, fsr0l, fsr0h, status,2, status,0, btemp+1, pclath, cstack
  9489 ;; Tracked objects:
  9490 ;;		On entry : 0/0
  9491 ;;		On exit  : 0/0
  9492 ;;		Unchanged: 0/0
  9493 ;; Data sizes:     COMMON   BANK0   BANK1   BANK3   BANK2
  9494 ;;      Params:         0       0       0       0       0
  9495 ;;      Locals:         0       0       0       0       0
  9496 ;;      Temps:          0       0       0       0       0
  9497 ;;      Totals:         0       0       0       0       0
  9498 ;;Total ram usage:        0 bytes
  9499 ;; Hardware stack levels used:    1
  9500 ;; Hardware stack levels required when called:    3
  9501 ;; This function calls:
  9502 ;;		_bailenLeds
  9503 ;;		_mostrarDigitos
  9504 ;; This function is called by:
  9505 ;;		_main
  9506 ;; This function uses a non-reentrant model
  9507 ;;
  9508                           
  9509                           
  9510                           ;psect for function _accionesAceptar
  9511  1D6C                     _accionesAceptar:	
  9512  1D6C                     l2976:	
  9513                           ;incstack = 0
  9514                           ; Regs used in _accionesAceptar: [wreg-fsr0h+status,2+status,0+btemp+1+pclath+cstack]
  9515                           
  9516                           
  9517                           ;main.c: 97:     cuenta = 0;
  9518  1D6C  1683               	bsf	3,5	;RP0=1, select bank3
  9519  1D6D  1703               	bsf	3,6	;RP1=1, select bank3
  9520  1D6E  01D1               	clrf	_cuenta^(0+384)
  9521  1D6F  01D2               	clrf	(_cuenta+1)^(0+384)
  9522                           
  9523                           ;main.c: 98:     auxCuenta = 0;
  9524  1D70  01FB               	clrf	_auxCuenta
  9525  1D71  01FC               	clrf	_auxCuenta+1
  9526                           
  9527                           ;main.c: 99:     prodIngresados = 0;
  9528  1D72  01CD               	clrf	_prodIngresados^(0+384)
  9529  1D73  01CE               	clrf	(_prodIngresados+1)^(0+384)
  9530  1D74                     l2978:	
  9531                           
  9532                           ;main.c: 101:     mostrarDigitos(cuenta);
  9533  1D74  0852               	movf	(_cuenta+1)^(0+384),w
  9534  1D75  1283               	bcf	3,5	;RP0=0, select bank0
  9535  1D76  1303               	bcf	3,6	;RP1=0, select bank0
  9536  1D77  00A9               	movwf	mostrarDigitos@num+1
  9537  1D78  1683               	bsf	3,5	;RP0=1, select bank3
  9538  1D79  1703               	bsf	3,6	;RP1=1, select bank3
  9539  1D7A  0851               	movf	_cuenta^(0+384),w
  9540  1D7B  1283               	bcf	3,5	;RP0=0, select bank0
  9541  1D7C  1303               	bcf	3,6	;RP1=0, select bank0
  9542  1D7D  00A8               	movwf	mostrarDigitos@num
  9543  1D7E  160A  118A  21A9  160A  158A  	fcall	_mostrarDigitos
  9544  1D83                     l2980:	
  9545                           
  9546                           ;main.c: 102:     bailenLeds();
  9547  1D83  160A  158A  2626  160A  158A  	fcall	_bailenLeds
  9548  1D88                     l73:	
  9549  1D88  0008               	return
  9550  1D89                     __end_of_accionesAceptar:	
  9551                           
  9552                           	psect	text27
  9553  11A9                     __ptext27:	
  9554 ;; *************** function _mostrarDigitos *****************
  9555 ;; Defined at:
  9556 ;;		line 53 in file "main.c"
  9557 ;; Parameters:    Size  Location     Type
  9558 ;;  num             2    8[BANK0 ] unsigned int 
  9559 ;; Auto vars:     Size  Location     Type
  9560 ;;  decimal         2    0        unsigned short 
  9561 ;; Return value:  Size  Location     Type
  9562 ;;                  1    wreg      void 
  9563 ;; Registers used:
  9564 ;;		wreg, fsr0l, fsr0h, status,2, status,0, btemp+1, pclath, cstack
  9565 ;; Tracked objects:
  9566 ;;		On entry : 0/0
  9567 ;;		On exit  : 0/0
  9568 ;;		Unchanged: 0/0
  9569 ;; Data sizes:     COMMON   BANK0   BANK1   BANK3   BANK2
  9570 ;;      Params:         0       2       0       0       0
  9571 ;;      Locals:         0       2       0       0       0
  9572 ;;      Temps:          0       0       0       0       0
  9573 ;;      Totals:         0       4       0       0       0
  9574 ;;Total ram usage:        4 bytes
  9575 ;; Hardware stack levels used:    1
  9576 ;; Hardware stack levels required when called:    2
  9577 ;; This function calls:
  9578 ;;		___lwdiv
  9579 ;;		___lwmod
  9580 ;; This function is called by:
  9581 ;;		_accionesAceptar
  9582 ;;		_accionesDeshacer
  9583 ;;		_accionesPuertoSerial
  9584 ;; This function uses a non-reentrant model
  9585 ;;
  9586                           
  9587                           
  9588                           ;psect for function _mostrarDigitos
  9589  11A9                     _mostrarDigitos:	
  9590  11A9                     l2894:	
  9591                           ;incstack = 0
  9592                           ; Regs used in _mostrarDigitos: [wreg-fsr0h+status,2+status,0+btemp+1+pclath+cstack]
  9593                           
  9594                           
  9595                           ;main.c: 54:     unsigned short int decimal;;main.c: 56:     if (num/10 < 99) {
  9596  11A9  300A               	movlw	10
  9597  11AA  1283               	bcf	3,5	;RP0=0, select bank0
  9598  11AB  1303               	bcf	3,6	;RP1=0, select bank0
  9599  11AC  00A0               	movwf	___lwdiv@divisor
  9600  11AD  3000               	movlw	0
  9601  11AE  00A1               	movwf	___lwdiv@divisor+1
  9602  11AF  0829               	movf	mostrarDigitos@num+1,w
  9603  11B0  00A3               	movwf	___lwdiv@dividend+1
  9604  11B1  0828               	movf	mostrarDigitos@num,w
  9605  11B2  00A2               	movwf	___lwdiv@dividend
  9606  11B3  160A  158A  269E  160A  118A  	fcall	___lwdiv
  9607  11B8  3000               	movlw	0
  9608  11B9  1283               	bcf	3,5	;RP0=0, select bank0
  9609  11BA  1303               	bcf	3,6	;RP1=0, select bank0
  9610  11BB  0221               	subwf	?___lwdiv+1,w
  9611  11BC  3063               	movlw	99
  9612  11BD  1903               	skipnz
  9613  11BE  0220               	subwf	?___lwdiv,w
  9614  11BF  1803               	skipnc
  9615  11C0  29C2               	goto	u4291
  9616  11C1  29C3               	goto	u4290
  9617  11C2                     u4291:	
  9618  11C2  2A04               	goto	l2900
  9619  11C3                     u4290:	
  9620  11C3                     l2896:	
  9621  11C3  300A               	movlw	10
  9622  11C4  00A0               	movwf	___lwmod@divisor
  9623  11C5  3000               	movlw	0
  9624  11C6  00A1               	movwf	___lwmod@divisor+1
  9625  11C7  0829               	movf	mostrarDigitos@num+1,w
  9626  11C8  00A3               	movwf	___lwmod@dividend+1
  9627  11C9  0828               	movf	mostrarDigitos@num,w
  9628  11CA  00A2               	movwf	___lwmod@dividend
  9629  11CB  160A  158A  2662  160A  118A  	fcall	___lwmod
  9630                           
  9631                           ;main.c: 58:         num = num/10;
  9632  11D0  300A               	movlw	10
  9633  11D1  1283               	bcf	3,5	;RP0=0, select bank0
  9634  11D2  1303               	bcf	3,6	;RP1=0, select bank0
  9635  11D3  00A0               	movwf	___lwdiv@divisor
  9636  11D4  3000               	movlw	0
  9637  11D5  00A1               	movwf	___lwdiv@divisor+1
  9638  11D6  0829               	movf	mostrarDigitos@num+1,w
  9639  11D7  00A3               	movwf	___lwdiv@dividend+1
  9640  11D8  0828               	movf	mostrarDigitos@num,w
  9641  11D9  00A2               	movwf	___lwdiv@dividend
  9642  11DA  160A  158A  269E  160A  118A  	fcall	___lwdiv
  9643  11DF  1283               	bcf	3,5	;RP0=0, select bank0
  9644  11E0  1303               	bcf	3,6	;RP1=0, select bank0
  9645  11E1  0821               	movf	?___lwdiv+1,w
  9646  11E2  00A9               	movwf	mostrarDigitos@num+1
  9647  11E3  0820               	movf	?___lwdiv,w
  9648  11E4  00A8               	movwf	mostrarDigitos@num
  9649                           
  9650                           ;main.c: 59:         if (num%10 >= 5) {
  9651  11E5  300A               	movlw	10
  9652  11E6  00A0               	movwf	___lwmod@divisor
  9653  11E7  3000               	movlw	0
  9654  11E8  00A1               	movwf	___lwmod@divisor+1
  9655  11E9  0829               	movf	mostrarDigitos@num+1,w
  9656  11EA  00A3               	movwf	___lwmod@dividend+1
  9657  11EB  0828               	movf	mostrarDigitos@num,w
  9658  11EC  00A2               	movwf	___lwmod@dividend
  9659  11ED  160A  158A  2662  160A  118A  	fcall	___lwmod
  9660  11F2  3000               	movlw	0
  9661  11F3  1283               	bcf	3,5	;RP0=0, select bank0
  9662  11F4  1303               	bcf	3,6	;RP1=0, select bank0
  9663  11F5  0221               	subwf	?___lwmod+1,w
  9664  11F6  3005               	movlw	5
  9665  11F7  1903               	skipnz
  9666  11F8  0220               	subwf	?___lwmod,w
  9667  11F9  1C03               	skipc
  9668  11FA  29FC               	goto	u4301
  9669  11FB  29FD               	goto	u4300
  9670  11FC                     u4301:	
  9671  11FC  2A17               	goto	l2902
  9672  11FD                     u4300:	
  9673  11FD                     l2898:	
  9674                           
  9675                           ;main.c: 60:             num++;
  9676  11FD  3001               	movlw	1
  9677  11FE  07A8               	addwf	mostrarDigitos@num,f
  9678  11FF  1803               	skipnc
  9679  1200  0AA9               	incf	mostrarDigitos@num+1,f
  9680  1201  3000               	movlw	0
  9681  1202  07A9               	addwf	mostrarDigitos@num+1,f
  9682  1203  2A17               	goto	l2902
  9683  1204                     l2900:	
  9684                           
  9685                           ;main.c: 64:         num = num/10;
  9686  1204  300A               	movlw	10
  9687  1205  00A0               	movwf	___lwdiv@divisor
  9688  1206  3000               	movlw	0
  9689  1207  00A1               	movwf	___lwdiv@divisor+1
  9690  1208  0829               	movf	mostrarDigitos@num+1,w
  9691  1209  00A3               	movwf	___lwdiv@dividend+1
  9692  120A  0828               	movf	mostrarDigitos@num,w
  9693  120B  00A2               	movwf	___lwdiv@dividend
  9694  120C  160A  158A  269E  160A  118A  	fcall	___lwdiv
  9695  1211  1283               	bcf	3,5	;RP0=0, select bank0
  9696  1212  1303               	bcf	3,6	;RP1=0, select bank0
  9697  1213  0821               	movf	?___lwdiv+1,w
  9698  1214  00A9               	movwf	mostrarDigitos@num+1
  9699  1215  0820               	movf	?___lwdiv,w
  9700  1216  00A8               	movwf	mostrarDigitos@num
  9701  1217                     l2902:	
  9702                           
  9703                           ;main.c: 68:     PORTB=digito[(num/10)];
  9704  1217  300A               	movlw	10
  9705  1218  00A0               	movwf	___lwdiv@divisor
  9706  1219  3000               	movlw	0
  9707  121A  00A1               	movwf	___lwdiv@divisor+1
  9708  121B  0829               	movf	mostrarDigitos@num+1,w
  9709  121C  00A3               	movwf	___lwdiv@dividend+1
  9710  121D  0828               	movf	mostrarDigitos@num,w
  9711  121E  00A2               	movwf	___lwdiv@dividend
  9712  121F  160A  158A  269E  160A  118A  	fcall	___lwdiv
  9713  1224  1283               	bcf	3,5	;RP0=0, select bank0
  9714  1225  1303               	bcf	3,6	;RP1=0, select bank0
  9715  1226  0820               	movf	?___lwdiv,w
  9716  1227  3E12               	addlw	low (_digito| (0+32768))
  9717  1228  0084               	movwf	4
  9718  1229  3098               	movlw	high (_digito| (0+32768))
  9719  122A  1803               	skipnc
  9720  122B  3E01               	addlw	1
  9721  122C  00FF               	movwf	btemp+1
  9722  122D  160A  158A  2000  160A  118A  	fcall	stringtab
  9723  1232  0086               	movwf	6	;volatile
  9724  1233                     l2904:	
  9725                           
  9726                           ;main.c: 69:     PORTD=digito[(num%10)];
  9727  1233  300A               	movlw	10
  9728  1234  00A0               	movwf	___lwmod@divisor
  9729  1235  3000               	movlw	0
  9730  1236  00A1               	movwf	___lwmod@divisor+1
  9731  1237  0829               	movf	mostrarDigitos@num+1,w
  9732  1238  00A3               	movwf	___lwmod@dividend+1
  9733  1239  0828               	movf	mostrarDigitos@num,w
  9734  123A  00A2               	movwf	___lwmod@dividend
  9735  123B  160A  158A  2662  160A  118A  	fcall	___lwmod
  9736  1240  1283               	bcf	3,5	;RP0=0, select bank0
  9737  1241  1303               	bcf	3,6	;RP1=0, select bank0
  9738  1242  0820               	movf	?___lwmod,w
  9739  1243  3E12               	addlw	low (_digito| (0+32768))
  9740  1244  0084               	movwf	4
  9741  1245  3098               	movlw	high (_digito| (0+32768))
  9742  1246  1803               	skipnc
  9743  1247  3E01               	addlw	1
  9744  1248  00FF               	movwf	btemp+1
  9745  1249  160A  158A  2000  160A  118A  	fcall	stringtab
  9746  124E  0088               	movwf	8	;volatile
  9747  124F                     l62:	
  9748  124F  0008               	return
  9749  1250                     __end_of_mostrarDigitos:	
  9750                           
  9751                           	psect	text28
  9752  1E62                     __ptext28:	
  9753 ;; *************** function ___lwmod *****************
  9754 ;; Defined at:
  9755 ;;		line 5 in file "C:\Program Files (x86)\Microchip\xc8\v2.10\pic\sources\c90\common\lwmod.c"
  9756 ;; Parameters:    Size  Location     Type
  9757 ;;  divisor         2    0[BANK0 ] unsigned int 
  9758 ;;  dividend        2    2[BANK0 ] unsigned int 
  9759 ;; Auto vars:     Size  Location     Type
  9760 ;;  counter         1    5[BANK0 ] unsigned char 
  9761 ;; Return value:  Size  Location     Type
  9762 ;;                  2    0[BANK0 ] unsigned int 
  9763 ;; Registers used:
  9764 ;;		wreg, status,2, status,0
  9765 ;; Tracked objects:
  9766 ;;		On entry : 0/0
  9767 ;;		On exit  : 0/0
  9768 ;;		Unchanged: 0/0
  9769 ;; Data sizes:     COMMON   BANK0   BANK1   BANK3   BANK2
  9770 ;;      Params:         0       4       0       0       0
  9771 ;;      Locals:         0       1       0       0       0
  9772 ;;      Temps:          0       1       0       0       0
  9773 ;;      Totals:         0       6       0       0       0
  9774 ;;Total ram usage:        6 bytes
  9775 ;; Hardware stack levels used:    1
  9776 ;; Hardware stack levels required when called:    1
  9777 ;; This function calls:
  9778 ;;		Nothing
  9779 ;; This function is called by:
  9780 ;;		_mostrarDigitos
  9781 ;; This function uses a non-reentrant model
  9782 ;;
  9783                           
  9784                           
  9785                           ;psect for function ___lwmod
  9786  1E62                     ___lwmod:	
  9787  1E62                     l2872:	
  9788                           ;incstack = 0
  9789                           ; Regs used in ___lwmod: [wreg+status,2+status,0]
  9790                           
  9791  1E62  1283               	bcf	3,5	;RP0=0, select bank0
  9792  1E63  1303               	bcf	3,6	;RP1=0, select bank0
  9793  1E64  0820               	movf	___lwmod@divisor,w
  9794  1E65  0421               	iorwf	___lwmod@divisor+1,w
  9795  1E66  1903               	btfsc	3,2
  9796  1E67  2E69               	goto	u4231
  9797  1E68  2E6A               	goto	u4230
  9798  1E69                     u4231:	
  9799  1E69  2E99               	goto	l2890
  9800  1E6A                     u4230:	
  9801  1E6A                     l2874:	
  9802  1E6A  01A5               	clrf	___lwmod@counter
  9803  1E6B  0AA5               	incf	___lwmod@counter,f
  9804  1E6C  2E78               	goto	l2880
  9805  1E6D                     l2876:	
  9806  1E6D  3001               	movlw	1
  9807  1E6E                     u4245:	
  9808  1E6E  1003               	clrc
  9809  1E6F  0DA0               	rlf	___lwmod@divisor,f
  9810  1E70  0DA1               	rlf	___lwmod@divisor+1,f
  9811  1E71  3EFF               	addlw	-1
  9812  1E72  1D03               	skipz
  9813  1E73  2E6E               	goto	u4245
  9814  1E74                     l2878:	
  9815  1E74  3001               	movlw	1
  9816  1E75  00A4               	movwf	??___lwmod
  9817  1E76  0824               	movf	??___lwmod,w
  9818  1E77  07A5               	addwf	___lwmod@counter,f
  9819  1E78                     l2880:	
  9820  1E78  1FA1               	btfss	___lwmod@divisor+1,7
  9821  1E79  2E7B               	goto	u4251
  9822  1E7A  2E7C               	goto	u4250
  9823  1E7B                     u4251:	
  9824  1E7B  2E6D               	goto	l2876
  9825  1E7C                     u4250:	
  9826  1E7C                     l2882:	
  9827  1E7C  0821               	movf	___lwmod@divisor+1,w
  9828  1E7D  0223               	subwf	___lwmod@dividend+1,w
  9829  1E7E  1D03               	skipz
  9830  1E7F  2E82               	goto	u4265
  9831  1E80  0820               	movf	___lwmod@divisor,w
  9832  1E81  0222               	subwf	___lwmod@dividend,w
  9833  1E82                     u4265:	
  9834  1E82  1C03               	skipc
  9835  1E83  2E85               	goto	u4261
  9836  1E84  2E86               	goto	u4260
  9837  1E85                     u4261:	
  9838  1E85  2E8C               	goto	l2886
  9839  1E86                     u4260:	
  9840  1E86                     l2884:	
  9841  1E86  0820               	movf	___lwmod@divisor,w
  9842  1E87  02A2               	subwf	___lwmod@dividend,f
  9843  1E88  0821               	movf	___lwmod@divisor+1,w
  9844  1E89  1C03               	skipc
  9845  1E8A  03A3               	decf	___lwmod@dividend+1,f
  9846  1E8B  02A3               	subwf	___lwmod@dividend+1,f
  9847  1E8C                     l2886:	
  9848  1E8C  3001               	movlw	1
  9849  1E8D                     u4275:	
  9850  1E8D  1003               	clrc
  9851  1E8E  0CA1               	rrf	___lwmod@divisor+1,f
  9852  1E8F  0CA0               	rrf	___lwmod@divisor,f
  9853  1E90  3EFF               	addlw	-1
  9854  1E91  1D03               	skipz
  9855  1E92  2E8D               	goto	u4275
  9856  1E93                     l2888:	
  9857  1E93  3001               	movlw	1
  9858  1E94  02A5               	subwf	___lwmod@counter,f
  9859  1E95  1D03               	btfss	3,2
  9860  1E96  2E98               	goto	u4281
  9861  1E97  2E99               	goto	u4280
  9862  1E98                     u4281:	
  9863  1E98  2E7C               	goto	l2882
  9864  1E99                     u4280:	
  9865  1E99                     l2890:	
  9866  1E99  0823               	movf	___lwmod@dividend+1,w
  9867  1E9A  00A1               	movwf	?___lwmod+1
  9868  1E9B  0822               	movf	___lwmod@dividend,w
  9869  1E9C  00A0               	movwf	?___lwmod
  9870  1E9D                     l535:	
  9871  1E9D  0008               	return
  9872  1E9E                     __end_of___lwmod:	
  9873                           
  9874                           	psect	text29
  9875  1E9E                     __ptext29:	
  9876 ;; *************** function ___lwdiv *****************
  9877 ;; Defined at:
  9878 ;;		line 5 in file "C:\Program Files (x86)\Microchip\xc8\v2.10\pic\sources\c90\common\lwdiv.c"
  9879 ;; Parameters:    Size  Location     Type
  9880 ;;  divisor         2    0[BANK0 ] unsigned int 
  9881 ;;  dividend        2    2[BANK0 ] unsigned int 
  9882 ;; Auto vars:     Size  Location     Type
  9883 ;;  quotient        2    5[BANK0 ] unsigned int 
  9884 ;;  counter         1    7[BANK0 ] unsigned char 
  9885 ;; Return value:  Size  Location     Type
  9886 ;;                  2    0[BANK0 ] unsigned int 
  9887 ;; Registers used:
  9888 ;;		wreg, status,2, status,0
  9889 ;; Tracked objects:
  9890 ;;		On entry : 0/0
  9891 ;;		On exit  : 0/0
  9892 ;;		Unchanged: 0/0
  9893 ;; Data sizes:     COMMON   BANK0   BANK1   BANK3   BANK2
  9894 ;;      Params:         0       4       0       0       0
  9895 ;;      Locals:         0       3       0       0       0
  9896 ;;      Temps:          0       1       0       0       0
  9897 ;;      Totals:         0       8       0       0       0
  9898 ;;Total ram usage:        8 bytes
  9899 ;; Hardware stack levels used:    1
  9900 ;; Hardware stack levels required when called:    1
  9901 ;; This function calls:
  9902 ;;		Nothing
  9903 ;; This function is called by:
  9904 ;;		_mostrarDigitos
  9905 ;; This function uses a non-reentrant model
  9906 ;;
  9907                           
  9908                           
  9909                           ;psect for function ___lwdiv
  9910  1E9E                     ___lwdiv:	
  9911  1E9E                     l2846:	
  9912                           ;incstack = 0
  9913                           ; Regs used in ___lwdiv: [wreg+status,2+status,0]
  9914                           
  9915  1E9E  1283               	bcf	3,5	;RP0=0, select bank0
  9916  1E9F  1303               	bcf	3,6	;RP1=0, select bank0
  9917  1EA0  01A5               	clrf	___lwdiv@quotient
  9918  1EA1  01A6               	clrf	___lwdiv@quotient+1
  9919  1EA2                     l2848:	
  9920  1EA2  0820               	movf	___lwdiv@divisor,w
  9921  1EA3  0421               	iorwf	___lwdiv@divisor+1,w
  9922  1EA4  1903               	btfsc	3,2
  9923  1EA5  2EA7               	goto	u4161
  9924  1EA6  2EA8               	goto	u4160
  9925  1EA7                     u4161:	
  9926  1EA7  2EDF               	goto	l2868
  9927  1EA8                     u4160:	
  9928  1EA8                     l2850:	
  9929  1EA8  01A7               	clrf	___lwdiv@counter
  9930  1EA9  0AA7               	incf	___lwdiv@counter,f
  9931  1EAA  2EB6               	goto	l2856
  9932  1EAB                     l2852:	
  9933  1EAB  3001               	movlw	1
  9934  1EAC                     u4175:	
  9935  1EAC  1003               	clrc
  9936  1EAD  0DA0               	rlf	___lwdiv@divisor,f
  9937  1EAE  0DA1               	rlf	___lwdiv@divisor+1,f
  9938  1EAF  3EFF               	addlw	-1
  9939  1EB0  1D03               	skipz
  9940  1EB1  2EAC               	goto	u4175
  9941  1EB2                     l2854:	
  9942  1EB2  3001               	movlw	1
  9943  1EB3  00A4               	movwf	??___lwdiv
  9944  1EB4  0824               	movf	??___lwdiv,w
  9945  1EB5  07A7               	addwf	___lwdiv@counter,f
  9946  1EB6                     l2856:	
  9947  1EB6  1FA1               	btfss	___lwdiv@divisor+1,7
  9948  1EB7  2EB9               	goto	u4181
  9949  1EB8  2EBA               	goto	u4180
  9950  1EB9                     u4181:	
  9951  1EB9  2EAB               	goto	l2852
  9952  1EBA                     u4180:	
  9953  1EBA                     l2858:	
  9954  1EBA  3001               	movlw	1
  9955  1EBB                     u4195:	
  9956  1EBB  1003               	clrc
  9957  1EBC  0DA5               	rlf	___lwdiv@quotient,f
  9958  1EBD  0DA6               	rlf	___lwdiv@quotient+1,f
  9959  1EBE  3EFF               	addlw	-1
  9960  1EBF  1D03               	skipz
  9961  1EC0  2EBB               	goto	u4195
  9962  1EC1  0821               	movf	___lwdiv@divisor+1,w
  9963  1EC2  0223               	subwf	___lwdiv@dividend+1,w
  9964  1EC3  1D03               	skipz
  9965  1EC4  2EC7               	goto	u4205
  9966  1EC5  0820               	movf	___lwdiv@divisor,w
  9967  1EC6  0222               	subwf	___lwdiv@dividend,w
  9968  1EC7                     u4205:	
  9969  1EC7  1C03               	skipc
  9970  1EC8  2ECA               	goto	u4201
  9971  1EC9  2ECB               	goto	u4200
  9972  1ECA                     u4201:	
  9973  1ECA  2ED2               	goto	l2864
  9974  1ECB                     u4200:	
  9975  1ECB                     l2860:	
  9976  1ECB  0820               	movf	___lwdiv@divisor,w
  9977  1ECC  02A2               	subwf	___lwdiv@dividend,f
  9978  1ECD  0821               	movf	___lwdiv@divisor+1,w
  9979  1ECE  1C03               	skipc
  9980  1ECF  03A3               	decf	___lwdiv@dividend+1,f
  9981  1ED0  02A3               	subwf	___lwdiv@dividend+1,f
  9982  1ED1                     l2862:	
  9983  1ED1  1425               	bsf	___lwdiv@quotient,0
  9984  1ED2                     l2864:	
  9985  1ED2  3001               	movlw	1
  9986  1ED3                     u4215:	
  9987  1ED3  1003               	clrc
  9988  1ED4  0CA1               	rrf	___lwdiv@divisor+1,f
  9989  1ED5  0CA0               	rrf	___lwdiv@divisor,f
  9990  1ED6  3EFF               	addlw	-1
  9991  1ED7  1D03               	skipz
  9992  1ED8  2ED3               	goto	u4215
  9993  1ED9                     l2866:	
  9994  1ED9  3001               	movlw	1
  9995  1EDA  02A7               	subwf	___lwdiv@counter,f
  9996  1EDB  1D03               	btfss	3,2
  9997  1EDC  2EDE               	goto	u4221
  9998  1EDD  2EDF               	goto	u4220
  9999  1EDE                     u4221:	
 10000  1EDE  2EBA               	goto	l2858
 10001  1EDF                     u4220:	
 10002  1EDF                     l2868:	
 10003  1EDF  0826               	movf	___lwdiv@quotient+1,w
 10004  1EE0  00A1               	movwf	?___lwdiv+1
 10005  1EE1  0825               	movf	___lwdiv@quotient,w
 10006  1EE2  00A0               	movwf	?___lwdiv
 10007  1EE3                     l525:	
 10008  1EE3  0008               	return
 10009  1EE4                     __end_of___lwdiv:	
 10010                           
 10011                           	psect	text30
 10012  1E26                     __ptext30:	
 10013 ;; *************** function _bailenLeds *****************
 10014 ;; Defined at:
 10015 ;;		line 82 in file "main.c"
 10016 ;; Parameters:    Size  Location     Type
 10017 ;;		None
 10018 ;; Auto vars:     Size  Location     Type
 10019 ;;  i               2    2[BANK0 ] unsigned short 
 10020 ;; Return value:  Size  Location     Type
 10021 ;;                  1    wreg      void 
 10022 ;; Registers used:
 10023 ;;		wreg, status,2
 10024 ;; Tracked objects:
 10025 ;;		On entry : 0/0
 10026 ;;		On exit  : 0/0
 10027 ;;		Unchanged: 0/0
 10028 ;; Data sizes:     COMMON   BANK0   BANK1   BANK3   BANK2
 10029 ;;      Params:         0       0       0       0       0
 10030 ;;      Locals:         0       2       0       0       0
 10031 ;;      Temps:          0       2       0       0       0
 10032 ;;      Totals:         0       4       0       0       0
 10033 ;;Total ram usage:        4 bytes
 10034 ;; Hardware stack levels used:    1
 10035 ;; Hardware stack levels required when called:    1
 10036 ;; This function calls:
 10037 ;;		Nothing
 10038 ;; This function is called by:
 10039 ;;		_accionesAceptar
 10040 ;; This function uses a non-reentrant model
 10041 ;;
 10042                           
 10043                           
 10044                           ;psect for function _bailenLeds
 10045  1E26                     _bailenLeds:	
 10046  1E26                     l2906:	
 10047                           ;incstack = 0
 10048                           ; Regs used in _bailenLeds: [wreg+status,2]
 10049                           
 10050                           
 10051                           ;main.c: 83:     unsigned short int i;;main.c: 84:     for (i = 0; i < 10; i++){
 10052  1E26  1283               	bcf	3,5	;RP0=0, select bank0
 10053  1E27  1303               	bcf	3,6	;RP1=0, select bank0
 10054  1E28  01A2               	clrf	bailenLeds@i
 10055  1E29  01A3               	clrf	bailenLeds@i+1
 10056  1E2A                     l68:	
 10057                           
 10058                           ;main.c: 85:         RA3 = 1;
 10059  1E2A  1585               	bsf	5,3	;volatile
 10060  1E2B                     l2912:	
 10061                           
 10062                           ;main.c: 86:         _delay((unsigned long)((200)*(3579545/4000.0)));
 10063  1E2B  30E9               	movlw	233
 10064  1E2C  1283               	bcf	3,5	;RP0=0, select bank0
 10065  1E2D  1303               	bcf	3,6	;RP1=0, select bank0
 10066  1E2E  00A1               	movwf	??_bailenLeds+1
 10067  1E2F  306E               	movlw	110
 10068  1E30  00A0               	movwf	??_bailenLeds
 10069  1E31                     u4827:	
 10070  1E31  0BA0               	decfsz	??_bailenLeds,f
 10071  1E32  2E31               	goto	u4827
 10072  1E33  0BA1               	decfsz	??_bailenLeds+1,f
 10073  1E34  2E31               	goto	u4827
 10074  1E35                     l2914:	
 10075                           
 10076                           ;main.c: 87:         RA4 = 1;
 10077  1E35  1283               	bcf	3,5	;RP0=0, select bank0
 10078  1E36  1303               	bcf	3,6	;RP1=0, select bank0
 10079  1E37  1605               	bsf	5,4	;volatile
 10080                           
 10081                           ;main.c: 88:         _delay((unsigned long)((200)*(3579545/4000.0)));
 10082  1E38  30E9               	movlw	233
 10083  1E39  1283               	bcf	3,5	;RP0=0, select bank0
 10084  1E3A  1303               	bcf	3,6	;RP1=0, select bank0
 10085  1E3B  00A1               	movwf	??_bailenLeds+1
 10086  1E3C  306E               	movlw	110
 10087  1E3D  00A0               	movwf	??_bailenLeds
 10088  1E3E                     u4837:	
 10089  1E3E  0BA0               	decfsz	??_bailenLeds,f
 10090  1E3F  2E3E               	goto	u4837
 10091  1E40  0BA1               	decfsz	??_bailenLeds+1,f
 10092  1E41  2E3E               	goto	u4837
 10093  1E42                     l2916:	
 10094                           
 10095                           ;main.c: 89:         RA3 = 0;
 10096  1E42  1283               	bcf	3,5	;RP0=0, select bank0
 10097  1E43  1303               	bcf	3,6	;RP1=0, select bank0
 10098  1E44  1185               	bcf	5,3	;volatile
 10099                           
 10100                           ;main.c: 90:         _delay((unsigned long)((200)*(3579545/4000.0)));
 10101  1E45  30E9               	movlw	233
 10102  1E46  1283               	bcf	3,5	;RP0=0, select bank0
 10103  1E47  1303               	bcf	3,6	;RP1=0, select bank0
 10104  1E48  00A1               	movwf	??_bailenLeds+1
 10105  1E49  306E               	movlw	110
 10106  1E4A  00A0               	movwf	??_bailenLeds
 10107  1E4B                     u4847:	
 10108  1E4B  0BA0               	decfsz	??_bailenLeds,f
 10109  1E4C  2E4B               	goto	u4847
 10110  1E4D  0BA1               	decfsz	??_bailenLeds+1,f
 10111  1E4E  2E4B               	goto	u4847
 10112  1E4F                     l2918:	
 10113                           
 10114                           ;main.c: 91:         RA4 = 0;
 10115  1E4F  1283               	bcf	3,5	;RP0=0, select bank0
 10116  1E50  1303               	bcf	3,6	;RP1=0, select bank0
 10117  1E51  1205               	bcf	5,4	;volatile
 10118                           
 10119                           ;main.c: 92:     }
 10120  1E52  3001               	movlw	1
 10121  1E53  07A2               	addwf	bailenLeds@i,f
 10122  1E54  1803               	skipnc
 10123  1E55  0AA3               	incf	bailenLeds@i+1,f
 10124  1E56  3000               	movlw	0
 10125  1E57  07A3               	addwf	bailenLeds@i+1,f
 10126  1E58  3000               	movlw	0
 10127  1E59  0223               	subwf	bailenLeds@i+1,w
 10128  1E5A  300A               	movlw	10
 10129  1E5B  1903               	skipnz
 10130  1E5C  0222               	subwf	bailenLeds@i,w
 10131  1E5D  1C03               	skipc
 10132  1E5E  2E60               	goto	u4311
 10133  1E5F  2E61               	goto	u4310
 10134  1E60                     u4311:	
 10135  1E60  2E2A               	goto	l68
 10136  1E61                     u4310:	
 10137  1E61                     l70:	
 10138  1E61  0008               	return
 10139  1E62                     __end_of_bailenLeds:	
 10140                           
 10141                           	psect	text31
 10142  101C                     __ptext31:	
 10143 ;; *************** function _int_usart *****************
 10144 ;; Defined at:
 10145 ;;		line 223 in file "main.c"
 10146 ;; Parameters:    Size  Location     Type
 10147 ;;		None
 10148 ;; Auto vars:     Size  Location     Type
 10149 ;;  i               2    7[COMMON] int 
 10150 ;;  recibir         2    5[COMMON] int 
 10151 ;; Return value:  Size  Location     Type
 10152 ;;                  1    wreg      void 
 10153 ;; Registers used:
 10154 ;;		wreg, fsr0l, fsr0h, status,2, status,0, btemp+1
 10155 ;; Tracked objects:
 10156 ;;		On entry : 0/0
 10157 ;;		On exit  : 0/0
 10158 ;;		Unchanged: 0/0
 10159 ;; Data sizes:     COMMON   BANK0   BANK1   BANK3   BANK2
 10160 ;;      Params:         0       0       0       0       0
 10161 ;;      Locals:         4       0       0       0       0
 10162 ;;      Temps:          5       0       0       0       0
 10163 ;;      Totals:         9       0       0       0       0
 10164 ;;Total ram usage:        9 bytes
 10165 ;; Hardware stack levels used:    1
 10166 ;; This function calls:
 10167 ;;		Nothing
 10168 ;; This function is called by:
 10169 ;;		Interrupt level 1
 10170 ;; This function uses a non-reentrant model
 10171 ;;
 10172                           
 10173                           
 10174                           ;psect for function _int_usart
 10175  101C                     _int_usart:	
 10176  101C                     i1l3080:	
 10177                           
 10178                           ;main.c: 224:     int i = 0;
 10179  101C  01F7               	clrf	int_usart@i
 10180  101D  01F8               	clrf	int_usart@i+1
 10181  101E                     i1l3082:	
 10182                           
 10183                           ;main.c: 225:     int recibir = 1;
 10184  101E  3001               	movlw	1
 10185  101F  00F5               	movwf	int_usart@recibir
 10186  1020  3000               	movlw	0
 10187  1021  00F6               	movwf	int_usart@recibir+1
 10188  1022                     i1l3084:	
 10189                           
 10190                           ;main.c: 226:     huboInt = 1;
 10191  1022  3001               	movlw	1
 10192  1023  1683               	bsf	3,5	;RP0=1, select bank3
 10193  1024  1703               	bsf	3,6	;RP1=1, select bank3
 10194  1025  00CF               	movwf	_huboInt^(0+384)
 10195  1026  3000               	movlw	0
 10196  1027  00D0               	movwf	(_huboInt^(0+384)+1)
 10197                           
 10198                           ;main.c: 227:     while(recibir){
 10199  1028  285B               	goto	i1l3098
 10200  1029                     i1l123:	
 10201                           
 10202                           ;main.c: 228:         if(RCIF == 1){
 10203  1029  1283               	bcf	3,5	;RP0=0, select bank0
 10204  102A  1303               	bcf	3,6	;RP1=0, select bank0
 10205  102B  1E8C               	btfss	12,5	;volatile
 10206  102C  282E               	goto	u452_21
 10207  102D  282F               	goto	u452_20
 10208  102E                     u452_21:	
 10209  102E  285B               	goto	i1l3098
 10210  102F                     u452_20:	
 10211  102F                     i1l3086:	
 10212                           
 10213                           ;main.c: 229:             if(RCREG != 0x0D || RCREG != 0x0A || i < 9){
 10214  102F  300D               	movlw	13
 10215  1030  061A               	xorwf	26,w	;volatile
 10216  1031  1D03               	btfss	3,2
 10217  1032  2834               	goto	u453_21
 10218  1033  2835               	goto	u453_20
 10219  1034                     u453_21:	
 10220  1034  2848               	goto	i1l3092
 10221  1035                     u453_20:	
 10222  1035                     i1l3088:	
 10223  1035  300A               	movlw	10
 10224  1036  061A               	xorwf	26,w	;volatile
 10225  1037  1D03               	btfss	3,2
 10226  1038  283A               	goto	u454_21
 10227  1039  283B               	goto	u454_20
 10228  103A                     u454_21:	
 10229  103A  2848               	goto	i1l3092
 10230  103B                     u454_20:	
 10231  103B                     i1l3090:	
 10232  103B  0878               	movf	int_usart@i+1,w
 10233  103C  3A80               	xorlw	128
 10234  103D  00FF               	movwf	btemp+1
 10235  103E  3080               	movlw	128
 10236  103F  027F               	subwf	btemp+1,w
 10237  1040  1D03               	skipz
 10238  1041  2844               	goto	u455_25
 10239  1042  3009               	movlw	9
 10240  1043  0277               	subwf	int_usart@i,w
 10241  1044                     u455_25:	
 10242  1044  1803               	skipnc
 10243  1045  2847               	goto	u455_21
 10244  1046  2848               	goto	u455_20
 10245  1047                     u455_21:	
 10246  1047  2859               	goto	i1l3096
 10247  1048                     u455_20:	
 10248  1048                     i1l3092:	
 10249                           
 10250                           ;main.c: 230:                 codigoEntrada[i] = RCREG;
 10251  1048  1283               	bcf	3,5	;RP0=0, select bank0
 10252  1049  1303               	bcf	3,6	;RP1=0, select bank0
 10253  104A  081A               	movf	26,w	;volatile
 10254  104B  00F0               	movwf	??_int_usart
 10255  104C  0877               	movf	int_usart@i,w
 10256  104D  3EC4               	addlw	(low (_codigoEntrada| (0+256)))& (0+255)
 10257  104E  0084               	movwf	4
 10258  104F  0870               	movf	??_int_usart,w
 10259  1050  1783               	bsf	3,7	;select IRP bank3
 10260  1051  0080               	movwf	0
 10261  1052                     i1l3094:	
 10262                           
 10263                           ;main.c: 231:                 i++;
 10264  1052  3001               	movlw	1
 10265  1053  07F7               	addwf	int_usart@i,f
 10266  1054  1803               	skipnc
 10267  1055  0AF8               	incf	int_usart@i+1,f
 10268  1056  3000               	movlw	0
 10269  1057  07F8               	addwf	int_usart@i+1,f
 10270                           
 10271                           ;main.c: 232:             }
 10272  1058  285B               	goto	i1l3098
 10273  1059                     i1l3096:	
 10274                           
 10275                           ;main.c: 234:                 recibir = 0;
 10276  1059  01F5               	clrf	int_usart@recibir
 10277  105A  01F6               	clrf	int_usart@recibir+1
 10278  105B                     i1l3098:	
 10279                           
 10280                           ;main.c: 227:     while(recibir){
 10281  105B  0875               	movf	int_usart@recibir,w
 10282  105C  0476               	iorwf	int_usart@recibir+1,w
 10283  105D  1D03               	btfss	3,2
 10284  105E  2860               	goto	u456_21
 10285  105F  2861               	goto	u456_20
 10286  1060                     u456_21:	
 10287  1060  2829               	goto	i1l123
 10288  1061                     u456_20:	
 10289  1061                     i1l130:	
 10290  1061  0874               	movf	??_int_usart+4,w
 10291  1062  1283               	bcf	3,5	;RP0=0, select bank0
 10292  1063  1303               	bcf	3,6	;RP1=0, select bank0
 10293  1064  00FF               	movwf	btemp+1
 10294  1065  0873               	movf	??_int_usart+3,w
 10295  1066  008A               	movwf	10
 10296  1067  0872               	movf	??_int_usart+2,w
 10297  1068  0084               	movwf	4
 10298  1069  0E71               	swapf	(??_int_usart+1)^(0+4294967168),w
 10299  106A  0083               	movwf	3
 10300  106B  0EFE               	swapf	btemp,f
 10301  106C  0E7E               	swapf	btemp,w
 10302  106D  0009               	retfie
 10303  106E                     __end_of_int_usart:	
 10304  007E                     btemp	set	126	;btemp
 10305  007E                     wtemp0	set	126
 10306                           
 10307                           	psect	intentry
 10308  0004                     __pintentry:	
 10309                           ;incstack = 0
 10310                           ; Regs used in _int_usart: [wreg-fsr0h+status,2+status,0+btemp+1]
 10311                           
 10312  0004                     interrupt_function:	
 10313  007E                     saved_w	set	btemp
 10314  0004  00FE               	movwf	btemp
 10315  0005  0E03               	swapf	3,w
 10316  0006  00F1               	movwf	??_int_usart+1
 10317  0007  0804               	movf	4,w
 10318  0008  00F2               	movwf	??_int_usart+2
 10319  0009  080A               	movf	10,w
 10320  000A  00F3               	movwf	??_int_usart+3
 10321  000B  1283               	bcf	3,5	;RP0=0, select bank0
 10322  000C  1303               	bcf	3,6	;RP1=0, select bank0
 10323  000D  087F               	movf	btemp+1,w
 10324  000E  00F4               	movwf	??_int_usart+4
 10325  000F  160A  118A  281C   	ljmp	_int_usart


Data Sizes:
    Strings     156
    Constant    86
    Data        26
    BSS         19
    Persistent  0
    Stack       0

Auto Spaces:
    Space          Size  Autos    Used
    COMMON           14      9      13
    BANK0            80     80      80
    BANK1            80     78      78
    BANK3            96     26      67
    BANK2            96      0       0

Pointer List with Targets:

    eval_poly@d	PTR const  size(2) Largest target is 40
		 -> log@coeff(CODE[36]), exp@coeff(CODE[40]), 

    frexp@eptr	PTR int  size(1) Largest target is 2
		 -> log@exponent(BANK1[2]), floor@expon(BANK1[2]), 

    productos	PTR const unsigned char [13] size(2) Largest target is 12
		 -> STR_13(CODE[12]), STR_12(CODE[12]), STR_11(CODE[12]), STR_10(CODE[12]), 
		 -> STR_9(CODE[12]), STR_8(CODE[12]), STR_7(CODE[12]), STR_6(CODE[12]), 
		 -> STR_5(CODE[12]), STR_4(CODE[12]), STR_3(CODE[12]), STR_2(CODE[12]), 
		 -> STR_1(CODE[12]), 


Critical Paths under _main in COMMON

    None.

Critical Paths under _int_usart in COMMON

    None.

Critical Paths under _main in BANK0

    _eeprom_write->___bmul
    _pow->_log
    _log->___fladd
    _exp->_floor
    _exp->_log
    _floor->___fladd
    _frexp->___fleq
    ___fleq->___xxtofl
    ___fltol->___xxtofl
    _eval_poly->___fladd
    ___flmul->_frexp
    ___flsub->___fladd
    ___fladd->___flmul
    ___wmul->___bmul
    _accionesDeshacer->_mostrarDigitos
    _accionesAceptar->_mostrarDigitos
    _mostrarDigitos->___lwdiv

Critical Paths under _int_usart in BANK0

    None.

Critical Paths under _main in BANK1

    _main->_accionesPuertoSerial
    _accionesPuertoSerial->_EEPROM_search
    _EEPROM_search->_pow
    _pow->_exp
    _log->_eval_poly
    _exp->_ldexp
    _ldexp->_eval_poly

Critical Paths under _int_usart in BANK1

    None.

Critical Paths under _main in BANK3

    _accionesPuertoSerial->_EEPROM_search

Critical Paths under _int_usart in BANK3

    None.

Critical Paths under _main in BANK2

    None.

Critical Paths under _int_usart in BANK2

    None.

Call Graph Tables:

 ---------------------------------------------------------------------------------
 (Depth) Function   	        Calls       Base Space   Used Autos Params    Refs
 ---------------------------------------------------------------------------------
 (0) _main                                                12    12      0   66088
                                             74 BANK1      4     4      0
                                             18 BANK3      8     8      0
                             ___bmul
                    _accionesAceptar
                   _accionesDeshacer
               _accionesPuertoSerial
                        _eeprom_read
                       _eeprom_write
                      _iniciar_usart
 ---------------------------------------------------------------------------------
 (1) _iniciar_usart                                        0     0      0       0
 ---------------------------------------------------------------------------------
 (1) _eeprom_write                                         3     2      1     120
                                              4 BANK0      3     2      1
                             ___bmul (ARG)
 ---------------------------------------------------------------------------------
 (1) _accionesPuertoSerial                                 7     7      0   61702
                                             67 BANK1      7     7      0
                      _EEPROM_search
                     _mostrarDigitos
 ---------------------------------------------------------------------------------
 (2) _EEPROM_search                                       23    21      2   59730
                                             62 BANK1      5     3      2
                                              0 BANK3     18    18      0
                             ___bmul
                            ___fltol
                             ___wmul
                           ___xxtofl
                        _eeprom_read
                                _pow
 ---------------------------------------------------------------------------------
 (3) _pow                                                 22    14      8   56811
                                             40 BANK1     22    14      8
                             ___fleq
                             ___flge
                            ___flmul
                            ___flneg
                            ___fltol
                           ___xxtofl
                                _exp
                                _log
 ---------------------------------------------------------------------------------
 (4) _log                                                  7     3      4   18302
                                             79 BANK0      1     1      0
                                             20 BANK1      6     2      4
                            ___fladd
                             ___fleq
                             ___flge
                            ___flmul
                           ___xxtofl
                          _eval_poly
                              _frexp
 ---------------------------------------------------------------------------------
 (4) _exp                                                 12     8      4   29965
                                             28 BANK1     12     8      4
                            ___fldiv
                             ___fleq
                             ___flge
                            ___flmul
                            ___flneg
                            ___flsub
                            ___fltol
                           ___xxtofl
                          _eval_poly
                              _floor
                              _ldexp
                                _log (ARG)
 ---------------------------------------------------------------------------------
 (5) _ldexp                                                8     2      6    3256
                                             20 BANK1      8     2      6
                             ___fleq
                             ___flge
                          _eval_poly (ARG)
 ---------------------------------------------------------------------------------
 (5) _floor                                               11     7      4    7842
                                             79 BANK0      1     1      0
                                              0 BANK1     10     6      4
                            ___fladd
                             ___flge
                            ___fltol
                           ___xxtofl
                              _frexp
 ---------------------------------------------------------------------------------
 (5) _frexp                                                7     2      5    1834
                                             26 BANK0      7     2      5
                             ___fleq
 ---------------------------------------------------------------------------------
 (6) ___fleq                                              12     4      8    1306
                                             14 BANK0     12     4      8
                           ___xxtofl (ARG)
 ---------------------------------------------------------------------------------
 (5) ___xxtofl                                            14    10      4     778
                                              0 BANK0     14    10      4
 ---------------------------------------------------------------------------------
 (6) ___fltol                                             11     7      4     609
                                             14 BANK0     11     7      4
                           ___xxtofl (ARG)
 ---------------------------------------------------------------------------------
 (5) ___flge                                              12     4      8    1550
                                              0 BANK0     12     4      8
 ---------------------------------------------------------------------------------
 (5) _eval_poly                                           20    12      8    6529
                                              0 BANK1     20    12      8
                            ___fladd
                            ___flmul
 ---------------------------------------------------------------------------------
 (6) ___flmul                                             26    18      8    3151
                                             33 BANK0     26    18      8
                          __Umul8_16
                           ___xxtofl (ARG)
                              _frexp (ARG)
 ---------------------------------------------------------------------------------
 (7) __Umul8_16                                            9     7      2     799
                                              0 BANK0      9     7      2
 ---------------------------------------------------------------------------------
 (5) ___flsub                                              8     0      8    2941
                                              0 BANK1      8     0      8
                            ___fladd
                           ___xxtofl (ARG)
 ---------------------------------------------------------------------------------
 (6) ___fladd                                             20    12      8    2744
                                             59 BANK0     20    12      8
                            ___flmul (ARG)
                           ___xxtofl (ARG)
                              _frexp (ARG)
 ---------------------------------------------------------------------------------
 (5) ___flneg                                              4     0      4     273
                                              0 BANK0      4     0      4
 ---------------------------------------------------------------------------------
 (5) ___fldiv                                             26    18      8    1273
                                              0 BANK0     26    18      8
 ---------------------------------------------------------------------------------
 (1) _eeprom_read                                          2     2      0      22
                                              0 BANK0      2     2      0
 ---------------------------------------------------------------------------------
 (3) ___wmul                                               6     2      4     496
                                              4 BANK0      6     2      4
                             ___bmul (ARG)
                        _eeprom_read (ARG)
 ---------------------------------------------------------------------------------
 (3) ___bmul                                               4     3      1     396
                                              0 BANK0      4     3      1
 ---------------------------------------------------------------------------------
 (1) _accionesDeshacer                                     0     0      0    1771
                     _mostrarDigitos
 ---------------------------------------------------------------------------------
 (1) _accionesAceptar                                      0     0      0    1817
                         _bailenLeds
                     _mostrarDigitos
 ---------------------------------------------------------------------------------
 (2) _mostrarDigitos                                       4     2      2    1771
                                              8 BANK0      4     2      2
                            ___lwdiv
                            ___lwmod
 ---------------------------------------------------------------------------------
 (3) ___lwmod                                              6     2      4     615
                                              0 BANK0      6     2      4
 ---------------------------------------------------------------------------------
 (3) ___lwdiv                                              8     4      4     770
                                              0 BANK0      8     4      4
 ---------------------------------------------------------------------------------
 (2) _bailenLeds                                           4     4      0      46
                                              0 BANK0      4     4      0
 ---------------------------------------------------------------------------------
 Estimated maximum stack depth 7
 ---------------------------------------------------------------------------------
 (Depth) Function   	        Calls       Base Space   Used Autos Params    Refs
 ---------------------------------------------------------------------------------
 (8) _int_usart                                            9     9      0      70
                                              0 COMMON     9     9      0
 ---------------------------------------------------------------------------------
 Estimated maximum stack depth 8
 ---------------------------------------------------------------------------------

 Call Graph Graphs:

 _main (ROOT)
   ___bmul
   _accionesAceptar
     _bailenLeds
     _mostrarDigitos
       ___lwdiv
       ___lwmod
   _accionesDeshacer
     _mostrarDigitos
       ___lwdiv
       ___lwmod
   _accionesPuertoSerial
     _EEPROM_search
       ___bmul
       ___fltol
         ___xxtofl (ARG)
       ___wmul
         ___bmul (ARG)
         _eeprom_read (ARG)
       ___xxtofl
       _eeprom_read
       _pow
         ___fleq
           ___xxtofl (ARG)
         ___flge
         ___flmul
           __Umul8_16
           ___xxtofl (ARG)
           _frexp (ARG)
             ___fleq
               ___xxtofl (ARG)
         ___flneg
         ___fltol
           ___xxtofl (ARG)
         ___xxtofl
         _exp
           ___fldiv
           ___fleq
             ___xxtofl (ARG)
           ___flge
           ___flmul
             __Umul8_16
             ___xxtofl (ARG)
             _frexp (ARG)
               ___fleq
                 ___xxtofl (ARG)
           ___flneg
           ___flsub
             ___fladd
               ___flmul (ARG)
                 __Umul8_16
                 ___xxtofl (ARG)
                 _frexp (ARG)
                   ___fleq
                     ___xxtofl (ARG)
               ___xxtofl (ARG)
               _frexp (ARG)
                 ___fleq
                   ___xxtofl (ARG)
             ___xxtofl (ARG)
           ___fltol
             ___xxtofl (ARG)
           ___xxtofl
           _eval_poly
             ___fladd
               ___flmul (ARG)
                 __Umul8_16
                 ___xxtofl (ARG)
                 _frexp (ARG)
                   ___fleq
                     ___xxtofl (ARG)
               ___xxtofl (ARG)
               _frexp (ARG)
                 ___fleq
                   ___xxtofl (ARG)
             ___flmul
               __Umul8_16
               ___xxtofl (ARG)
               _frexp (ARG)
                 ___fleq
                   ___xxtofl (ARG)
           _floor
             ___fladd
               ___flmul (ARG)
                 __Umul8_16
                 ___xxtofl (ARG)
                 _frexp (ARG)
                   ___fleq
                     ___xxtofl (ARG)
               ___xxtofl (ARG)
               _frexp (ARG)
                 ___fleq
                   ___xxtofl (ARG)
             ___flge
             ___fltol
               ___xxtofl (ARG)
             ___xxtofl
             _frexp
               ___fleq
                 ___xxtofl (ARG)
           _ldexp
             ___fleq
               ___xxtofl (ARG)
             ___flge
             _eval_poly (ARG)
               ___fladd
                 ___flmul (ARG)
                   __Umul8_16
                   ___xxtofl (ARG)
                   _frexp (ARG)
                     ___fleq
                       ___xxtofl (ARG)
                 ___xxtofl (ARG)
                 _frexp (ARG)
                   ___fleq
                     ___xxtofl (ARG)
               ___flmul
                 __Umul8_16
                 ___xxtofl (ARG)
                 _frexp (ARG)
                   ___fleq
                     ___xxtofl (ARG)
           _log (ARG)
             ___fladd
               ___flmul (ARG)
                 __Umul8_16
                 ___xxtofl (ARG)
                 _frexp (ARG)
                   ___fleq
                     ___xxtofl (ARG)
               ___xxtofl (ARG)
               _frexp (ARG)
                 ___fleq
                   ___xxtofl (ARG)
             ___fleq
               ___xxtofl (ARG)
             ___flge
             ___flmul
               __Umul8_16
               ___xxtofl (ARG)
               _frexp (ARG)
                 ___fleq
                   ___xxtofl (ARG)
             ___xxtofl
             _eval_poly
               ___fladd
                 ___flmul (ARG)
                   __Umul8_16
                   ___xxtofl (ARG)
                   _frexp (ARG)
                     ___fleq
                       ___xxtofl (ARG)
                 ___xxtofl (ARG)
                 _frexp (ARG)
                   ___fleq
                     ___xxtofl (ARG)
               ___flmul
                 __Umul8_16
                 ___xxtofl (ARG)
                 _frexp (ARG)
                   ___fleq
                     ___xxtofl (ARG)
             _frexp
               ___fleq
                 ___xxtofl (ARG)
         _log
           ___fladd
             ___flmul (ARG)
               __Umul8_16
               ___xxtofl (ARG)
               _frexp (ARG)
                 ___fleq
                   ___xxtofl (ARG)
             ___xxtofl (ARG)
             _frexp (ARG)
               ___fleq
                 ___xxtofl (ARG)
           ___fleq
             ___xxtofl (ARG)
           ___flge
           ___flmul
             __Umul8_16
             ___xxtofl (ARG)
             _frexp (ARG)
               ___fleq
                 ___xxtofl (ARG)
           ___xxtofl
           _eval_poly
             ___fladd
               ___flmul (ARG)
                 __Umul8_16
                 ___xxtofl (ARG)
                 _frexp (ARG)
                   ___fleq
                     ___xxtofl (ARG)
               ___xxtofl (ARG)
               _frexp (ARG)
                 ___fleq
                   ___xxtofl (ARG)
             ___flmul
               __Umul8_16
               ___xxtofl (ARG)
               _frexp (ARG)
                 ___fleq
                   ___xxtofl (ARG)
           _frexp
             ___fleq
               ___xxtofl (ARG)
     _mostrarDigitos
       ___lwdiv
       ___lwmod
   _eeprom_read
   _eeprom_write
     ___bmul (ARG)
   _iniciar_usart

 _int_usart (ROOT)

 Address spaces:
Name               Size   Autos  Total    Cost      Usage
BANK3               60     1A      43       9       69.8%
BITBANK3            60      0       0       8        0.0%
SFR3                 0      0       0       4        0.0%
BITSFR3              0      0       0       4        0.0%
BANK2               60      0       0      11        0.0%
BITBANK2            60      0       0      10        0.0%
SFR2                 0      0       0       5        0.0%
BITSFR2              0      0       0       5        0.0%
BANK1               50     4E      4E       7       97.5%
BITBANK1            50      0       0       6        0.0%
SFR1                 0      0       0       2        0.0%
BITSFR1              0      0       0       2        0.0%
BANK0               50     50      50       5      100.0%
BITBANK0            50      0       0       4        0.0%
SFR0                 0      0       0       1        0.0%
BITSFR0              0      0       0       1        0.0%
COMMON               E      9       D       1       92.9%
BITCOMMON            E      0       0       0        0.0%
CODE                 0      0       0       0        0.0%
DATA                 0      0      EE      12        0.0%
ABS                  0      0      EE       3        0.0%
NULL                 0      0       0       0        0.0%
STACK                0      0       0       2        0.0%
EEDATA             100      0       0       0        0.0%


Microchip Technology PIC Macro Assembler V2.10 build 88905656 
Symbol Table                                                                                   Wed Apr 22 20:01:15 2020

                 ___fldiv@aexp 0039                   ___fldiv@bexp 0038                              pc 0002  
                 ___fldiv@sign 0031                 ___bmul@product 0022                    __CFG_CP$OFF 0000  
                           l70 1E61                             l62 124F                             l73 1D88  
                           l65 1D54                             l90 0D88                             l68 1E2A  
                           l77 1DC7                             l96 10EF                             l99 1104  
                           fsr 0004            ___wmul@multiplicand 0026            __Umul8_16@word_mpld 0026  
                          l110 13B7                            l104 13AB                            l109 13AB  
                          l223 1D8C                            l225 1DA7                            l242 1DF2  
                          l243 1DF2                            l253 1DD6                            l430 118F  
                          l422 1F52                            l246 1E14                            l255 1DEE  
                          l431 11A8                            l423 1F6E                            l424 1F83  
                          l249 1E25                            l602 167F                            l435 1D45  
                          l427 1123                            l604 17FF                            l525 1EE3  
                          l550 04A7                            l446 1FEA                            l710 0B36  
                          l535 1E9D                            l279 1D6B                            l439 1FFF  
                          l624 17E3                            l552 047E                            l449 1FFF  
                          l705 0955                            l626 17F3                            l618 1771  
                          l546 0400                            l714 0821                            l642 039C  
                          l706 0B36                            l571 0596                            l580 05F6  
                          l716 0833                            l732 0FFF                            l654 0390  
                          l567 0572                            l559 0624                            l592 1F33  
                          l648 0308                            l680 1274                            l752 07EA  
                          l744 1622                            l736 0FFF                            l577 05B8  
                          l682 130B                            l588 0618                            l756 08FB  
                          l589 0624                            l693 12D5                            l694 12E1  
                          l686 12B9                            l774 078E                            l784 14EF  
                          _RA1 0029                            _RA2 002A                            _RA3 002B  
                          _RA4 002C                   __CFG_CPD$OFF 0000                            _exp 0D89  
                          _log 0625                            _pow 08FC                            fsr0 0004  
                          indf 0000                   __CFG_FOSC$XT 0000                   ___flmul@aexp 0053  
                 ___flmul@bexp 0054                   ___flmul@sign 004E                   ___flmul@temp 0059  
                 ___flmul@prod 0055                   __CFG_LVP$OFF 0000                   ___fltol@exp1 0038  
             ??_mostrarDigitos 002A                           l2000 1F80                           l2010 0817  
                         l2002 1F82                           l2100 03D7                           l2012 081B  
                         l2020 1105                           l2110 03E8                           l2102 03D8  
                         l2014 082A                           l2006 080E                           l2030 1167  
                         l2022 111B                           l2200 050C                           l2120 0406  
                         l2112 03ED                           l2104 03DE                           l2016 082F  
                         l2008 0810                           l2032 116B                           l2024 1137  
                         l2040 1F84                           l2210 057A                           l2202 054A  
                         l2130 041A                           l2122 040A                           l2114 03F5  
                         l2106 03E2                           l2034 11A5                           l2026 113F  
                         l2050 1FB0                           l2042 1F91                           l2220 0595  
                         l2212 057F                           l2204 0550                           l2140 042E  
                         l2132 041E                           l2124 040E                           l2116 03F6  
                         l2108 03E3                           l2300 0084                           l2036 11A7  
                         l2028 1143                           l2052 1FB8                           l3100 0625  
                         l3020 1E04                           l2222 059A                           l2230 05A6  
                         l2206 0555                           l2150 0442                           l2142 0432  
                         l2134 0422                           l2126 0412                           l2118 03F8  
                         l2310 00A0                           l2302 008C                           l2070 1FDF  
                         l2062 1FC6                           l2054 1FBA                           l2046 1F9A  
                         l3102 064E                           l3030 1E1C                           l3022 1E0C  
                         l2224 059D                           l2216 0588                           l2208 0564  
                         l2232 05AA                           l2160 0482                           l2152 0446  
                         l2144 0436                           l2136 0426                           l2128 0416  
                         l2080 03AA                           l2400 0384                           l2320 00E3  
                         l2304 008E                           l2072 1FEF                           l2056 1FBE  
                         l2064 1FD8                           l2048 1FAF                           l3112 0695  
                         l3200 0BEB                           l3032 1E1D                           l3024 1E0F  
                         l2250 05F2                           l2242 05BD                           l2234 05AB  
                         l2226 059F                           l2218 0591                           l2170 049B  
                         l2162 048B                           l2146 043A                           l2138 042A  
                         l2154 044A                           l2090 03C1                           l2082 03AE  
                         l2402 0388                           l2330 016C                           l2322 00FF  
                         l2314 00A9                           l2306 0096                           l2074 1FF4  
                         l2410 1253                           l3114 06FE                           l3106 065D  
                         l3122 08FC                           l3202 0C26                           l3210 0D7C  
                         l3034 1E1E                           l3026 1E13                           l3018 1DF8  
                         l2500 163F                           l2260 060E                           l2252 05FB  
                         l2244 05C2                           l2236 05AF                           l2228 05A4  
                         l2180 04B9                           l2164 048D                           l2172 049F  
                         l2156 044B                           l2148 043E                           l2092 03C2  
                         l2084 03AF                           l2076 039D                           l2404 0389  
                         l2340 01DF                           l2332 017C                           l2324 012B  
                         l2316 00B9                           l2308 009B                           l2412 1258  
                         l3116 0704                           l3108 0686                           l3140 09BD  
                         l3132 0960                           l3124 08FF                           l3204 0C59  
                         l3220 1074                           l3036 1E24                           l3028 1E18  
                         l2510 1657                           l2502 1647                           l2262 0612  
                         l2254 0600                           l2246 05D0                           l2238 05B5  
                         l2190 04E3                           l2182 04D0                           l2174 04AB  
                         l2166 0491                           l2158 0462                           l2086 03B4  
                         l2094 03C4                           l2078 03A4                           l2406 0394  
                         l2350 028C                           l2342 01FC                           l2334 0199  
                         l2326 0147                           l2318 00C6                           l2270 003C  
                         l2430 12A2                           l2422 1285                           l2414 125C  
                         l3118 0723                           l3142 0A39                           l3150 0A82  
                         l3134 0989                           l3126 0926                           l3206 0D16  
                         l3230 10BA                           l3222 1087                           l3214 106E  
                         l2600 177B                           l2520 166C                           l2512 165D  
                         l2504 1648                           l2264 0614                           l2256 0608  
                         l2248 05D4                           l2192 04E7                           l2184 04D4  
                         l2176 04B0                           l2168 0492                           l2096 03CC  
                         l2088 03B9                           l2360 02D8                           l2352 02B4  
                         l2344 0229                           l2336 01A9                           l2328 0163  
                         l2280 0053                           l2272 0043                           l2440 12D9  
                         l2432 12B0                           l2424 128A                           l2416 126C  
                         l3152 0A9B                           l3128 0951                           l3208 0D51  
                         l3232 10D3                           l3224 108D                           l2610 17B9  
                         l2602 1789                           l2530 1693                           l2522 1674  
                         l2514 1661                           l2506 164A                           l2266 061F  
                         l2258 060D                           l2194 04E8                           l2186 04D8  
                         l2098 03D1                           l2370 02ED                           l2362 02D9  
                         l2354 02BD                           l2346 0239                           l2338 01C6  
                         l2290 006F                           l2282 0058                           l2274 0049  
                         l2450 1303                           l2442 12E3                           l2434 12C0  
                         l2426 1297                           l2418 127C                           l3154 0AE6  
                         l3146 0A48                           l3138 0994                           l3162 0B37  
                         l3234 10DF                           l3226 109A                           l3250 1314  
                         l2620 17E9                           l2612 17C7                           l2604 178D  
                         l2532 1697                           l2524 1675                           l2516 1662  
                         l2508 1652                           l2268 0623                           l2196 04F1  
                         l2188 04E1                           l2380 0312                           l2372 02F1  
                         l2364 02E2                           l2356 02CB                           l2348 0266  
                         l2292 0075                           l2284 0060                           l2276 004D  
                         l2444 12F9                           l2436 12CB                           l2428 129E  
                         l2700 08E3                           l3156 0AFD                           l3148 0A4F  
                         l3180 0B6A                           l3172 0B48                           l3164 0B3F  
                         l3236 10F2                           l3228 10AF                           l3252 1315  
                         l3244 130C                           l2622 17ED                           l2614 17D6  
                         l2606 17A6                           l2550 16D8                           l2542 16AE  
                         l2518 1667                           l2526 1677                           l2198 04F6  
                         l2390 0350                           l2382 0320                           l2374 0305  
                         l2358 02D4                           l2366 02E8                           l2294 0079  
                         l2286 0062                           l2278 004E                           l2446 12FE  
                         l2438 12CF                           l2470 07EA                           l2462 07BB  
                         l2454 078F                           l2630 14F0                           l2702 08FB  
                         l3158 0B02                           l3182 0B70                           l3174 0B59  
                         l3166 0B44                           l3190 0B93                           l3238 1101  
                         l3270 1380                           l3262 1329                           l3254 131A  
                         l3246 1310                           l2624 17EF                           l2616 17DA  
                         l2608 17AC                           l2560 16F6                           l2552 16DA  
                         l2544 16C0                           l2528 1687                           l2536 16A0  
                         l2392 035B                           l2384 0324                           l2368 02EC  
                         l2296 007A                           l2288 006A                           l2448 1302  
                         l2464 07D8                           l2456 07AA                           l2640 1549  
                         l2632 1511                           l3192 0BA0                           l3184 0B76  
                         l3176 0B62                           l3280 13BB                           l3272 1388  
                         l3256 1325                           l3248 1311                           l2618 17E2  
                         l2554 16DF                           l2562 16FF                           l2570 1724  
                         l2546 16C8                           l2538 16A5                           l2490 162A  
                         l2474 1D39                           l2482 1EE4                           l2394 036A  
                         l2386 033D                           l2378 030D                           l2298 007F  
                         l2466 07E5                           l2458 07B2                           l2650 15D8  
                         l2634 1517                           l2730 0DB2                           l3194 0BAF  
                         l3186 0B83                           l3178 0B66                           l3282 13C1  
                         l3274 1395                           l2900 1204                           l2820 1DCC  
                         l2580 1741                           l2572 172A                           l2564 1711  
                         l2556 16F1                           l2548 16D0                           l2492 1630  
                         l2476 1D43                           l2484 1EE8                           l2396 0374  
                         l2388 0343                           l2660 1423                           l2468 07E9  
                         l2636 153E                           l2644 1554                           l2740 0DF7  
                         l3196 0BB7                           l3188 0B8D                           l3284 13C9  
                         l3276 139D                           l3268 132D                           l2902 1217  
                         l2822 1DD0                           l2590 1756                           l2582 1742  
                         l2574 1732                           l2566 1712                           l2558 16F5  
                         l2494 1634                           l2478 1D45                           l2398 0376  
                         l2662 14E1                           l2654 1618                           l2646 155D  
                         l2670 085D                           l2750 0E64                           l2742 0E20  
                         l2734 0DBD                           l3198 0BBE                           l3278 13B1  
                         l2912 1E2B                           l2904 1233                           l2840 1D63  
                         l2832 1D58                           l2824 1DDD                           l2592 175A  
                         l2584 174B                           l2576 1734                           l2568 1720  
                         l2496 1635                           l2488 1623                           l2664 14E7  
                         l2648 155E                           l2760 0F58                           l2752 0E97  
                         l2736 0DE8                           l2728 0D89                           l2914 1E35  
                         l2906 1E26                           l2850 1EA8                           l2842 1D6A  
                         l2834 1D59                           l2826 1DE4                           l2818 1DC8  
                         l2594 176E                           l2578 173D                           l2586 1751  
                         l2498 163A                           l2658 13D2                           l2690 08CD  
                         l2674 0868                           l2770 0FC1                           l2762 0F8A  
                         l2754 0ED6                           l2746 0E2F                           l2916 1E42  
                         l2860 1ECB                           l2852 1EAB                           l2836 1D5D  
                         l2828 1DEA                           l2588 1755                           l2684 0893  
                         l2676 0882                           l2668 0834                           l2764 0F8F  
                         l2756 0EED                           l2748 0E5F                           l2918 1E4F  
                         l2862 1ED1                           l2854 1EB2                           l2846 1E9E  
                         l2838 1D61                           l2774 1D95                           l2598 1776  
                         l2686 08A0                           l2678 0886                           l2766 0FB6  
                         l2758 0F14                           l2864 1ED2                           l2856 1EB6  
                         l2848 1EA2                           l2880 1E78                           l2872 1E62  
                         l2696 08D8                           l2688 08A4                           l2866 1ED9  
                         l2858 1EBA                           l2882 1E7C                           l2874 1E6A  
                         l2890 1E99                           l1994 1F34                           l2868 1EDF  
                         l2884 1E86                           l2876 1E6D                           l2980 1D83  
                         l1996 1F4A                           l2972 1D46                           l2886 1E8C  
                         l2878 1E74                           l2894 11A9                           l2982 1DA8  
                         l1998 1F66                           l2974 1D4A                           l2888 1E93  
                         l2896 11C3                           l2976 1D6C                           l2984 1DB4  
                         l2898 11FD                           l2978 1D74                           l2986 1DB8  
                         ?_exp 00BC                           ?_log 00B4                           ?_pow 00C8  
                         STR_1 1868                           STR_2 18D4                           STR_3 18F8  
                         STR_4 1880                           STR_5 18C8                           STR_6 1898  
                         STR_7 18A4                           STR_8 18EC                           STR_9 1874  
                         u3000 0058                           u3001 0057                           u3010 0079  
                         u3011 0078                           u3020 007F                           u2300 1F66  
                         u3021 007E                           u2301 1F65                           u3030 0084  
                         u2310 1F80                           u3111 018B                           u3031 0083  
                         u2311 1F7F                           u2320 081B                           u3112 0192  
                         u3040 009B                           u4000 0E64                           u2321 081A  
                         u3201 02A6                           u3121 01B8                           u3113 0199  
                         u3105 0165                           u3041 009A                           u2401 117A  
                         u4001 0E63                           u3202 02AD                           u3122 01BF  
                         u3050 00A0                           u2410 11A5                           u2402 117B  
                         u4010 0F8F                           u3203 02B4                           u3123 01C6  
                         u3051 009F                           u2411 11A4                           u2403 1180  
                         u2315 1F7C                           u4011 0F8E                           u4100 1DD0  
                         u2340 082F                           u3300 0324                           u2404 1181  
                         u2500 1FEF                           u2420 1F91                           u4020 0FB6  
                         u4101 1DCF                           u2341 082E                           u3301 0323  
                         u3141 01EE                           u3061 00F1                           u2405 1186  
                         u2501 1FEE                           u2421 1F90                           u4021 0FB5  
                         u4030 1D95                           u3310 0333                           u3230 02D8  
                         u3142 01F5                           u3062 00F8                           u2406 1187  
                         u2350 111B                           u2510 1FF4                           u2430 1FA8  
                         u4031 1D92                           u2335 0822                           u3231 02D7  
                         u3215 02B6                           u3151 021B                           u3143 01FC  
                         u3135 01C8                           u3071 010D                           u3063 00FF  
                         u2415 11A1                           u2351 111A                           u2511 1FF3  
                         u4200 1ECB                           u2600 040A                           u2520 03AE  
                         u3320 0350                           u3152 0222                           u3072 0114  
                         u2360 1137                           u2440 1FBE                           u4201 1ECA  
                         u2601 0409                           u2521 03AD                           u3321 034F  
                         u3225 02CD                           u3161 0248                           u3153 0229  
                         u3081 0139                           u3073 011B                           u2361 1136  
                         u2441 1FBD                           u4130 1DEA                           u2610 0462  
                         u2530 03B4                           u3330 036A                           u3250 02EC  
                         u3170 0272                           u3162 024F                           u3082 0140  
                         u2370 1143                           u2450 1FC5                           u3410 12BF  
                         u2290 1F4A                           u4131 1DE9                           u4115 1DD7  
                         u2611 0461                           u2531 03B3                           u3331 0369  
                         u3315 032E                           u3251 02EB                           u3163 0256  
                         u3091 0155                           u3083 0147                           u2371 1142  
                         u2451 1FC4                           u2435 1FA3                           u3411 12BE  
                         u2291 1F49                           u4220 1EDF                           u4300 11FD  
                         u4140 1D5D                           u3500 1D43                           u2620 046D  
                         u2540 03B9                           u3340 0388                           u3260 02F1  
                         u3092 015C                           u4221 1EDE                           u4205 1EC7  
                         u4301 11FC                           u4141 1D5C                           u4125 1DDE  
                         u3501 1D42                           u2701 04C2                           u2621 046B  
                         u2541 03B8                           u3341 0387                           u3325 034C  
                         u3261 02F0                           u3245 02DB                           u3181 027E  
                         u3093 0163                           u2381 1152                           u3405 12B1  
                         u4310 1E61                           u4230 1E6A                           u4150 1D6A  
                         u3510 1634                           u2710 04D4                           u2702 04C9  
                         u2630 046E                           u2550 03D7                           u3270 0305  
                         u3190 029A                           u3182 0285                           u2390 116B  
                         u2382 1153                           u2470 1FD7                           u3430 12CF  
                         u3350 1258                           u4311 1E60                           u4215 1ED3  
                         u4231 1E69                           u4151 1D69                           u3511 1633  
                         u2711 04D3                           u2703 04D0                           u2615 045E  
                         u2551 03D6                           u3335 0366                           u3271 0304  
                         u3183 028C                           u3175 026D                           u2391 116A  
                         u2383 1158                           u2471 1FD6                           u3431 12CE  
                         u3351 1257                           u4160 1EA8                           u3520 163A  
                         u2800 057F                           u2720 04D8                           u2640 0482  
                         u2560 03E2                           u3280 030C                           u2384 1159  
                         u2480 1FDE                           u3440 12D5                           u3360 125C  
                         u4161 1EA7                           u3521 1639                           u2801 057E  
                         u2721 04D7                           u2641 0481                           u2561 03E1  
                         u3281 030B                           u2385 115E                           u2481 1FDD  
                         u2465 1FC7                           u3441 12D4                           u3425 12C4  
                         u3361 125B                           u4250 1E7C                           u3530 163F  
                         u2730 04E7                           u2650 0491                           u2570 03E8  
                         u3290 0312                           u2386 115F                           u3450 12D9  
                         u3370 127C                           u4251 1E7B                           u3531 163E  
                         u2731 04E6                           u2651 0490                           u2571 03E7  
                         u3291 0311                           u3195 0295                           u3451 12D8  
                         u3371 127B                           u4180 1EBA                           u4260 1E86  
                         u3700 1755                           u3620 16F5                           u3540 1661  
                         u2900 05D4                           u2820 0595                           u2580 03ED  
                         u3460 12EE                           u4420 1DF8                           u4181 1EB9  
                         u4261 1E85                           u4245 1E6E                           u3701 1754  
                         u3621 16F4                           u3605 16E1                           u3541 1660  
                         u2901 05D3                           u2821 0594                           u2581 03EC  
                         u4421 1DF7                           u3710 175A                           u3550 1667  
                         u2910 05E3                           u2830 059A                           u2750 050C  
                         u2670 04A7                           u2590 0406                           u3470 12FE  
                         u3390 129D                           u4430 1E13                           u4175 1EAC  
                         u3711 1759                           u3615 16EA                           u3551 1666  
                         u2831 0599                           u2815 058A                           u2751 050B  
                         u2671 04A6                           u2591 0405                           u2495 1FE1  
                         u3471 12FD                           u3391 129C                           u4431 1E12  
                         u4280 1E99                           u3720 176E                           u3640 1711  
                         u3560 166C                           u2920 05F2                           u2840 05A4  
                         u2680 04AB                           u3480 1302                           u3800 1517  
                         u4600 0951                           u4440 1E24                           u4281 1E98  
                         u4265 1E82                           u3721 176D                           u3641 1710  
                         u3561 166B                           u2921 05F1                           u2841 05A3  
                         u2761 0523                           u2753 0508                           u2745 04EA  
                         u2681 04AA                           u2665 0494                           u3481 1301  
                         u3465 12E9                           u3385 128F                           u3801 1516  
                         u4601 0950                           u4441 1E23                           u4290 11C3  
                         u3730 1775                           u3650 172A                           u3570 1687  
                         u2930 05FB                           u2850 05AA                           u2770 0537  
                         u2762 0524                           u2690 04B0                           u3490 07AA  
                         u3810 153E                           u4610 0989                           u4195 1EBB  
                         u4275 1E8D                           u4291 11C2                           u3731 1774  
                         u3651 1729                           u3635 16F8                           u3571 1686  
                         u2931 05FA                           u2915 05DE                           u2851 05A9  
                         u2771 0538                           u2763 0529                           u2691 04AF  
                         u3491 07A9                           u3811 153D                           u4611 0988  
                         u4380 1DB4                           u3740 177B                           u3660 1732  
                         u3580 16A5                           u2940 0600                           u2860 05AF  
                         u2780 0555                           u2772 053D                           u2764 052A  
                         u3820 155D                           u3900 0886                           u4620 09BD  
                         u4700 0C59                           u4381 1DB3                           u3741 177A  
                         u3661 1731                           u3645 170D                           u3581 16A4  
                         u2941 05FF                           u2861 05AE                           u2781 0554  
                         u2773 053E                           u2765 052F                           u3821 155C  
                         u3901 0885                           u4621 09BC                           u4701 0C58  
                         u3750 178D                           u3590 16DF                           u2950 060D  
                         u2870 05B5                           u2790 057A                           u2766 0530  
                         u3830 15D8                           u3910 08A0                           u4630 0A39  
                         u4710 109A                           u3751 178C                           u3591 16DE  
                         u2951 060C                           u2871 05B4                           u2791 0579  
                         u3831 15D7                           u3911 089F                           u4631 0A38  
                         u4711 1099                           u3760 179C                           u3680 1741  
                         u2960 0612                           u2880 05BC                           u3920 08CD  
                         u4640 0B02                           u4720 10AF                           u4800 13C9  
                         u4385 1DB0                           u3681 1740                           u2961 0611  
                         u2881 05BB                           u3921 08CC                           u4641 0B01  
                         u4721 10AE                           u4801 13C8                           u3770 17B9  
                         u2970 0623                           u2890 05C2                           u3850 13E6  
                         u4570 064E                           u4650 0B59                           u4730 10D3  
                         u3771 17B8                           u3675 1736                           u2971 0622  
                         u2891 05C1                           u3915 089C                           u4571 064D  
                         u4651 0B58                           u4731 10D2                           u4715 1096  
                         u3780 17D6                           u2980 004D                           u4580 0686  
                         u4660 0B83                           u4740 1325                           _RCIF 0065  
                         u3781 17D5                           u3765 1797                           u2981 004C  
                         u3845 13D7                           u4581 0685                           u4661 0B82  
                         u4725 10AB                           u4741 1324                           u3790 17ED  
                         u2990 0053                           u3870 143B                           u3950 0DB2  
                         u4590 0926                           u4670 0BA0                           u4750 134E  
                         u3791 17EC                           u3775 17B5                           u3695 1744  
                         u2991 0052                           u3951 0DB1                           u4591 0925  
                         u4671 0B9F                           u3880 14E7                           u3960 0DE8  
                         u4680 0BAF                           u4760 1395                           u3785 17D2  
                         u3881 14E6                           u3865 142C                           u3961 0DE7  
                         u4681 0BAE                           u4665 0B7F                           u4817 10FA  
                         u4761 1394                           u3890 085D                           u3970 0E20  
                         u4690 0BBE                           u4770 13AA                           u4827 1E31  
                         u3891 085C                           u3971 0E1F                           u4691 0BBD  
                         u4675 0B9C                           u4771 13A9                           u3980 0E59  
                         u4780 13B1                           u4837 1E3E                           u3981 0E57  
                         u4685 0BAB                           u4781 13B0                           u4765 1391  
                         u3990 0E5A                           u4790 13BB                           u4847 1E4B  
                         u4791 13BA                           u4775 13A6                 ??_eeprom_write 0025  
                 __CFG_WRT$OFF 0000                           _main 130C                _accionesAceptar 1D6C  
                         btemp 007E                           exp@x 00BC                           log@x 00B4  
                __CFG_BOREN$ON 0000                           pow@x 00C8                           pow@y 00CC  
                         start 0012                ___fldiv@new_exp 0032              ___bmul@multiplier 0023  
               EEPROM_search@i 01B8                          ??_exp 00C0                          ??_log 006F  
                        ??_pow 00D0  __size_of_accionesPuertoSerial 0097                  ___fltol@sign1 0037  
              __end_of___fladd 0625                          ?_main 0070                __end_of___fldiv 1800  
              __end_of___flneg 1D46                          _EEADR 010D                          STR_10 18B0  
                        STR_11 188C                          STR_12 18BC                          STR_13 18E0  
                __CFG_WDTE$OFF 0000                __end_of___flmul 039D                __end_of___flsub 1F34  
              __end_of___fltol 2000                __end_of___lwdiv 1EE4                          i1l130 1061  
                        i1l123 1029                __end_of___lwmod 1E9E                          _RCREG 001A  
                        _RCSTA 0018                          _SPBRG 0099                          _PORTB 0006  
                        _PORTD 0008                          _TRISA 0085                          _TRISB 0086  
                        _TRISD 0088                          _TXSTA 0098         __size_of_iniciar_usart 000F  
                        _floor 14F0                          _ldexp 0834                          _frexp 078F  
                        _errno 0079                          main@i 00EA                          main@j 00EC  
                        pclath 000A                          pow@yi 00DA               _accionesDeshacer 1DA8  
                        status 0003                          wtemp0 007E              _EEPROM_search$958 01AC  
            _EEPROM_search$959 01B0                    exp@exponent 00C5                    ldexp@newexp 00B8  
              __initialization 0015                    log@exponent 00B8                   __end_of_main 13D2  
                       ??_main 01BC          __end_of_EEPROM_search 0D89        __end_of_accionesAceptar 1D89  
                       ?_floor 00A0                         ?_ldexp 00B4                         ?_frexp 003A  
                       _EEDATA 010C                         _EECON1 018C                         _EECON2 018D  
                       i1l3080 101C                         i1l3090 103B                         i1l3082 101E  
                       i1l3092 1048                         i1l3084 1022                         i1l3094 1052  
                       i1l3086 102F                         i1l3096 1059                         i1l3088 1035  
                       i1l3098 105B                         _INTCON 000B                         u452_20 102F  
                       u452_21 102E                         u453_20 1035                         u453_21 1034  
                       u454_20 103B                         u454_21 103A                         u455_20 1048  
                       u455_21 1047                         u455_25 1044                         u456_20 1061  
                       u456_21 1060               __end_of___xxtofl 130C                  _iniciar_usart 1D46  
               __CFG_PWRTE$OFF 0000           __size_of_eeprom_read 001F                         ___flge 1105  
                       ___bmul 1D55                         ___fleq 1F34                      ??___fladd 0063  
                       ___wmul 1DC8                      ??___fldiv 0028                      ??___flneg 0024  
                    ??___flmul 0049                      ??___flsub 006F                      ??___fltol 0032  
                       _digito 1812                      ??___lwdiv 0024                      ??___lwmod 0024  
                       _cuenta 01D1           __end_of_eeprom_write 1E26                         floor@i 00A4  
                       floor@x 00A0             __size_of__Umul8_16 0029                         saved_w 007E  
                   ___flge@ff1 0020                     ___flge@ff2 0024                   ___xxtofl@arg 002A  
             __end_ofexp@coeff 1844                   ___xxtofl@exp 0029                   ___xxtofl@val 0020  
                   ___fleq@ff1 002E                     ___fleq@ff2 0032               __end_oflog@coeff 1868  
      __end_of__initialization 0038                     ___flneg@f1 0020                eeprom_read@addr 0021  
               ?_iniciar_usart 0070                   eval_poly@res 00B0                     ___fltol@f1 002E  
          ___bmul@multiplicand 0020                 __pcstackCOMMON 0070                   __pidataBANK3 1002  
                __end_of_floor 1623                  __end_of_ldexp 08FC                  __end_of_frexp 07EB  
                   _bailenLeds 1E26              eeprom_write@value 0024               ?_accionesAceptar 0070  
                      ??_floor 006F                        ??_ldexp 00BA                        ??_frexp 003F  
                   __pbssBANK3 01C4             __size_of_eval_poly 011E              __end_of__Umul8_16 0834  
           __size_of_int_usart 0052                     __pmaintext 130C                        ?___flge 0020  
                      ?___bmul 0020                        ?___fleq 002E                        ?___wmul 0024  
        accionesPuertoSerial@i 00E6                     __pintentry 0004            EEPROM_search@precio 01AA  
     __end_of_accionesDeshacer 1DC8        accionesPuertoSerial@Aux 00E8                      ?___xxtofl 0020  
                   __stringtab 1800   __end_of_accionesPuertoSerial 1105                ??_iniciar_usart 0020  
        __size_of_eeprom_write 0037                __size_of___flge 00A4                __size_of___bmul 0017  
              __size_of___fleq 0050                        ___fladd 039D                        ___fldiv 1623  
                      ___flneg 1D39                        ___flmul 003C                        ___flsub 1EE4  
                      ___fltol 1F84                __size_of___wmul 0027                        ___lwdiv 1E9E  
                      ___lwmod 1E62                        _exp$962 00C1              __end_of_eval_poly 14F0  
                      __ptext1 1D46                        __ptext2 1DEF                        __ptext3 106E  
                      __ptext4 0B37                        __ptext5 08FC                        __ptext6 0625  
                      __ptext7 0D89                        __ptext8 0834                        __ptext9 14F0  
                      _pow$960 00D1                        _pow$961 00D5                    ?_bailenLeds 0070  
                      _huboInt 01CF                   __size_of_exp 0277                   __size_of_log 016A  
                 __size_of_pow 023B                     ??___xxtofl 0024              __end_of_int_usart 106E  
         end_of_initialization 0038                        exp@sign 00C7                   _eeprom_write 1DEF  
                      pow@sign 00D9        __size_of_mostrarDigitos 00A7                   __pstringtext 1800  
                  ___fladd@grs 006E                  ___xxtofl@sign 0028                      _TRISCbits 0087  
                  ___fldiv@grs 0034                    ___fldiv@rem 002D                    ___flmul@grs 004F  
                ??_eeprom_read 0020            __size_of_bailenLeds 003C         __size_of_EEPROM_search 0252  
               __end_of___flge 11A9                 __end_of___bmul 1D6C                 __end_of___fleq 1F84  
               __end_of___wmul 1DEF                 __end_of_digito 181C           _accionesPuertoSerial 106E  
                   floor@expon 00A8            start_initialization 0015                     eval_poly@d 00A4  
                   eval_poly@n 00A6                     eval_poly@x 00A0                     ldexp@value 00B4  
                  __end_of_exp 1000                    __end_of_log 078F                    __end_of_pow 0B37  
                   frexp@value 003A              EEPROM_search@esta 01B4                 _prodIngresados 01CD  
                     ??___flge 0028                       ??___bmul 0021                       ??___fleq 0036  
                     ??___wmul 0028            __end_of_eeprom_read 1DA8                     init_fetch0 07EB  
                    __Umul8_16 080B                    __pdataBANK3 0190          ?_accionesPuertoSerial 0070  
                    ___fladd@a 005F                      ___fladd@b 005B              ?_accionesDeshacer 0070  
                    ___fldiv@a 0020                      ___fldiv@b 0024                      ___flmul@a 0045  
                    ___flmul@b 0041                    __pbssCOMMON 0079                      ___flsub@a 00A0  
                    ___flsub@b 00A4                      ___latbits 0002             ??_accionesDeshacer 002C  
                __pcstackBANK0 0020                  __pcstackBANK1 00A0                  __pcstackBANK3 01AA  
                _EEPROM_search 0B37              __size_of___xxtofl 00BC                     int_usart@i 0077  
             eeprom_write@addr 0026       __size_of_accionesAceptar 001D                 _mostrarDigitos 11A9  
             ___lwdiv@dividend 0022                       ?___fladd 005B                       ?___fldiv 0020  
                     ?___flneg 0020                       ?___flmul 0041                       ?___flsub 00A0  
                     ?___fltol 002E                     ?__Umul8_16 0020                       ?___lwdiv 0020  
                     ?___lwmod 0020                      _auxCuenta 007B                   ??_bailenLeds 0020  
                    _eval_poly 13D2                 ?_EEPROM_search 00DE           EEPROM_search@numProd 01BA  
             ___lwdiv@quotient 0025                 __size_of_floor 0133                 __size_of_ldexp 00C8  
               __size_of_frexp 005C                      _int_usart 101C              interrupt_function 0004  
               ___wmul@product 0028         __end_of_mostrarDigitos 1250          __end_of_iniciar_usart 1D55  
                  _eeprom_read 1D89                       _PIE1bits 008C                    bailenLeds@i 0022  
           __end_of_bailenLeds 1E62         EEPROM_search@direccion 01B6         ??_accionesPuertoSerial 00E3  
                    _productos 0190                    __stringbase 1812              ___wmul@multiplier 0024  
                   ?_eval_poly 00A0                  _codigoEntrada 01C4                     ?_int_usart 0070  
              ?_mostrarDigitos 0028                      frexp@eptr 003E                     _EECON1bits 018C  
                  ??__Umul8_16 0022              ??_accionesAceptar 002C               __size_of___fladd 0288  
             __size_of___fldiv 01DD               __size_of___flneg 000D               __size_of___flmul 0361  
             __size_of___flsub 0050               __size_of___fltol 007C               __size_of___lwdiv 0046  
             __size_of___lwmod 003C             __end_of__stringtab 1812                ??_EEPROM_search 00E0  
                     ___xxtofl 1250                ___lwdiv@divisor 0020                ___lwdiv@counter 0027  
                     __ptext10 078F                       __ptext11 1F34                       __ptext20 1D39  
                     __ptext12 1250                       __ptext21 1623                       __ptext13 1F84  
                     __ptext30 1E26                       __ptext22 1D89                       __ptext14 1105  
                     __ptext31 101C                       __ptext23 1DC8                       __ptext15 13D2  
                     __ptext24 1D55                       __ptext16 003C                       __ptext25 1DA8  
                     __ptext17 080B                       __ptext26 1D6C                       __ptext18 1EE4  
                     __ptext27 11A9                       __ptext19 039D                       __ptext28 1E62  
                     __ptext29 1E9E                  __size_of_main 00C6                       exp@coeff 181C  
                     log@coeff 1844                     _INTCONbits 000B                    ??_eval_poly 00A8  
             int_usart@recibir 0075                       init_ram0 07EF                       intlevel1 0000  
                  ??_int_usart 0070               ___lwmod@dividend 0022      __size_of_accionesDeshacer 0020  
                    stringcode 180A              mostrarDigitos@num 0028         __Umul8_16@multiplicand 0020  
              ___lwmod@divisor 0020                ___lwmod@counter 0025                       stringtab 1800  
                ___fladd@signs 006B                  ?_eeprom_write 0024                   ___fladd@aexp 006C  
                 ___fladd@bexp 006D                     _STATUSbits 0003           __Umul8_16@multiplier 0028  
                 ?_eeprom_read 0070              __Umul8_16@product 0024  
