

Microchip MPLAB XC8 Assembler V2.10 build 88905656 
                                                                                               Tue May 26 22:03:36 2020

Microchip MPLAB XC8 C Compiler v2.10 (Free license) build 20190730164152 Og1 
     1                           	processor	16F877A
     2                           	opt	pw 120
     3                           	opt	flic
     4                           	psect	idataCOMMON,global,class=CODE,delta=2
     5                           	psect	strings,global,class=STRING,delta=2
     6                           	psect	cinit,global,class=CODE,merge=1,delta=2
     7                           	psect	bssCOMMON,global,class=COMMON,space=1,delta=1
     8                           	psect	dataCOMMON,global,class=COMMON,space=1,delta=1
     9                           	psect	bssBANK0,global,class=BANK0,space=1,delta=1
    10                           	psect	clrtext,global,class=CODE,delta=2
    11                           	psect	cstackCOMMON,global,class=COMMON,space=1,delta=1
    12                           	psect	cstackBANK0,global,class=BANK0,space=1,delta=1
    13                           	psect	maintext,global,class=CODE,split=1,delta=2
    14                           	psect	text1,local,class=CODE,merge=1,delta=2
    15                           	psect	text2,local,class=CODE,merge=1,delta=2
    16                           	psect	text3,local,class=CODE,merge=1,delta=2
    17                           	psect	text4,local,class=CODE,merge=1,delta=2
    18                           	psect	text5,local,class=CODE,merge=1,delta=2,group=1
    19                           	psect	text6,local,class=CODE,merge=1,delta=2
    20                           	psect	text7,local,class=CODE,merge=1,delta=2
    21                           	psect	text8,local,class=CODE,merge=1,delta=2,group=1
    22                           	psect	text9,local,class=CODE,merge=1,delta=2
    23                           	psect	text10,local,class=CODE,merge=1,delta=2
    24                           	psect	text11,local,class=CODE,merge=1,delta=2
    25                           	psect	text12,local,class=CODE,merge=1,delta=2
    26                           	psect	text13,local,class=CODE,merge=1,delta=2
    27                           	psect	text14,local,class=CODE,merge=1,delta=2
    28                           	psect	text15,local,class=CODE,merge=1,delta=2
    29                           	psect	text16,local,class=CODE,merge=1,delta=2
    30                           	psect	text17,local,class=CODE,merge=1,delta=2,group=1
    31                           	psect	text18,local,class=CODE,merge=1,delta=2
    32                           	psect	text19,local,class=CODE,merge=1,delta=2
    33                           	psect	text20,local,class=CODE,merge=1,delta=2
    34                           	psect	text21,local,class=CODE,merge=1,delta=2
    35                           	psect	text22,local,class=CODE,merge=1,delta=2,group=1
    36                           	psect	text23,local,class=CODE,merge=1,delta=2
    37                           	psect	text24,local,class=CODE,merge=1,delta=2
    38                           	psect	text25,local,class=CODE,merge=1,delta=2,group=1
    39                           	psect	text26,local,class=CODE,merge=1,delta=2,group=1
    40                           	psect	text27,local,class=CODE,merge=1,delta=2
    41                           	psect	text28,local,class=CODE,merge=1,delta=2
    42                           	psect	intentry,global,class=CODE,delta=2
    43                           	dabs	1,0x7E,2
    44  0000                     
    45                           ; Version 2.10
    46                           ; Generated 31/07/2019 GMT
    47                           ; 
    48                           ; Copyright © 2019, Microchip Technology Inc. and its subsidiaries ("Microchip")
    49                           ; All rights reserved.
    50                           ; 
    51                           ; This software is developed by Microchip Technology Inc. and its subsidiaries ("Microch
      +                          ip").
    52                           ; 
    53                           ; Redistribution and use in source and binary forms, with or without modification, are
    54                           ; permitted provided that the following conditions are met:
    55                           ; 
    56                           ;     1. Redistributions of source code must retain the above copyright notice, this lis
      +                          t of
    57                           ;        conditions and the following disclaimer.
    58                           ; 
    59                           ;     2. Redistributions in binary form must reproduce the above copyright notice, this 
      +                          list
    60                           ;        of conditions and the following disclaimer in the documentation and/or other
    61                           ;        materials provided with the distribution.
    62                           ; 
    63                           ;     3. Microchip's name may not be used to endorse or promote products derived from th
      +                          is
    64                           ;        software without specific prior written permission.
    65                           ; 
    66                           ; THIS SOFTWARE IS PROVIDED BY MICROCHIP "AS IS" AND ANY EXPRESS OR IMPLIED WARRANTIES,
    67                           ; INCLUDING, BUT NOT LIMITED TO, THE IMPLIED WARRANTIES OF MERCHANTABILITY AND FITNESS F
      +                          OR
    68                           ; PURPOSE ARE DISCLAIMED.  IN NO EVENT SHALL MICROCHIP BE LIABLE FOR ANY DIRECT, INDIREC
      +                          T,
    69                           ; INCIDENTAL, SPECIAL, EXEMPLARY, OR CONSEQUENTIAL DAMAGES (INCLUDING BUT NOT LIMITED TO
    70                           ; PROCUREMENT OF SUBSTITUTE GOODS OR SERVICES; LOSS OF USE, DATA OR PROFITS; OR BUSINESS
    71                           ; INTERRUPTION) HOWSOEVER CAUSED AND ON ANY THEORY OF LIABILITY, WHETHER IN CONTRACT, ST
      +                          RICT
    72                           ; LIABILITY, OR TORT (INCLUDING NEGLIGENCE OR OTHERWISE) ARISING IN ANY WAY OUT OF THE U
      +                          SE OF
    73                           ; THIS SOFTWARE, EVEN IF ADVISED OF THE POSSIBILITY OF SUCH DAMAGE.
    74                           ; 
    75                           ; 
    76                           ; Code-generator required, PIC16F877A Definitions
    77                           ; 
    78                           ; SFR Addresses
    79  0000                     	;# 
    80  0001                     	;# 
    81  0002                     	;# 
    82  0003                     	;# 
    83  0004                     	;# 
    84  0005                     	;# 
    85  0006                     	;# 
    86  0007                     	;# 
    87  0008                     	;# 
    88  0009                     	;# 
    89  000A                     	;# 
    90  000B                     	;# 
    91  000C                     	;# 
    92  000D                     	;# 
    93  000E                     	;# 
    94  000E                     	;# 
    95  000F                     	;# 
    96  0010                     	;# 
    97  0011                     	;# 
    98  0012                     	;# 
    99  0013                     	;# 
   100  0014                     	;# 
   101  0015                     	;# 
   102  0015                     	;# 
   103  0016                     	;# 
   104  0017                     	;# 
   105  0018                     	;# 
   106  0019                     	;# 
   107  001A                     	;# 
   108  001B                     	;# 
   109  001B                     	;# 
   110  001C                     	;# 
   111  001D                     	;# 
   112  001E                     	;# 
   113  001F                     	;# 
   114  0081                     	;# 
   115  0085                     	;# 
   116  0086                     	;# 
   117  0087                     	;# 
   118  0088                     	;# 
   119  0089                     	;# 
   120  008C                     	;# 
   121  008D                     	;# 
   122  008E                     	;# 
   123  0091                     	;# 
   124  0092                     	;# 
   125  0093                     	;# 
   126  0094                     	;# 
   127  0098                     	;# 
   128  0099                     	;# 
   129  009C                     	;# 
   130  009D                     	;# 
   131  009E                     	;# 
   132  009F                     	;# 
   133  010C                     	;# 
   134  010D                     	;# 
   135  010E                     	;# 
   136  010F                     	;# 
   137  018C                     	;# 
   138  018D                     	;# 
   139  0000                     	;# 
   140  0001                     	;# 
   141  0002                     	;# 
   142  0003                     	;# 
   143  0004                     	;# 
   144  0005                     	;# 
   145  0006                     	;# 
   146  0007                     	;# 
   147  0008                     	;# 
   148  0009                     	;# 
   149  000A                     	;# 
   150  000B                     	;# 
   151  000C                     	;# 
   152  000D                     	;# 
   153  000E                     	;# 
   154  000E                     	;# 
   155  000F                     	;# 
   156  0010                     	;# 
   157  0011                     	;# 
   158  0012                     	;# 
   159  0013                     	;# 
   160  0014                     	;# 
   161  0015                     	;# 
   162  0015                     	;# 
   163  0016                     	;# 
   164  0017                     	;# 
   165  0018                     	;# 
   166  0019                     	;# 
   167  001A                     	;# 
   168  001B                     	;# 
   169  001B                     	;# 
   170  001C                     	;# 
   171  001D                     	;# 
   172  001E                     	;# 
   173  001F                     	;# 
   174  0081                     	;# 
   175  0085                     	;# 
   176  0086                     	;# 
   177  0087                     	;# 
   178  0088                     	;# 
   179  0089                     	;# 
   180  008C                     	;# 
   181  008D                     	;# 
   182  008E                     	;# 
   183  0091                     	;# 
   184  0092                     	;# 
   185  0093                     	;# 
   186  0094                     	;# 
   187  0098                     	;# 
   188  0099                     	;# 
   189  009C                     	;# 
   190  009D                     	;# 
   191  009E                     	;# 
   192  009F                     	;# 
   193  010C                     	;# 
   194  010D                     	;# 
   195  010E                     	;# 
   196  010F                     	;# 
   197  018C                     	;# 
   198  018D                     	;# 
   199  0000                     	;# 
   200  0001                     	;# 
   201  0002                     	;# 
   202  0003                     	;# 
   203  0004                     	;# 
   204  0005                     	;# 
   205  0006                     	;# 
   206  0007                     	;# 
   207  0008                     	;# 
   208  0009                     	;# 
   209  000A                     	;# 
   210  000B                     	;# 
   211  000C                     	;# 
   212  000D                     	;# 
   213  000E                     	;# 
   214  000E                     	;# 
   215  000F                     	;# 
   216  0010                     	;# 
   217  0011                     	;# 
   218  0012                     	;# 
   219  0013                     	;# 
   220  0014                     	;# 
   221  0015                     	;# 
   222  0015                     	;# 
   223  0016                     	;# 
   224  0017                     	;# 
   225  0018                     	;# 
   226  0019                     	;# 
   227  001A                     	;# 
   228  001B                     	;# 
   229  001B                     	;# 
   230  001C                     	;# 
   231  001D                     	;# 
   232  001E                     	;# 
   233  001F                     	;# 
   234  0081                     	;# 
   235  0085                     	;# 
   236  0086                     	;# 
   237  0087                     	;# 
   238  0088                     	;# 
   239  0089                     	;# 
   240  008C                     	;# 
   241  008D                     	;# 
   242  008E                     	;# 
   243  0091                     	;# 
   244  0092                     	;# 
   245  0093                     	;# 
   246  0094                     	;# 
   247  0098                     	;# 
   248  0099                     	;# 
   249  009C                     	;# 
   250  009D                     	;# 
   251  009E                     	;# 
   252  009F                     	;# 
   253  010C                     	;# 
   254  010D                     	;# 
   255  010E                     	;# 
   256  010F                     	;# 
   257  018C                     	;# 
   258  018D                     	;# 
   259  0000                     	;# 
   260  0001                     	;# 
   261  0002                     	;# 
   262  0003                     	;# 
   263  0004                     	;# 
   264  0005                     	;# 
   265  0006                     	;# 
   266  0007                     	;# 
   267  0008                     	;# 
   268  0009                     	;# 
   269  000A                     	;# 
   270  000B                     	;# 
   271  000C                     	;# 
   272  000D                     	;# 
   273  000E                     	;# 
   274  000E                     	;# 
   275  000F                     	;# 
   276  0010                     	;# 
   277  0011                     	;# 
   278  0012                     	;# 
   279  0013                     	;# 
   280  0014                     	;# 
   281  0015                     	;# 
   282  0015                     	;# 
   283  0016                     	;# 
   284  0017                     	;# 
   285  0018                     	;# 
   286  0019                     	;# 
   287  001A                     	;# 
   288  001B                     	;# 
   289  001B                     	;# 
   290  001C                     	;# 
   291  001D                     	;# 
   292  001E                     	;# 
   293  001F                     	;# 
   294  0081                     	;# 
   295  0085                     	;# 
   296  0086                     	;# 
   297  0087                     	;# 
   298  0088                     	;# 
   299  0089                     	;# 
   300  008C                     	;# 
   301  008D                     	;# 
   302  008E                     	;# 
   303  0091                     	;# 
   304  0092                     	;# 
   305  0093                     	;# 
   306  0094                     	;# 
   307  0098                     	;# 
   308  0099                     	;# 
   309  009C                     	;# 
   310  009D                     	;# 
   311  009E                     	;# 
   312  009F                     	;# 
   313  010C                     	;# 
   314  010D                     	;# 
   315  010E                     	;# 
   316  010F                     	;# 
   317  018C                     	;# 
   318  018D                     	;# 
   319  0000                     	;# 
   320  0001                     	;# 
   321  0002                     	;# 
   322  0003                     	;# 
   323  0004                     	;# 
   324  0005                     	;# 
   325  0006                     	;# 
   326  0007                     	;# 
   327  0008                     	;# 
   328  0009                     	;# 
   329  000A                     	;# 
   330  000B                     	;# 
   331  000C                     	;# 
   332  000D                     	;# 
   333  000E                     	;# 
   334  000E                     	;# 
   335  000F                     	;# 
   336  0010                     	;# 
   337  0011                     	;# 
   338  0012                     	;# 
   339  0013                     	;# 
   340  0014                     	;# 
   341  0015                     	;# 
   342  0015                     	;# 
   343  0016                     	;# 
   344  0017                     	;# 
   345  0018                     	;# 
   346  0019                     	;# 
   347  001A                     	;# 
   348  001B                     	;# 
   349  001B                     	;# 
   350  001C                     	;# 
   351  001D                     	;# 
   352  001E                     	;# 
   353  001F                     	;# 
   354  0081                     	;# 
   355  0085                     	;# 
   356  0086                     	;# 
   357  0087                     	;# 
   358  0088                     	;# 
   359  0089                     	;# 
   360  008C                     	;# 
   361  008D                     	;# 
   362  008E                     	;# 
   363  0091                     	;# 
   364  0092                     	;# 
   365  0093                     	;# 
   366  0094                     	;# 
   367  0098                     	;# 
   368  0099                     	;# 
   369  009C                     	;# 
   370  009D                     	;# 
   371  009E                     	;# 
   372  009F                     	;# 
   373  010C                     	;# 
   374  010D                     	;# 
   375  010E                     	;# 
   376  010F                     	;# 
   377  018C                     	;# 
   378  018D                     	;# 
   379  0000                     	;# 
   380  0001                     	;# 
   381  0002                     	;# 
   382  0003                     	;# 
   383  0004                     	;# 
   384  0005                     	;# 
   385  0006                     	;# 
   386  0007                     	;# 
   387  0008                     	;# 
   388  0009                     	;# 
   389  000A                     	;# 
   390  000B                     	;# 
   391  000C                     	;# 
   392  000D                     	;# 
   393  000E                     	;# 
   394  000E                     	;# 
   395  000F                     	;# 
   396  0010                     	;# 
   397  0011                     	;# 
   398  0012                     	;# 
   399  0013                     	;# 
   400  0014                     	;# 
   401  0015                     	;# 
   402  0015                     	;# 
   403  0016                     	;# 
   404  0017                     	;# 
   405  0018                     	;# 
   406  0019                     	;# 
   407  001A                     	;# 
   408  001B                     	;# 
   409  001B                     	;# 
   410  001C                     	;# 
   411  001D                     	;# 
   412  001E                     	;# 
   413  001F                     	;# 
   414  0081                     	;# 
   415  0085                     	;# 
   416  0086                     	;# 
   417  0087                     	;# 
   418  0088                     	;# 
   419  0089                     	;# 
   420  008C                     	;# 
   421  008D                     	;# 
   422  008E                     	;# 
   423  0091                     	;# 
   424  0092                     	;# 
   425  0093                     	;# 
   426  0094                     	;# 
   427  0098                     	;# 
   428  0099                     	;# 
   429  009C                     	;# 
   430  009D                     	;# 
   431  009E                     	;# 
   432  009F                     	;# 
   433  010C                     	;# 
   434  010D                     	;# 
   435  010E                     	;# 
   436  010F                     	;# 
   437  018C                     	;# 
   438  018D                     	;# 
   439  0000                     	;# 
   440  0001                     	;# 
   441  0002                     	;# 
   442  0003                     	;# 
   443  0004                     	;# 
   444  0005                     	;# 
   445  0006                     	;# 
   446  0007                     	;# 
   447  0008                     	;# 
   448  0009                     	;# 
   449  000A                     	;# 
   450  000B                     	;# 
   451  000C                     	;# 
   452  000D                     	;# 
   453  000E                     	;# 
   454  000E                     	;# 
   455  000F                     	;# 
   456  0010                     	;# 
   457  0011                     	;# 
   458  0012                     	;# 
   459  0013                     	;# 
   460  0014                     	;# 
   461  0015                     	;# 
   462  0015                     	;# 
   463  0016                     	;# 
   464  0017                     	;# 
   465  0018                     	;# 
   466  0019                     	;# 
   467  001A                     	;# 
   468  001B                     	;# 
   469  001B                     	;# 
   470  001C                     	;# 
   471  001D                     	;# 
   472  001E                     	;# 
   473  001F                     	;# 
   474  0081                     	;# 
   475  0085                     	;# 
   476  0086                     	;# 
   477  0087                     	;# 
   478  0088                     	;# 
   479  0089                     	;# 
   480  008C                     	;# 
   481  008D                     	;# 
   482  008E                     	;# 
   483  0091                     	;# 
   484  0092                     	;# 
   485  0093                     	;# 
   486  0094                     	;# 
   487  0098                     	;# 
   488  0099                     	;# 
   489  009C                     	;# 
   490  009D                     	;# 
   491  009E                     	;# 
   492  009F                     	;# 
   493  010C                     	;# 
   494  010D                     	;# 
   495  010E                     	;# 
   496  010F                     	;# 
   497  018C                     	;# 
   498  018D                     	;# 
   499  0000                     	;# 
   500  0001                     	;# 
   501  0002                     	;# 
   502  0003                     	;# 
   503  0004                     	;# 
   504  0005                     	;# 
   505  0006                     	;# 
   506  0007                     	;# 
   507  0008                     	;# 
   508  0009                     	;# 
   509  000A                     	;# 
   510  000B                     	;# 
   511  000C                     	;# 
   512  000D                     	;# 
   513  000E                     	;# 
   514  000E                     	;# 
   515  000F                     	;# 
   516  0010                     	;# 
   517  0011                     	;# 
   518  0012                     	;# 
   519  0013                     	;# 
   520  0014                     	;# 
   521  0015                     	;# 
   522  0015                     	;# 
   523  0016                     	;# 
   524  0017                     	;# 
   525  0018                     	;# 
   526  0019                     	;# 
   527  001A                     	;# 
   528  001B                     	;# 
   529  001B                     	;# 
   530  001C                     	;# 
   531  001D                     	;# 
   532  001E                     	;# 
   533  001F                     	;# 
   534  0081                     	;# 
   535  0085                     	;# 
   536  0086                     	;# 
   537  0087                     	;# 
   538  0088                     	;# 
   539  0089                     	;# 
   540  008C                     	;# 
   541  008D                     	;# 
   542  008E                     	;# 
   543  0091                     	;# 
   544  0092                     	;# 
   545  0093                     	;# 
   546  0094                     	;# 
   547  0098                     	;# 
   548  0099                     	;# 
   549  009C                     	;# 
   550  009D                     	;# 
   551  009E                     	;# 
   552  009F                     	;# 
   553  010C                     	;# 
   554  010D                     	;# 
   555  010E                     	;# 
   556  010F                     	;# 
   557  018C                     	;# 
   558  018D                     	;# 
   559                           
   560                           	psect	idataCOMMON
   561  07FC                     __pidataCOMMON:	
   562                           
   563                           ;initializer for _nroLote
   564  07FC  3401               	retlw	1
   565                           
   566                           	psect	strings
   567  0800                     __pstrings:	
   568  0800                     stringtab:	
   569  0800                     __stringtab:	
   570  0800                     stringcode:	
   571                           ;	String table - string pointers are 1 byte each
   572                           
   573  0800                     stringdir:	
   574  0800  3008               	movlw	high stringdir
   575  0801  008A               	movwf	10
   576  0802  0804               	movf	4,w
   577  0803  0A84               	incf	4,f
   578  0804  0782               	addwf	2,f
   579  0805                     __stringbase:	
   580  0805  3400               	retlw	0
   581  0806                     __end_of__stringtab:	
   582  0806                     _BMS:	
   583  0806  3400               	retlw	0
   584  0807  3410               	retlw	16
   585  0808  3420               	retlw	32
   586  0809  3430               	retlw	48
   587  080A  3440               	retlw	64
   588  080B  3450               	retlw	80
   589  080C  3460               	retlw	96
   590  080D  3470               	retlw	112
   591  080E  3480               	retlw	128
   592  080F  3490               	retlw	144
   593  0810                     __end_of_BMS:	
   594  000B                     _INTCONbits	set	11
   595  0003                     _STATUSbits	set	3
   596  0018                     _RCSTA	set	24
   597  0008                     _PORTD	set	8
   598  0006                     _PORTB	set	6
   599  001A                     _RCREG	set	26
   600  000B                     _INTCON	set	11
   601  002D                     _RA5	set	45
   602  002B                     _RA3	set	43
   603  0065                     _RCIF	set	101
   604  002A                     _RA2	set	42
   605  0029                     _RA1	set	41
   606  0099                     _SPBRG	set	153
   607  0098                     _TXSTA	set	152
   608  0087                     _TRISC	set	135
   609  0088                     _TRISD	set	136
   610  0086                     _TRISB	set	134
   611  0085                     _TRISA	set	133
   612  009F                     _ADCON1	set	159
   613  0465                     _RCIE	set	1125
   614  010C                     _EEDATA	set	268
   615  010D                     _EEADR	set	269
   616  018D                     _EECON2	set	397
   617  018C                     _EECON1	set	396
   618  018C                     _EECON1bits	set	396
   619                           
   620                           ; #config settings
   621  0000                     
   622                           	psect	cinit
   623  0011                     start_initialization:	
   624  0011                     __initialization:	
   625                           
   626                           ; Initialize objects allocated to COMMON
   627  0011  120A  118A  27FC  120A  118A  	fcall	__pidataCOMMON	;fetch initializer
   628  0016  00F9               	movwf	__pdataCOMMON& (0+127)
   629                           
   630                           ; Clear objects allocated to BANK0
   631  0017  1383               	bcf	3,7	;select IRP bank0
   632  0018  3048               	movlw	low __pbssBANK0
   633  0019  0084               	movwf	4
   634  001A  306C               	movlw	low (__pbssBANK0+36)
   635  001B  120A  158A  279E  120A  118A  	fcall	clear_ram0
   636                           
   637                           ; Clear objects allocated to COMMON
   638  0020  01F6               	clrf	__pbssCOMMON& (0+127)
   639  0021  01F7               	clrf	(__pbssCOMMON+1)& (0+127)
   640  0022  01F8               	clrf	(__pbssCOMMON+2)& (0+127)
   641  0023                     end_of_initialization:	
   642                           ;End of C runtime variable initialization code
   643                           
   644  0023                     __end_of__initialization:	
   645  0023  0183               	clrf	3
   646  0024  120A  118A  2CC7   	ljmp	_main	;jump to C main() function
   647                           
   648                           	psect	bssCOMMON
   649  0076                     __pbssCOMMON:	
   650  0076                     _cierreLotePedido:	
   651  0076                     	ds	1
   652  0077                     _modoDebug:	
   653  0077                     	ds	1
   654  0078                     _serial:	
   655  0078                     	ds	1
   656                           
   657                           	psect	dataCOMMON
   658  0079                     __pdataCOMMON:	
   659  0079                     _nroLote:	
   660  0079                     	ds	1
   661                           
   662                           	psect	bssBANK0
   663  0048                     __pbssBANK0:	
   664  0048                     _prodIngresados:	
   665  0048                     	ds	13
   666  0055                     _montosLote:	
   667  0055                     	ds	2
   668  0057                     _numProd:	
   669  0057                     	ds	2
   670  0059                     _productoIngresado:	
   671  0059                     	ds	2
   672  005B                     _huboInt:	
   673  005B                     	ds	2
   674  005D                     _auxCuenta:	
   675  005D                     	ds	2
   676  005F                     _cuenta:	
   677  005F                     	ds	2
   678  0061                     _ventasLote:	
   679  0061                     	ds	1
   680  0062                     _codigoEntrada:	
   681  0062                     	ds	10
   682                           
   683                           	psect	clrtext
   684  0F9E                     clear_ram0:	
   685                           ;	Called with FSR containing the base address, and
   686                           ;	W with the last address+1
   687                           
   688  0F9E  0064               	clrwdt	;clear the watchdog before getting into this loop
   689  0F9F                     clrloop0:	
   690  0F9F  0180               	clrf	0	;clear RAM location pointed to by FSR
   691  0FA0  0A84               	incf	4,f	;increment pointer
   692  0FA1  0604               	xorwf	4,w	;XOR with final address
   693  0FA2  1903               	btfsc	3,2	;have we reached the end yet?
   694  0FA3  3400               	retlw	0	;all done for this memory range, return
   695  0FA4  0604               	xorwf	4,w	;XOR again to restore value
   696  0FA5  2F9F               	goto	clrloop0	;do the next byte
   697                           
   698                           	psect	cstackCOMMON
   699  0070                     __pcstackCOMMON:	
   700  0070                     ?_iniciar_usart:	
   701  0070                     ?_accionesAceptar:	
   702                           ; 1 bytes @ 0x0
   703                           
   704  0070                     ?_accionesDeshacer:	
   705                           ; 1 bytes @ 0x0
   706                           
   707  0070                     ?_accionesPuertoSerial:	
   708                           ; 1 bytes @ 0x0
   709                           
   710  0070                     ?_eeprom_read:	
   711                           ; 1 bytes @ 0x0
   712                           
   713  0070                     ?_agregarModificarPrecio:	
   714                           ; 1 bytes @ 0x0
   715                           
   716  0070                     ?_main:	
   717                           ; 1 bytes @ 0x0
   718                           
   719  0070                     ?_int_usart:	
   720                           ; 1 bytes @ 0x0
   721                           
   722  0070                     ??_int_usart:	
   723                           ; 1 bytes @ 0x0
   724                           
   725  0070                     ?_lecturaEtiqueta:	
   726                           ; 1 bytes @ 0x0
   727                           
   728  0070                     ?_verificacionEntrada:	
   729                           ; 1 bytes @ 0x0
   730                           
   731  0070                     ?_cierreDeLote:	
   732                           ; 1 bytes @ 0x0
   733                           
   734  0070                     ?_lecturaMas:	
   735                           ; 1 bytes @ 0x0
   736                           
   737  0070                     ?_lecturaMenos:	
   738                           ; 1 bytes @ 0x0
   739                           
   740  0070                     ?_lecturaConsulta:	
   741                           ; 1 bytes @ 0x0
   742                           
   743  0070                     ?_lecturaComando:	
   744                           ; 1 bytes @ 0x0
   745                           
   746  0070                     ?_bailenLeds:	
   747                           ; 1 bytes @ 0x0
   748                           
   749                           
   750                           ; 1 bytes @ 0x0
   751  0070                     	ds	4
   752  0074                     ??_iniciar_usart:	
   753  0074                     ??_eeprom_read:	
   754                           ; 1 bytes @ 0x4
   755                           
   756  0074                     ?_eeprom_write:	
   757                           ; 1 bytes @ 0x4
   758                           
   759  0074                     ??_verificacionEntrada:	
   760                           ; 1 bytes @ 0x4
   761                           
   762  0074                     ??_cierreDeLote:	
   763                           ; 1 bytes @ 0x4
   764                           
   765  0074                     ??_lecturaMenos:	
   766                           ; 1 bytes @ 0x4
   767                           
   768  0074                     ??___wmul:	
   769                           ; 1 bytes @ 0x4
   770                           
   771  0074                     ?___bmul:	
   772                           ; 1 bytes @ 0x4
   773                           
   774  0074                     ??___awdiv:	
   775                           ; 1 bytes @ 0x4
   776                           
   777  0074                     ??___awmod:	
   778                           ; 1 bytes @ 0x4
   779                           
   780  0074                     ??___lwmod:	
   781                           ; 1 bytes @ 0x4
   782                           
   783  0074                     eeprom_write@value:	
   784                           ; 1 bytes @ 0x4
   785                           
   786  0074                     ___bmul@multiplicand:	
   787                           ; 1 bytes @ 0x4
   788                           
   789  0074                     bailenLeds@i:	
   790                           ; 1 bytes @ 0x4
   791                           
   792  0074                     ___wmul@product:	
   793                           ; 2 bytes @ 0x4
   794                           
   795                           
   796                           ; 2 bytes @ 0x4
   797  0074                     	ds	1
   798  0075                     ??_eeprom_write:	
   799  0075                     ??___bmul:	
   800                           ; 1 bytes @ 0x5
   801                           
   802  0075                     eeprom_read@addr:	
   803                           ; 1 bytes @ 0x5
   804                           
   805  0075                     ___lwmod@counter:	
   806                           ; 1 bytes @ 0x5
   807                           
   808                           
   809                           ; 1 bytes @ 0x5
   810  0075                     	ds	1
   811  0076                     ??_mostrarDigitos:	
   812  0076                     ??_accionesDeshacer:	
   813                           ; 1 bytes @ 0x6
   814                           
   815  0076                     ??_main:	
   816                           ; 1 bytes @ 0x6
   817                           
   818  0076                     ??_lecturaMas:	
   819                           ; 1 bytes @ 0x6
   820                           
   821  0076                     ??_lecturaComando:	
   822                           ; 1 bytes @ 0x6
   823                           
   824  0076                     ??_pow:	
   825                           ; 1 bytes @ 0x6
   826                           
   827                           
   828                           	psect	cstackBANK0
   829  0020                     __pcstackBANK0:	
   830                           ; 1 bytes @ 0x6
   831                           
   832  0020                     ??_bailenLeds:	
   833  0020                     ?___wmul:	
   834                           ; 1 bytes @ 0x0
   835                           
   836  0020                     ?___awdiv:	
   837                           ; 2 bytes @ 0x0
   838                           
   839  0020                     ?___awmod:	
   840                           ; 2 bytes @ 0x0
   841                           
   842  0020                     ?___lwmod:	
   843                           ; 2 bytes @ 0x0
   844                           
   845  0020                     verificacionEntrada@ret:	
   846                           ; 2 bytes @ 0x0
   847                           
   848  0020                     eeprom_write@addr:	
   849                           ; 1 bytes @ 0x0
   850                           
   851  0020                     ___bmul@product:	
   852                           ; 1 bytes @ 0x0
   853                           
   854  0020                     ___wmul@multiplier:	
   855                           ; 1 bytes @ 0x0
   856                           
   857  0020                     ___awdiv@divisor:	
   858                           ; 2 bytes @ 0x0
   859                           
   860  0020                     ___awmod@divisor:	
   861                           ; 2 bytes @ 0x0
   862                           
   863  0020                     ___lwmod@divisor:	
   864                           ; 2 bytes @ 0x0
   865                           
   866                           
   867                           ; 2 bytes @ 0x0
   868  0020                     	ds	1
   869  0021                     verificacionEntrada@i:	
   870  0021                     ___bmul@multiplier:	
   871                           ; 1 bytes @ 0x1
   872                           
   873                           
   874                           ; 1 bytes @ 0x1
   875  0021                     	ds	1
   876  0022                     ___wmul@multiplicand:	
   877  0022                     ___awdiv@dividend:	
   878                           ; 2 bytes @ 0x2
   879                           
   880  0022                     ___awmod@dividend:	
   881                           ; 2 bytes @ 0x2
   882                           
   883  0022                     ___lwmod@dividend:	
   884                           ; 2 bytes @ 0x2
   885                           
   886                           
   887                           ; 2 bytes @ 0x2
   888  0022                     	ds	2
   889  0024                     ??_agregarModificarPrecio:	
   890  0024                     ??_lecturaConsulta:	
   891                           ; 1 bytes @ 0x4
   892                           
   893  0024                     ?_pow:	
   894                           ; 1 bytes @ 0x4
   895                           
   896  0024                     ?___lwdiv:	
   897                           ; 2 bytes @ 0x4
   898                           
   899  0024                     ___awdiv@counter:	
   900                           ; 2 bytes @ 0x4
   901                           
   902  0024                     ___awmod@counter:	
   903                           ; 1 bytes @ 0x4
   904                           
   905  0024                     pow@numero:	
   906                           ; 1 bytes @ 0x4
   907                           
   908  0024                     ___lwdiv@divisor:	
   909                           ; 2 bytes @ 0x4
   910                           
   911                           
   912                           ; 2 bytes @ 0x4
   913  0024                     	ds	1
   914  0025                     ___awdiv@sign:	
   915  0025                     ___awmod@sign:	
   916                           ; 1 bytes @ 0x5
   917                           
   918                           
   919                           ; 1 bytes @ 0x5
   920  0025                     	ds	1
   921  0026                     pow@potencia:	
   922  0026                     ___awdiv@quotient:	
   923                           ; 2 bytes @ 0x6
   924                           
   925  0026                     ___lwdiv@dividend:	
   926                           ; 2 bytes @ 0x6
   927                           
   928                           
   929                           ; 2 bytes @ 0x6
   930  0026                     	ds	2
   931  0028                     ??___lwdiv:	
   932  0028                     pow@i:	
   933                           ; 1 bytes @ 0x8
   934                           
   935                           
   936                           ; 2 bytes @ 0x8
   937  0028                     	ds	1
   938  0029                     ___lwdiv@quotient:	
   939                           
   940                           ; 2 bytes @ 0x9
   941  0029                     	ds	1
   942  002A                     pow@resultado:	
   943                           
   944                           ; 2 bytes @ 0xA
   945  002A                     	ds	1
   946  002B                     ___lwdiv@counter:	
   947                           
   948                           ; 1 bytes @ 0xB
   949  002B                     	ds	1
   950  002C                     ?_mostrarDigitos:	
   951  002C                     ?_verificarProd:	
   952                           ; 1 bytes @ 0xC
   953                           
   954  002C                     ?_ingresoProd:	
   955                           ; 1 bytes @ 0xC
   956                           
   957  002C                     ?_eliminarProd:	
   958                           ; 1 bytes @ 0xC
   959                           
   960  002C                     ingresoProd@tp:	
   961                           ; 1 bytes @ 0xC
   962                           
   963  002C                     verificarProd@tp:	
   964                           ; 2 bytes @ 0xC
   965                           
   966  002C                     eliminarProd@tp:	
   967                           ; 2 bytes @ 0xC
   968                           
   969  002C                     mostrarDigitos@num:	
   970                           ; 2 bytes @ 0xC
   971                           
   972                           
   973                           ; 2 bytes @ 0xC
   974  002C                     	ds	2
   975  002E                     ??_verificarProd:	
   976  002E                     ??_ingresoProd:	
   977                           ; 1 bytes @ 0xE
   978                           
   979  002E                     ??_eliminarProd:	
   980                           ; 1 bytes @ 0xE
   981                           
   982  002E                     agregarModificarPrecio@lower_8bits:	
   983                           ; 1 bytes @ 0xE
   984                           
   985  002E                     _mostrarDigitos$900:	
   986                           ; 1 bytes @ 0xE
   987                           
   988                           
   989                           ; 2 bytes @ 0xE
   990  002E                     	ds	1
   991  002F                     agregarModificarPrecio@upper_8bits:	
   992                           
   993                           ; 1 bytes @ 0xF
   994  002F                     	ds	1
   995  0030                     ??_accionesAceptar:	
   996  0030                     agregarModificarPrecio@precio:	
   997                           ; 1 bytes @ 0x10
   998                           
   999                           
  1000                           ; 2 bytes @ 0x10
  1001  0030                     	ds	1
  1002  0031                     verificarProd@ret:	
  1003  0031                     ingresoProd@i:	
  1004                           ; 1 bytes @ 0x11
  1005                           
  1006  0031                     eliminarProd@i:	
  1007                           ; 2 bytes @ 0x11
  1008                           
  1009  0031                     accionesAceptar@i:	
  1010                           ; 2 bytes @ 0x11
  1011                           
  1012                           
  1013                           ; 2 bytes @ 0x11
  1014  0031                     	ds	1
  1015  0032                     agregarModificarPrecio@tp:	
  1016  0032                     verificarProd@i:	
  1017                           ; 1 bytes @ 0x12
  1018                           
  1019                           
  1020                           ; 2 bytes @ 0x12
  1021  0032                     	ds	2
  1022  0034                     ?_EEPROM_search:	
  1023                           
  1024                           ; 2 bytes @ 0x14
  1025  0034                     	ds	2
  1026  0036                     ??_EEPROM_search:	
  1027                           
  1028                           ; 1 bytes @ 0x16
  1029  0036                     	ds	4
  1030  003A                     EEPROM_search@precio:	
  1031                           
  1032                           ; 2 bytes @ 0x1A
  1033  003A                     	ds	2
  1034  003C                     EEPROM_search@tp:	
  1035                           
  1036                           ; 1 bytes @ 0x1C
  1037  003C                     	ds	1
  1038  003D                     ??_lecturaEtiqueta:	
  1039                           
  1040                           ; 1 bytes @ 0x1D
  1041  003D                     	ds	3
  1042  0040                     lecturaEtiqueta@i:	
  1043                           
  1044                           ; 2 bytes @ 0x20
  1045  0040                     	ds	2
  1046  0042                     lecturaEtiqueta@tp:	
  1047                           
  1048                           ; 1 bytes @ 0x22
  1049  0042                     	ds	1
  1050  0043                     lecturaEtiqueta@Aux:	
  1051                           
  1052                           ; 2 bytes @ 0x23
  1053  0043                     	ds	2
  1054  0045                     ??_accionesPuertoSerial:	
  1055                           
  1056                           ; 1 bytes @ 0x25
  1057  0045                     	ds	3
  1058                           
  1059                           	psect	maintext
  1060  04C7                     __pmaintext:	
  1061 ;;
  1062 ;;Main: autosize = 0, tempsize = 0, incstack = 0, save=0
  1063 ;;
  1064 ;; *************** function _main *****************
  1065 ;; Defined at:
  1066 ;;		line 9 in file "main.c"
  1067 ;; Parameters:    Size  Location     Type
  1068 ;;		None
  1069 ;; Auto vars:     Size  Location     Type
  1070 ;;		None
  1071 ;; Return value:  Size  Location     Type
  1072 ;;                  1    wreg      void 
  1073 ;; Registers used:
  1074 ;;		wreg, fsr0l, fsr0h, status,2, status,0, btemp+1, pclath, cstack
  1075 ;; Tracked objects:
  1076 ;;		On entry : B00/0
  1077 ;;		On exit  : 0/0
  1078 ;;		Unchanged: 0/0
  1079 ;; Data sizes:     COMMON   BANK0   BANK1   BANK3   BANK2
  1080 ;;      Params:         0       0       0       0       0
  1081 ;;      Locals:         0       0       0       0       0
  1082 ;;      Temps:          0       0       0       0       0
  1083 ;;      Totals:         0       0       0       0       0
  1084 ;;Total ram usage:        0 bytes
  1085 ;; Hardware stack levels required when called:    7
  1086 ;; This function calls:
  1087 ;;		_accionesAceptar
  1088 ;;		_accionesDeshacer
  1089 ;;		_accionesPuertoSerial
  1090 ;;		_iniciar_usart
  1091 ;;		_mostrarDigitos
  1092 ;; This function is called by:
  1093 ;;		Startup code after reset
  1094 ;; This function uses a non-reentrant model
  1095 ;;
  1096                           
  1097                           
  1098                           ;psect for function _main
  1099  04C7                     _main:	
  1100  04C7                     l2483:	
  1101                           ;incstack = 0
  1102                           ; Regs used in _main: [wreg-fsr0h+status,2+status,0+btemp+1+pclath+cstack]
  1103                           
  1104                           
  1105                           ;main.c: 12:     ADCON1 = 0b00000111;
  1106  04C7  3007               	movlw	7
  1107  04C8  1683               	bsf	3,5	;RP0=1, select bank1
  1108  04C9  1303               	bcf	3,6	;RP1=0, select bank1
  1109  04CA  009F               	movwf	31	;volatile
  1110                           
  1111                           ;main.c: 13:     TRISA = 0x06;
  1112  04CB  3006               	movlw	6
  1113  04CC  0085               	movwf	5	;volatile
  1114  04CD                     l2485:	
  1115                           
  1116                           ;main.c: 14:     TRISB = 0x00;
  1117  04CD  0186               	clrf	6	;volatile
  1118  04CE                     l2487:	
  1119                           
  1120                           ;main.c: 15:     TRISD = 0x00;
  1121  04CE  0188               	clrf	8	;volatile
  1122                           
  1123                           ;main.c: 16:     INTCON = 0b11000000;
  1124  04CF  30C0               	movlw	192
  1125  04D0  008B               	movwf	11	;volatile
  1126  04D1                     l2489:	
  1127                           
  1128                           ;main.c: 17:     RCIE = 1;
  1129  04D1  168C               	bsf	12,5	;volatile
  1130  04D2                     l2491:	
  1131                           
  1132                           ;main.c: 18:     iniciar_usart();
  1133  04D2  120A  158A  27BA  120A  118A  	fcall	_iniciar_usart
  1134  04D7                     l2493:	
  1135                           
  1136                           ;main.c: 19:     cuenta = 0;
  1137  04D7  1283               	bcf	3,5	;RP0=0, select bank0
  1138  04D8  1303               	bcf	3,6	;RP1=0, select bank0
  1139  04D9  01DF               	clrf	_cuenta
  1140  04DA  01E0               	clrf	_cuenta+1
  1141  04DB                     l2495:	
  1142                           
  1143                           ;main.c: 20:     auxCuenta = 0;
  1144  04DB  01DD               	clrf	_auxCuenta
  1145  04DC  01DE               	clrf	_auxCuenta+1
  1146  04DD                     l2497:	
  1147                           
  1148                           ;main.c: 21:     mostrarDigitos(cuenta);
  1149  04DD  0860               	movf	_cuenta+1,w
  1150  04DE  00AD               	movwf	mostrarDigitos@num+1
  1151  04DF  085F               	movf	_cuenta,w
  1152  04E0  00AC               	movwf	mostrarDigitos@num
  1153  04E1  120A  118A  22DD  120A  118A  	fcall	_mostrarDigitos
  1154  04E6                     l2499:	
  1155                           
  1156                           ;main.c: 27:         if(RA1) {
  1157  04E6  1283               	bcf	3,5	;RP0=0, select bank0
  1158  04E7  1303               	bcf	3,6	;RP1=0, select bank0
  1159  04E8  1C85               	btfss	5,1	;volatile
  1160  04E9  2CEB               	goto	u2651
  1161  04EA  2CEC               	goto	u2650
  1162  04EB                     u2651:	
  1163  04EB  2CF6               	goto	l62
  1164  04EC                     u2650:	
  1165  04EC                     l63:	
  1166  04EC  1885               	btfsc	5,1	;volatile
  1167  04ED  2CEF               	goto	u2661
  1168  04EE  2CF0               	goto	u2660
  1169  04EF                     u2661:	
  1170  04EF  2CEC               	goto	l63
  1171  04F0                     u2660:	
  1172  04F0                     l2503:	
  1173                           
  1174                           ;main.c: 29:             accionesAceptar();
  1175  04F0  120A  118A  2626  120A  118A  	fcall	_accionesAceptar
  1176                           
  1177                           ;main.c: 30:         }
  1178  04F5  2CE6               	goto	l2499
  1179  04F6                     l62:	
  1180                           ;main.c: 31:         else if(RA2) {
  1181                           
  1182  04F6  1D05               	btfss	5,2	;volatile
  1183  04F7  2CF9               	goto	u2671
  1184  04F8  2CFA               	goto	u2670
  1185  04F9                     u2671:	
  1186  04F9  2D04               	goto	l2509
  1187  04FA                     u2670:	
  1188  04FA                     l68:	
  1189  04FA  1905               	btfsc	5,2	;volatile
  1190  04FB  2CFD               	goto	u2681
  1191  04FC  2CFE               	goto	u2680
  1192  04FD                     u2681:	
  1193  04FD  2CFA               	goto	l68
  1194  04FE                     u2680:	
  1195  04FE                     l2507:	
  1196                           
  1197                           ;main.c: 33:             accionesDeshacer();
  1198  04FE  120A  118A  27C0  120A  118A  	fcall	_accionesDeshacer
  1199                           
  1200                           ;main.c: 34:         }
  1201  0503  2CE6               	goto	l2499
  1202  0504                     l2509:	
  1203  0504  085B               	movf	_huboInt,w
  1204  0505  045C               	iorwf	_huboInt+1,w
  1205  0506  1903               	btfsc	3,2
  1206  0507  2D09               	goto	u2691
  1207  0508  2D0A               	goto	u2690
  1208  0509                     u2691:	
  1209  0509  2D12               	goto	l66
  1210  050A                     u2690:	
  1211  050A                     l2511:	
  1212                           
  1213                           ;main.c: 36:             huboInt = 0;
  1214  050A  01DB               	clrf	_huboInt
  1215  050B  01DC               	clrf	_huboInt+1
  1216  050C                     l2513:	
  1217                           
  1218                           ;main.c: 37:             accionesPuertoSerial();
  1219  050C  120A  118A  25E7  120A  118A  	fcall	_accionesPuertoSerial
  1220  0511  2CE6               	goto	l2499
  1221  0512                     l66:	
  1222  0512  2CE6               	goto	l2499
  1223  0513  120A  118A  280E   	ljmp	start
  1224  0516                     __end_of_main:	
  1225                           
  1226                           	psect	text1
  1227  0FBA                     __ptext1:	
  1228 ;; *************** function _iniciar_usart *****************
  1229 ;; Defined at:
  1230 ;;		line 25 in file "mostrarInicializar.c"
  1231 ;; Parameters:    Size  Location     Type
  1232 ;;		None
  1233 ;; Auto vars:     Size  Location     Type
  1234 ;;		None
  1235 ;; Return value:  Size  Location     Type
  1236 ;;                  1    wreg      void 
  1237 ;; Registers used:
  1238 ;;		wreg
  1239 ;; Tracked objects:
  1240 ;;		On entry : 0/0
  1241 ;;		On exit  : 0/0
  1242 ;;		Unchanged: 0/0
  1243 ;; Data sizes:     COMMON   BANK0   BANK1   BANK3   BANK2
  1244 ;;      Params:         0       0       0       0       0
  1245 ;;      Locals:         0       0       0       0       0
  1246 ;;      Temps:          0       0       0       0       0
  1247 ;;      Totals:         0       0       0       0       0
  1248 ;;Total ram usage:        0 bytes
  1249 ;; Hardware stack levels used:    1
  1250 ;; Hardware stack levels required when called:    1
  1251 ;; This function calls:
  1252 ;;		Nothing
  1253 ;; This function is called by:
  1254 ;;		_main
  1255 ;; This function uses a non-reentrant model
  1256 ;;
  1257                           
  1258                           
  1259                           ;psect for function _iniciar_usart
  1260  0FBA                     _iniciar_usart:	
  1261  0FBA                     l1925:	
  1262                           ;incstack = 0
  1263                           ; Regs used in _iniciar_usart: [wreg]
  1264                           
  1265                           
  1266                           ;mostrarInicializar.c: 26:      TRISC = 0b10000000;
  1267  0FBA  3080               	movlw	128
  1268  0FBB  1683               	bsf	3,5	;RP0=1, select bank1
  1269  0FBC  1303               	bcf	3,6	;RP1=0, select bank1
  1270  0FBD  0087               	movwf	7	;volatile
  1271                           
  1272                           ;mostrarInicializar.c: 27:      TXSTA = 0b00100110;
  1273  0FBE  3026               	movlw	38
  1274  0FBF  0098               	movwf	24	;volatile
  1275                           
  1276                           ;mostrarInicializar.c: 28:      RCSTA = 0b10010000;
  1277  0FC0  3090               	movlw	144
  1278  0FC1  1283               	bcf	3,5	;RP0=0, select bank0
  1279  0FC2  1303               	bcf	3,6	;RP1=0, select bank0
  1280  0FC3  0098               	movwf	24	;volatile
  1281                           
  1282                           ;mostrarInicializar.c: 29:      SPBRG = 25;
  1283  0FC4  3019               	movlw	25
  1284  0FC5  1683               	bsf	3,5	;RP0=1, select bank1
  1285  0FC6  1303               	bcf	3,6	;RP1=0, select bank1
  1286  0FC7  0099               	movwf	25	;volatile
  1287  0FC8                     l249:	
  1288  0FC8  0008               	return
  1289  0FC9                     __end_of_iniciar_usart:	
  1290                           
  1291                           	psect	text2
  1292  05E7                     __ptext2:	
  1293 ;; *************** function _accionesPuertoSerial *****************
  1294 ;; Defined at:
  1295 ;;		line 31 in file "acciones.c"
  1296 ;; Parameters:    Size  Location     Type
  1297 ;;		None
  1298 ;; Auto vars:     Size  Location     Type
  1299 ;;		None
  1300 ;; Return value:  Size  Location     Type
  1301 ;;                  1    wreg      void 
  1302 ;; Registers used:
  1303 ;;		wreg, fsr0l, fsr0h, status,2, status,0, btemp+1, pclath, cstack
  1304 ;; Tracked objects:
  1305 ;;		On entry : 0/0
  1306 ;;		On exit  : 0/0
  1307 ;;		Unchanged: 0/0
  1308 ;; Data sizes:     COMMON   BANK0   BANK1   BANK3   BANK2
  1309 ;;      Params:         0       0       0       0       0
  1310 ;;      Locals:         0       0       0       0       0
  1311 ;;      Temps:          0       3       0       0       0
  1312 ;;      Totals:         0       3       0       0       0
  1313 ;;Total ram usage:        3 bytes
  1314 ;; Hardware stack levels used:    1
  1315 ;; Hardware stack levels required when called:    6
  1316 ;; This function calls:
  1317 ;;		_lecturaComando
  1318 ;;		_lecturaEtiqueta
  1319 ;; This function is called by:
  1320 ;;		_main
  1321 ;; This function uses a non-reentrant model
  1322 ;;
  1323                           
  1324                           
  1325                           ;psect for function _accionesPuertoSerial
  1326  05E7                     _accionesPuertoSerial:	
  1327  05E7                     l2465:	
  1328                           ;incstack = 0
  1329                           ; Regs used in _accionesPuertoSerial: [wreg-fsr0h+status,2+status,0+btemp+1+pclath+cstac
      +                          k]
  1330                           
  1331                           
  1332                           ;acciones.c: 32:     if ((codigoEntrada[0] == '?') || (codigoEntrada[0] == '+') || (codi
      +                          goEntrada[0] == '-')){
  1333  05E7  303F               	movlw	63
  1334  05E8  1283               	bcf	3,5	;RP0=0, select bank0
  1335  05E9  1303               	bcf	3,6	;RP1=0, select bank0
  1336  05EA  0662               	xorwf	_codigoEntrada,w
  1337  05EB  1903               	btfsc	3,2
  1338  05EC  2DEE               	goto	u2601
  1339  05ED  2DEF               	goto	u2600
  1340  05EE                     u2601:	
  1341  05EE  2DFB               	goto	l2471
  1342  05EF                     u2600:	
  1343  05EF                     l2467:	
  1344  05EF  302B               	movlw	43
  1345  05F0  0662               	xorwf	_codigoEntrada,w
  1346  05F1  1903               	btfsc	3,2
  1347  05F2  2DF4               	goto	u2611
  1348  05F3  2DF5               	goto	u2610
  1349  05F4                     u2611:	
  1350  05F4  2DFB               	goto	l2471
  1351  05F5                     u2610:	
  1352  05F5                     l2469:	
  1353  05F5  302D               	movlw	45
  1354  05F6  0662               	xorwf	_codigoEntrada,w
  1355  05F7  1D03               	btfss	3,2
  1356  05F8  2DFA               	goto	u2621
  1357  05F9  2DFB               	goto	u2620
  1358  05FA                     u2621:	
  1359  05FA  2E01               	goto	l2473
  1360  05FB                     u2620:	
  1361  05FB                     l2471:	
  1362                           
  1363                           ;acciones.c: 33:         lecturaComando();
  1364  05FB  120A  158A  27E0  120A  118A  	fcall	_lecturaComando
  1365                           
  1366                           ;acciones.c: 34:     }
  1367  0600  2E25               	goto	l300
  1368  0601                     l2473:	
  1369  0601  303A               	movlw	58
  1370  0602  0262               	subwf	_codigoEntrada,w
  1371  0603  1803               	skipnc
  1372  0604  2E06               	goto	u2631
  1373  0605  2E07               	goto	u2630
  1374  0606                     u2631:	
  1375  0606  2E13               	goto	l298
  1376  0607                     u2630:	
  1377  0607                     l2475:	
  1378  0607  3030               	movlw	48
  1379  0608  0262               	subwf	_codigoEntrada,w
  1380  0609  1C03               	skipc
  1381  060A  2E0C               	goto	u2641
  1382  060B  2E0D               	goto	u2640
  1383  060C                     u2641:	
  1384  060C  2E13               	goto	l298
  1385  060D                     u2640:	
  1386  060D                     l2477:	
  1387                           
  1388                           ;acciones.c: 36:         lecturaEtiqueta();
  1389  060D  120A  118A  2135  120A  118A  	fcall	_lecturaEtiqueta
  1390                           
  1391                           ;acciones.c: 37:     }
  1392  0612  2E25               	goto	l300
  1393  0613                     l298:	
  1394                           ;acciones.c: 38:     else{
  1395                           
  1396                           
  1397                           ;acciones.c: 40:         RA5 = 1;
  1398  0613  1685               	bsf	5,5	;volatile
  1399  0614                     l2479:	
  1400                           
  1401                           ;acciones.c: 41:         _delay((unsigned long)((1000)*(4000000/4000.0)));
  1402  0614  3006               	movlw	6
  1403  0615  1283               	bcf	3,5	;RP0=0, select bank0
  1404  0616  1303               	bcf	3,6	;RP1=0, select bank0
  1405  0617  00C7               	movwf	??_accionesPuertoSerial+2
  1406  0618  3013               	movlw	19
  1407  0619  00C6               	movwf	??_accionesPuertoSerial+1
  1408  061A  30AD               	movlw	173
  1409  061B  00C5               	movwf	??_accionesPuertoSerial
  1410  061C                     u2707:	
  1411  061C  0BC5               	decfsz	??_accionesPuertoSerial,f
  1412  061D  2E1C               	goto	u2707
  1413  061E  0BC6               	decfsz	??_accionesPuertoSerial+1,f
  1414  061F  2E1C               	goto	u2707
  1415  0620  0BC7               	decfsz	??_accionesPuertoSerial+2,f
  1416  0621  2E1C               	goto	u2707
  1417  0622                     l2481:	
  1418                           
  1419                           ;acciones.c: 42:         RA5 = 0;
  1420  0622  1283               	bcf	3,5	;RP0=0, select bank0
  1421  0623  1303               	bcf	3,6	;RP1=0, select bank0
  1422  0624  1285               	bcf	5,5	;volatile
  1423  0625                     l300:	
  1424  0625  0008               	return
  1425  0626                     __end_of_accionesPuertoSerial:	
  1426                           
  1427                           	psect	text3
  1428  0135                     __ptext3:	
  1429 ;; *************** function _lecturaEtiqueta *****************
  1430 ;; Defined at:
  1431 ;;		line 22 in file "lectura.c"
  1432 ;; Parameters:    Size  Location     Type
  1433 ;;		None
  1434 ;; Auto vars:     Size  Location     Type
  1435 ;;  tp              1   34[BANK0 ] unsigned char 
  1436 ;;  i               2   32[BANK0 ] int 
  1437 ;;  Aux             2   35[BANK0 ] short 
  1438 ;; Return value:  Size  Location     Type
  1439 ;;                  1    wreg      void 
  1440 ;; Registers used:
  1441 ;;		wreg, fsr0l, fsr0h, status,2, status,0, btemp+1, pclath, cstack
  1442 ;; Tracked objects:
  1443 ;;		On entry : 0/0
  1444 ;;		On exit  : 0/0
  1445 ;;		Unchanged: 0/0
  1446 ;; Data sizes:     COMMON   BANK0   BANK1   BANK3   BANK2
  1447 ;;      Params:         0       0       0       0       0
  1448 ;;      Locals:         0       5       0       0       0
  1449 ;;      Temps:          0       3       0       0       0
  1450 ;;      Totals:         0       8       0       0       0
  1451 ;;Total ram usage:        8 bytes
  1452 ;; Hardware stack levels used:    1
  1453 ;; Hardware stack levels required when called:    5
  1454 ;; This function calls:
  1455 ;;		_EEPROM_search
  1456 ;;		___awmod
  1457 ;;		___bmul
  1458 ;;		_ingresoProd
  1459 ;;		_mostrarDigitos
  1460 ;; This function is called by:
  1461 ;;		_accionesPuertoSerial
  1462 ;; This function uses a non-reentrant model
  1463 ;;
  1464                           
  1465                           
  1466                           ;psect for function _lecturaEtiqueta
  1467  0135                     _lecturaEtiqueta:	
  1468  0135                     l2343:	
  1469                           ;incstack = 0
  1470                           ; Regs used in _lecturaEtiqueta: [wreg-fsr0h+status,2+status,0+btemp+1+pclath+cstack]
  1471                           
  1472                           
  1473                           ;lectura.c: 23:     short int Aux = 0;
  1474  0135  1283               	bcf	3,5	;RP0=0, select bank0
  1475  0136  1303               	bcf	3,6	;RP1=0, select bank0
  1476  0137  01C3               	clrf	lecturaEtiqueta@Aux
  1477  0138  01C4               	clrf	lecturaEtiqueta@Aux+1
  1478                           
  1479                           ;lectura.c: 26:     for (int i = 0; i < 8; i++ ) {
  1480  0139  01C0               	clrf	lecturaEtiqueta@i
  1481  013A  01C1               	clrf	lecturaEtiqueta@i+1
  1482  013B                     l2349:	
  1483                           
  1484                           ;lectura.c: 27:         Aux += (codigoEntrada[i] - '0');
  1485  013B  1283               	bcf	3,5	;RP0=0, select bank0
  1486  013C  1303               	bcf	3,6	;RP1=0, select bank0
  1487  013D  0840               	movf	lecturaEtiqueta@i,w
  1488  013E  3E62               	addlw	(low (_codigoEntrada| 0))& (0+255)
  1489  013F  0084               	movwf	4
  1490  0140  1383               	bcf	3,7	;select IRP bank0
  1491  0141  0800               	movf	0,w
  1492  0142  3ED0               	addlw	208
  1493  0143  00BD               	movwf	??_lecturaEtiqueta
  1494  0144  30FF               	movlw	255
  1495  0145  1803               	skipnc
  1496  0146  3000               	movlw	0
  1497  0147  00BE               	movwf	??_lecturaEtiqueta+1
  1498  0148  083D               	movf	??_lecturaEtiqueta,w
  1499  0149  07C3               	addwf	lecturaEtiqueta@Aux,f
  1500  014A  1803               	skipnc
  1501  014B  0AC4               	incf	lecturaEtiqueta@Aux+1,f
  1502  014C  083E               	movf	??_lecturaEtiqueta+1,w
  1503  014D  07C4               	addwf	lecturaEtiqueta@Aux+1,f
  1504  014E                     l2351:	
  1505                           
  1506                           ;lectura.c: 28:     }
  1507  014E  3001               	movlw	1
  1508  014F  07C0               	addwf	lecturaEtiqueta@i,f
  1509  0150  1803               	skipnc
  1510  0151  0AC1               	incf	lecturaEtiqueta@i+1,f
  1511  0152  3000               	movlw	0
  1512  0153  07C1               	addwf	lecturaEtiqueta@i+1,f
  1513  0154                     l2353:	
  1514  0154  0841               	movf	lecturaEtiqueta@i+1,w
  1515  0155  3A80               	xorlw	128
  1516  0156  00FF               	movwf	btemp+1
  1517  0157  3080               	movlw	128
  1518  0158  027F               	subwf	btemp+1,w
  1519  0159  1D03               	skipz
  1520  015A  295D               	goto	u2495
  1521  015B  3008               	movlw	8
  1522  015C  0240               	subwf	lecturaEtiqueta@i,w
  1523  015D                     u2495:	
  1524  015D  1C03               	skipc
  1525  015E  2960               	goto	u2491
  1526  015F  2961               	goto	u2490
  1527  0160                     u2491:	
  1528  0160  293B               	goto	l2349
  1529  0161                     u2490:	
  1530  0161                     l2355:	
  1531                           
  1532                           ;lectura.c: 30:     if ( (Aux%10) == (codigoEntrada[8] - '0')) {
  1533  0161  300A               	movlw	10
  1534  0162  1283               	bcf	3,5	;RP0=0, select bank0
  1535  0163  1303               	bcf	3,6	;RP1=0, select bank0
  1536  0164  00A0               	movwf	___awmod@divisor
  1537  0165  3000               	movlw	0
  1538  0166  00A1               	movwf	___awmod@divisor+1
  1539  0167  0844               	movf	lecturaEtiqueta@Aux+1,w
  1540  0168  00A3               	movwf	___awmod@dividend+1
  1541  0169  0843               	movf	lecturaEtiqueta@Aux,w
  1542  016A  00A2               	movwf	___awmod@dividend
  1543  016B  120A  118A  246C  120A  118A  	fcall	___awmod
  1544  0170  1283               	bcf	3,5	;RP0=0, select bank0
  1545  0171  1303               	bcf	3,6	;RP1=0, select bank0
  1546  0172  086A               	movf	_codigoEntrada+8,w
  1547  0173  3ED0               	addlw	208
  1548  0174  00BD               	movwf	??_lecturaEtiqueta
  1549  0175  30FF               	movlw	255
  1550  0176  1803               	skipnc
  1551  0177  3000               	movlw	0
  1552  0178  00BE               	movwf	??_lecturaEtiqueta+1
  1553  0179  0821               	movf	?___awmod+1,w
  1554  017A  063E               	xorwf	??_lecturaEtiqueta+1,w
  1555  017B  1D03               	skipz
  1556  017C  297F               	goto	u2505
  1557  017D  0820               	movf	?___awmod,w
  1558  017E  063D               	xorwf	??_lecturaEtiqueta,w
  1559  017F                     u2505:	
  1560  017F  1D03               	skipz
  1561  0180  2982               	goto	u2501
  1562  0181  2983               	goto	u2500
  1563  0182                     u2501:	
  1564  0182  29F8               	goto	l129
  1565  0183                     u2500:	
  1566  0183                     l2357:	
  1567                           
  1568                           ;lectura.c: 32:         unsigned char tp = 10*(codigoEntrada[0]-'0') + (codigoEntrada[1]
      +                           - '0');
  1569  0183  300A               	movlw	10
  1570  0184  00BD               	movwf	??_lecturaEtiqueta
  1571  0185  083D               	movf	??_lecturaEtiqueta,w
  1572  0186  00F4               	movwf	___bmul@multiplicand
  1573  0187  0862               	movf	_codigoEntrada,w
  1574  0188  120A  158A  27C9  120A  118A  	fcall	___bmul
  1575  018D  1283               	bcf	3,5	;RP0=0, select bank0
  1576  018E  1303               	bcf	3,6	;RP1=0, select bank0
  1577  018F  0763               	addwf	_codigoEntrada+1,w
  1578  0190  3EF0               	addlw	240
  1579  0191  00BE               	movwf	??_lecturaEtiqueta+1
  1580  0192  083E               	movf	??_lecturaEtiqueta+1,w
  1581  0193  00C2               	movwf	lecturaEtiqueta@tp
  1582  0194                     l2359:	
  1583                           
  1584                           ;lectura.c: 33:         Aux = EEPROM_search(tp);
  1585  0194  0842               	movf	lecturaEtiqueta@tp,w
  1586  0195  120A  118A  220B  120A  118A  	fcall	_EEPROM_search
  1587  019A  1283               	bcf	3,5	;RP0=0, select bank0
  1588  019B  1303               	bcf	3,6	;RP1=0, select bank0
  1589  019C  0835               	movf	?_EEPROM_search+1,w
  1590  019D  00C4               	movwf	lecturaEtiqueta@Aux+1
  1591  019E  0834               	movf	?_EEPROM_search,w
  1592  019F  00C3               	movwf	lecturaEtiqueta@Aux
  1593  01A0                     l2361:	
  1594                           
  1595                           ;lectura.c: 35:         if ((cuenta + Aux) <= 999 && Aux != -1) {
  1596  01A0  085F               	movf	_cuenta,w
  1597  01A1  0743               	addwf	lecturaEtiqueta@Aux,w
  1598  01A2  00BD               	movwf	??_lecturaEtiqueta
  1599  01A3  0860               	movf	_cuenta+1,w
  1600  01A4  1803               	skipnc
  1601  01A5  0A60               	incf	_cuenta+1,w
  1602  01A6  0744               	addwf	lecturaEtiqueta@Aux+1,w
  1603  01A7  00BE               	movwf	??_lecturaEtiqueta+1
  1604  01A8  3003               	movlw	3
  1605  01A9  023E               	subwf	??_lecturaEtiqueta+1,w
  1606  01AA  30E8               	movlw	232
  1607  01AB  1903               	skipnz
  1608  01AC  023D               	subwf	??_lecturaEtiqueta,w
  1609  01AD  1803               	skipnc
  1610  01AE  29B0               	goto	u2511
  1611  01AF  29B1               	goto	u2510
  1612  01B0                     u2511:	
  1613  01B0  29F8               	goto	l129
  1614  01B1                     u2510:	
  1615  01B1                     l2363:	
  1616  01B1  0A43               	incf	lecturaEtiqueta@Aux,w
  1617  01B2  1D03               	skipz
  1618  01B3  29B9               	goto	u2520
  1619  01B4  0A44               	incf	lecturaEtiqueta@Aux+1,w
  1620  01B5  1903               	btfsc	3,2
  1621  01B6  29B8               	goto	u2521
  1622  01B7  29B9               	goto	u2520
  1623  01B8                     u2521:	
  1624  01B8  29F8               	goto	l129
  1625  01B9                     u2520:	
  1626  01B9                     l2365:	
  1627                           
  1628                           ;lectura.c: 36:             tp--;
  1629  01B9  3001               	movlw	1
  1630  01BA  02C2               	subwf	lecturaEtiqueta@tp,f
  1631  01BB                     l2367:	
  1632                           
  1633                           ;lectura.c: 37:             ingresoProd(tp);
  1634  01BB  0842               	movf	lecturaEtiqueta@tp,w
  1635  01BC  00BD               	movwf	??_lecturaEtiqueta
  1636  01BD  01BE               	clrf	??_lecturaEtiqueta+1
  1637  01BE  083D               	movf	??_lecturaEtiqueta,w
  1638  01BF  00AC               	movwf	ingresoProd@tp
  1639  01C0  083E               	movf	??_lecturaEtiqueta+1,w
  1640  01C1  00AD               	movwf	ingresoProd@tp+1
  1641  01C2  120A  118A  23A8  120A  118A  	fcall	_ingresoProd
  1642  01C7                     l2369:	
  1643                           
  1644                           ;lectura.c: 38:             productoIngresado = tp;
  1645  01C7  1283               	bcf	3,5	;RP0=0, select bank0
  1646  01C8  1303               	bcf	3,6	;RP1=0, select bank0
  1647  01C9  0842               	movf	lecturaEtiqueta@tp,w
  1648  01CA  00BD               	movwf	??_lecturaEtiqueta
  1649  01CB  01BE               	clrf	??_lecturaEtiqueta+1
  1650  01CC  083D               	movf	??_lecturaEtiqueta,w
  1651  01CD  00D9               	movwf	_productoIngresado
  1652  01CE  083E               	movf	??_lecturaEtiqueta+1,w
  1653  01CF  00DA               	movwf	_productoIngresado+1
  1654  01D0                     l2371:	
  1655                           
  1656                           ;lectura.c: 39:             auxCuenta = cuenta;
  1657  01D0  0860               	movf	_cuenta+1,w
  1658  01D1  00DE               	movwf	_auxCuenta+1
  1659  01D2  085F               	movf	_cuenta,w
  1660  01D3  00DD               	movwf	_auxCuenta
  1661  01D4                     l2373:	
  1662                           
  1663                           ;lectura.c: 40:             cuenta += Aux;
  1664  01D4  0843               	movf	lecturaEtiqueta@Aux,w
  1665  01D5  07DF               	addwf	_cuenta,f
  1666  01D6  1803               	skipnc
  1667  01D7  0AE0               	incf	_cuenta+1,f
  1668  01D8  0844               	movf	lecturaEtiqueta@Aux+1,w
  1669  01D9  07E0               	addwf	_cuenta+1,f
  1670  01DA                     l2375:	
  1671                           
  1672                           ;lectura.c: 41:             mostrarDigitos(cuenta);
  1673  01DA  0860               	movf	_cuenta+1,w
  1674  01DB  00AD               	movwf	mostrarDigitos@num+1
  1675  01DC  085F               	movf	_cuenta,w
  1676  01DD  00AC               	movwf	mostrarDigitos@num
  1677  01DE  120A  118A  22DD  120A  118A  	fcall	_mostrarDigitos
  1678  01E3                     l2377:	
  1679                           
  1680                           ;lectura.c: 42:             RA3 = 1;
  1681  01E3  1283               	bcf	3,5	;RP0=0, select bank0
  1682  01E4  1303               	bcf	3,6	;RP1=0, select bank0
  1683  01E5  1585               	bsf	5,3	;volatile
  1684  01E6                     l2379:	
  1685                           
  1686                           ;lectura.c: 43:             _delay((unsigned long)((1000)*(4000000/4000.0)));
  1687  01E6  3006               	movlw	6
  1688  01E7  1283               	bcf	3,5	;RP0=0, select bank0
  1689  01E8  1303               	bcf	3,6	;RP1=0, select bank0
  1690  01E9  00BF               	movwf	??_lecturaEtiqueta+2
  1691  01EA  3013               	movlw	19
  1692  01EB  00BE               	movwf	??_lecturaEtiqueta+1
  1693  01EC  30AD               	movlw	173
  1694  01ED  00BD               	movwf	??_lecturaEtiqueta
  1695  01EE                     u2717:	
  1696  01EE  0BBD               	decfsz	??_lecturaEtiqueta,f
  1697  01EF  29EE               	goto	u2717
  1698  01F0  0BBE               	decfsz	??_lecturaEtiqueta+1,f
  1699  01F1  29EE               	goto	u2717
  1700  01F2  0BBF               	decfsz	??_lecturaEtiqueta+2,f
  1701  01F3  29EE               	goto	u2717
  1702  01F4                     l2381:	
  1703                           
  1704                           ;lectura.c: 44:             RA3 = 0;
  1705  01F4  1283               	bcf	3,5	;RP0=0, select bank0
  1706  01F5  1303               	bcf	3,6	;RP1=0, select bank0
  1707  01F6  1185               	bcf	5,3	;volatile
  1708                           
  1709                           ;lectura.c: 46:         }
  1710  01F7  2A0A               	goto	l132
  1711  01F8                     l129:	
  1712                           ;lectura.c: 47:         else {
  1713                           
  1714                           
  1715                           ;lectura.c: 49:             RA5 = 1;
  1716  01F8  1685               	bsf	5,5	;volatile
  1717  01F9                     l2383:	
  1718                           
  1719                           ;lectura.c: 50:             _delay((unsigned long)((1000)*(4000000/4000.0)));
  1720  01F9  3006               	movlw	6
  1721  01FA  1283               	bcf	3,5	;RP0=0, select bank0
  1722  01FB  1303               	bcf	3,6	;RP1=0, select bank0
  1723  01FC  00BF               	movwf	??_lecturaEtiqueta+2
  1724  01FD  3013               	movlw	19
  1725  01FE  00BE               	movwf	??_lecturaEtiqueta+1
  1726  01FF  30AD               	movlw	173
  1727  0200  00BD               	movwf	??_lecturaEtiqueta
  1728  0201                     u2727:	
  1729  0201  0BBD               	decfsz	??_lecturaEtiqueta,f
  1730  0202  2A01               	goto	u2727
  1731  0203  0BBE               	decfsz	??_lecturaEtiqueta+1,f
  1732  0204  2A01               	goto	u2727
  1733  0205  0BBF               	decfsz	??_lecturaEtiqueta+2,f
  1734  0206  2A01               	goto	u2727
  1735  0207                     l2385:	
  1736                           
  1737                           ;lectura.c: 51:             RA5 = 0;
  1738  0207  1283               	bcf	3,5	;RP0=0, select bank0
  1739  0208  1303               	bcf	3,6	;RP1=0, select bank0
  1740  0209  1285               	bcf	5,5	;volatile
  1741  020A                     l132:	
  1742  020A  0008               	return
  1743  020B                     __end_of_lecturaEtiqueta:	
  1744                           
  1745                           	psect	text4
  1746  03A8                     __ptext4:	
  1747 ;; *************** function _ingresoProd *****************
  1748 ;; Defined at:
  1749 ;;		line 21 in file "manejoProductos.c"
  1750 ;; Parameters:    Size  Location     Type
  1751 ;;  tp              2   12[BANK0 ] short 
  1752 ;; Auto vars:     Size  Location     Type
  1753 ;;  i               2   17[BANK0 ] short 
  1754 ;; Return value:  Size  Location     Type
  1755 ;;                  1    wreg      void 
  1756 ;; Registers used:
  1757 ;;		wreg, fsr0l, fsr0h, status,2, status,0, pclath, cstack
  1758 ;; Tracked objects:
  1759 ;;		On entry : 0/0
  1760 ;;		On exit  : 0/0
  1761 ;;		Unchanged: 0/0
  1762 ;; Data sizes:     COMMON   BANK0   BANK1   BANK3   BANK2
  1763 ;;      Params:         0       2       0       0       0
  1764 ;;      Locals:         0       2       0       0       0
  1765 ;;      Temps:          0       3       0       0       0
  1766 ;;      Totals:         0       7       0       0       0
  1767 ;;Total ram usage:        7 bytes
  1768 ;; Hardware stack levels used:    1
  1769 ;; Hardware stack levels required when called:    3
  1770 ;; This function calls:
  1771 ;;		_pow
  1772 ;; This function is called by:
  1773 ;;		_lecturaEtiqueta
  1774 ;; This function uses a non-reentrant model
  1775 ;;
  1776                           
  1777                           
  1778                           ;psect for function _ingresoProd
  1779  03A8                     _ingresoProd:	
  1780  03A8                     l2253:	
  1781                           ;incstack = 0
  1782                           ; Regs used in _ingresoProd: [wreg-fsr0h+status,2+status,0+pclath+cstack]
  1783                           
  1784                           
  1785                           ;manejoProductos.c: 23:     for(short int i = 12; i>=0; i--) {
  1786  03A8  300C               	movlw	12
  1787  03A9  1283               	bcf	3,5	;RP0=0, select bank0
  1788  03AA  1303               	bcf	3,6	;RP1=0, select bank0
  1789  03AB  00B1               	movwf	ingresoProd@i
  1790  03AC  3000               	movlw	0
  1791  03AD  00B2               	movwf	ingresoProd@i+1
  1792  03AE                     l2259:	
  1793                           
  1794                           ;manejoProductos.c: 24:         if( tp >= 8*i) {
  1795  03AE  0832               	movf	ingresoProd@i+1,w
  1796  03AF  00AF               	movwf	??_ingresoProd+1
  1797  03B0  0831               	movf	ingresoProd@i,w
  1798  03B1  00AE               	movwf	??_ingresoProd
  1799  03B2  1003               	clrc
  1800  03B3  0DAE               	rlf	??_ingresoProd,f
  1801  03B4  0DAF               	rlf	??_ingresoProd+1,f
  1802  03B5  1003               	clrc
  1803  03B6  0DAE               	rlf	??_ingresoProd,f
  1804  03B7  0DAF               	rlf	??_ingresoProd+1,f
  1805  03B8  1003               	clrc
  1806  03B9  0DAE               	rlf	??_ingresoProd,f
  1807  03BA  0DAF               	rlf	??_ingresoProd+1,f
  1808  03BB  082D               	movf	ingresoProd@tp+1,w
  1809  03BC  3A80               	xorlw	128
  1810  03BD  00B0               	movwf	??_ingresoProd+2
  1811  03BE  082F               	movf	??_ingresoProd+1,w
  1812  03BF  3A80               	xorlw	128
  1813  03C0  0230               	subwf	??_ingresoProd+2,w
  1814  03C1  1D03               	skipz
  1815  03C2  2BC5               	goto	u2285
  1816  03C3  082E               	movf	??_ingresoProd,w
  1817  03C4  022C               	subwf	ingresoProd@tp,w
  1818  03C5                     u2285:	
  1819  03C5  1C03               	skipc
  1820  03C6  2BC8               	goto	u2281
  1821  03C7  2BC9               	goto	u2280
  1822  03C8                     u2281:	
  1823  03C8  2BFD               	goto	l2267
  1824  03C9                     u2280:	
  1825  03C9                     l2261:	
  1826                           
  1827                           ;manejoProductos.c: 26:             tp = tp - 8*i;
  1828  03C9  1283               	bcf	3,5	;RP0=0, select bank0
  1829  03CA  1303               	bcf	3,6	;RP1=0, select bank0
  1830  03CB  0832               	movf	ingresoProd@i+1,w
  1831  03CC  00AF               	movwf	??_ingresoProd+1
  1832  03CD  0831               	movf	ingresoProd@i,w
  1833  03CE  00AE               	movwf	??_ingresoProd
  1834  03CF  1003               	clrc
  1835  03D0  0DAE               	rlf	??_ingresoProd,f
  1836  03D1  0DAF               	rlf	??_ingresoProd+1,f
  1837  03D2  1003               	clrc
  1838  03D3  0DAE               	rlf	??_ingresoProd,f
  1839  03D4  0DAF               	rlf	??_ingresoProd+1,f
  1840  03D5  1003               	clrc
  1841  03D6  0DAE               	rlf	??_ingresoProd,f
  1842  03D7  0DAF               	rlf	??_ingresoProd+1,f
  1843  03D8  082E               	movf	??_ingresoProd,w
  1844  03D9  022C               	subwf	ingresoProd@tp,w
  1845  03DA  00AC               	movwf	ingresoProd@tp
  1846  03DB  082F               	movf	??_ingresoProd+1,w
  1847  03DC  1C03               	skipc
  1848  03DD  0A2F               	incf	??_ingresoProd+1,w
  1849  03DE  022D               	subwf	ingresoProd@tp+1,w
  1850  03DF  00AD               	movwf	ingresoProd@tp+1
  1851  03E0                     l2263:	
  1852                           
  1853                           ;manejoProductos.c: 27:             prodIngresados[i] = prodIngresados[i] | pow(2,tp);
  1854  03E0  0831               	movf	ingresoProd@i,w
  1855  03E1  3E48               	addlw	(low (_prodIngresados| 0))& (0+255)
  1856  03E2  0084               	movwf	4
  1857  03E3  3002               	movlw	2
  1858  03E4  00A4               	movwf	pow@numero
  1859  03E5  3000               	movlw	0
  1860  03E6  00A5               	movwf	pow@numero+1
  1861  03E7  082D               	movf	ingresoProd@tp+1,w
  1862  03E8  00A7               	movwf	pow@potencia+1
  1863  03E9  082C               	movf	ingresoProd@tp,w
  1864  03EA  00A6               	movwf	pow@potencia
  1865  03EB  120A  118A  269F  120A  118A  	fcall	_pow
  1866  03F0  1283               	bcf	3,5	;RP0=0, select bank0
  1867  03F1  1303               	bcf	3,6	;RP1=0, select bank0
  1868  03F2  0824               	movf	?_pow,w
  1869  03F3  1383               	bcf	3,7	;select IRP bank0
  1870  03F4  0400               	iorwf	0,w
  1871  03F5  00AE               	movwf	??_ingresoProd
  1872  03F6  0831               	movf	ingresoProd@i,w
  1873  03F7  3E48               	addlw	(low (_prodIngresados| 0))& (0+255)
  1874  03F8  0084               	movwf	4
  1875  03F9  082E               	movf	??_ingresoProd,w
  1876  03FA  0080               	movwf	0
  1877  03FB                     l2265:	
  1878                           
  1879                           ;manejoProductos.c: 28:             i = 0;
  1880  03FB  01B1               	clrf	ingresoProd@i
  1881  03FC  01B2               	clrf	ingresoProd@i+1
  1882  03FD                     l2267:	
  1883                           
  1884                           ;manejoProductos.c: 31:     }
  1885  03FD  30FF               	movlw	255
  1886  03FE  1283               	bcf	3,5	;RP0=0, select bank0
  1887  03FF  1303               	bcf	3,6	;RP1=0, select bank0
  1888  0400  07B1               	addwf	ingresoProd@i,f
  1889  0401  1803               	skipnc
  1890  0402  0AB2               	incf	ingresoProd@i+1,f
  1891  0403  30FF               	movlw	255
  1892  0404  07B2               	addwf	ingresoProd@i+1,f
  1893  0405                     l2269:	
  1894  0405  1FB2               	btfss	ingresoProd@i+1,7
  1895  0406  2C08               	goto	u2291
  1896  0407  2C09               	goto	u2290
  1897  0408                     u2291:	
  1898  0408  2BAE               	goto	l2259
  1899  0409                     u2290:	
  1900  0409                     l203:	
  1901  0409  0008               	return
  1902  040A                     __end_of_ingresoProd:	
  1903                           
  1904                           	psect	text5
  1905  046C                     __ptext5:	
  1906 ;; *************** function ___awmod *****************
  1907 ;; Defined at:
  1908 ;;		line 5 in file "C:\Program Files (x86)\Microchip\xc8\v2.10\pic\sources\c90\common\awmod.c"
  1909 ;; Parameters:    Size  Location     Type
  1910 ;;  divisor         2    0[BANK0 ] int 
  1911 ;;  dividend        2    2[BANK0 ] int 
  1912 ;; Auto vars:     Size  Location     Type
  1913 ;;  sign            1    5[BANK0 ] unsigned char 
  1914 ;;  counter         1    4[BANK0 ] unsigned char 
  1915 ;; Return value:  Size  Location     Type
  1916 ;;                  2    0[BANK0 ] int 
  1917 ;; Registers used:
  1918 ;;		wreg, status,2, status,0
  1919 ;; Tracked objects:
  1920 ;;		On entry : 0/0
  1921 ;;		On exit  : 0/0
  1922 ;;		Unchanged: 0/0
  1923 ;; Data sizes:     COMMON   BANK0   BANK1   BANK3   BANK2
  1924 ;;      Params:         0       4       0       0       0
  1925 ;;      Locals:         0       2       0       0       0
  1926 ;;      Temps:          1       0       0       0       0
  1927 ;;      Totals:         1       6       0       0       0
  1928 ;;Total ram usage:        7 bytes
  1929 ;; Hardware stack levels used:    1
  1930 ;; Hardware stack levels required when called:    1
  1931 ;; This function calls:
  1932 ;;		Nothing
  1933 ;; This function is called by:
  1934 ;;		_lecturaEtiqueta
  1935 ;; This function uses a non-reentrant model
  1936 ;;
  1937                           
  1938                           
  1939                           ;psect for function ___awmod
  1940  046C                     ___awmod:	
  1941  046C                     l2305:	
  1942                           ;incstack = 0
  1943                           ; Regs used in ___awmod: [wreg+status,2+status,0]
  1944                           
  1945  046C  1283               	bcf	3,5	;RP0=0, select bank0
  1946  046D  1303               	bcf	3,6	;RP1=0, select bank0
  1947  046E  01A5               	clrf	___awmod@sign
  1948  046F                     l2307:	
  1949  046F  1FA3               	btfss	___awmod@dividend+1,7
  1950  0470  2C72               	goto	u2401
  1951  0471  2C73               	goto	u2400
  1952  0472                     u2401:	
  1953  0472  2C7A               	goto	l2313
  1954  0473                     u2400:	
  1955  0473                     l2309:	
  1956  0473  09A2               	comf	___awmod@dividend,f
  1957  0474  09A3               	comf	___awmod@dividend+1,f
  1958  0475  0AA2               	incf	___awmod@dividend,f
  1959  0476  1903               	skipnz
  1960  0477  0AA3               	incf	___awmod@dividend+1,f
  1961  0478                     l2311:	
  1962  0478  01A5               	clrf	___awmod@sign
  1963  0479  0AA5               	incf	___awmod@sign,f
  1964  047A                     l2313:	
  1965  047A  1FA1               	btfss	___awmod@divisor+1,7
  1966  047B  2C7D               	goto	u2411
  1967  047C  2C7E               	goto	u2410
  1968  047D                     u2411:	
  1969  047D  2C83               	goto	l2317
  1970  047E                     u2410:	
  1971  047E                     l2315:	
  1972  047E  09A0               	comf	___awmod@divisor,f
  1973  047F  09A1               	comf	___awmod@divisor+1,f
  1974  0480  0AA0               	incf	___awmod@divisor,f
  1975  0481  1903               	skipnz
  1976  0482  0AA1               	incf	___awmod@divisor+1,f
  1977  0483                     l2317:	
  1978  0483  0820               	movf	___awmod@divisor,w
  1979  0484  0421               	iorwf	___awmod@divisor+1,w
  1980  0485  1903               	btfsc	3,2
  1981  0486  2C88               	goto	u2421
  1982  0487  2C89               	goto	u2420
  1983  0488                     u2421:	
  1984  0488  2CB8               	goto	l2335
  1985  0489                     u2420:	
  1986  0489                     l2319:	
  1987  0489  01A4               	clrf	___awmod@counter
  1988  048A  0AA4               	incf	___awmod@counter,f
  1989  048B  2C97               	goto	l2325
  1990  048C                     l2321:	
  1991  048C  3001               	movlw	1
  1992  048D                     u2435:	
  1993  048D  1003               	clrc
  1994  048E  0DA0               	rlf	___awmod@divisor,f
  1995  048F  0DA1               	rlf	___awmod@divisor+1,f
  1996  0490  3EFF               	addlw	-1
  1997  0491  1D03               	skipz
  1998  0492  2C8D               	goto	u2435
  1999  0493                     l2323:	
  2000  0493  3001               	movlw	1
  2001  0494  00F4               	movwf	??___awmod
  2002  0495  0874               	movf	??___awmod,w
  2003  0496  07A4               	addwf	___awmod@counter,f
  2004  0497                     l2325:	
  2005  0497  1FA1               	btfss	___awmod@divisor+1,7
  2006  0498  2C9A               	goto	u2441
  2007  0499  2C9B               	goto	u2440
  2008  049A                     u2441:	
  2009  049A  2C8C               	goto	l2321
  2010  049B                     u2440:	
  2011  049B                     l2327:	
  2012  049B  0821               	movf	___awmod@divisor+1,w
  2013  049C  0223               	subwf	___awmod@dividend+1,w
  2014  049D  1D03               	skipz
  2015  049E  2CA1               	goto	u2455
  2016  049F  0820               	movf	___awmod@divisor,w
  2017  04A0  0222               	subwf	___awmod@dividend,w
  2018  04A1                     u2455:	
  2019  04A1  1C03               	skipc
  2020  04A2  2CA4               	goto	u2451
  2021  04A3  2CA5               	goto	u2450
  2022  04A4                     u2451:	
  2023  04A4  2CAB               	goto	l2331
  2024  04A5                     u2450:	
  2025  04A5                     l2329:	
  2026  04A5  0820               	movf	___awmod@divisor,w
  2027  04A6  02A2               	subwf	___awmod@dividend,f
  2028  04A7  0821               	movf	___awmod@divisor+1,w
  2029  04A8  1C03               	skipc
  2030  04A9  03A3               	decf	___awmod@dividend+1,f
  2031  04AA  02A3               	subwf	___awmod@dividend+1,f
  2032  04AB                     l2331:	
  2033  04AB  3001               	movlw	1
  2034  04AC                     u2465:	
  2035  04AC  1003               	clrc
  2036  04AD  0CA1               	rrf	___awmod@divisor+1,f
  2037  04AE  0CA0               	rrf	___awmod@divisor,f
  2038  04AF  3EFF               	addlw	-1
  2039  04B0  1D03               	skipz
  2040  04B1  2CAC               	goto	u2465
  2041  04B2                     l2333:	
  2042  04B2  3001               	movlw	1
  2043  04B3  02A4               	subwf	___awmod@counter,f
  2044  04B4  1D03               	btfss	3,2
  2045  04B5  2CB7               	goto	u2471
  2046  04B6  2CB8               	goto	u2470
  2047  04B7                     u2471:	
  2048  04B7  2C9B               	goto	l2327
  2049  04B8                     u2470:	
  2050  04B8                     l2335:	
  2051  04B8  0825               	movf	___awmod@sign,w
  2052  04B9  1903               	btfsc	3,2
  2053  04BA  2CBC               	goto	u2481
  2054  04BB  2CBD               	goto	u2480
  2055  04BC                     u2481:	
  2056  04BC  2CC2               	goto	l2339
  2057  04BD                     u2480:	
  2058  04BD                     l2337:	
  2059  04BD  09A2               	comf	___awmod@dividend,f
  2060  04BE  09A3               	comf	___awmod@dividend+1,f
  2061  04BF  0AA2               	incf	___awmod@dividend,f
  2062  04C0  1903               	skipnz
  2063  04C1  0AA3               	incf	___awmod@dividend+1,f
  2064  04C2                     l2339:	
  2065  04C2  0823               	movf	___awmod@dividend+1,w
  2066  04C3  00A1               	movwf	?___awmod+1
  2067  04C4  0822               	movf	___awmod@dividend,w
  2068  04C5  00A0               	movwf	?___awmod
  2069  04C6                     l589:	
  2070  04C6  0008               	return
  2071  04C7                     __end_of___awmod:	
  2072                           
  2073                           	psect	text6
  2074  020B                     __ptext6:	
  2075 ;; *************** function _EEPROM_search *****************
  2076 ;; Defined at:
  2077 ;;		line 7 in file "lectura.c"
  2078 ;; Parameters:    Size  Location     Type
  2079 ;;  tp              1    wreg     unsigned char 
  2080 ;; Auto vars:     Size  Location     Type
  2081 ;;  tp              1   28[BANK0 ] unsigned char 
  2082 ;;  precio          2   26[BANK0 ] short 
  2083 ;; Return value:  Size  Location     Type
  2084 ;;                  2   20[BANK0 ] short 
  2085 ;; Registers used:
  2086 ;;		wreg, fsr0l, fsr0h, status,2, status,0, btemp+1, pclath, cstack
  2087 ;; Tracked objects:
  2088 ;;		On entry : 0/0
  2089 ;;		On exit  : 0/0
  2090 ;;		Unchanged: 0/0
  2091 ;; Data sizes:     COMMON   BANK0   BANK1   BANK3   BANK2
  2092 ;;      Params:         0       2       0       0       0
  2093 ;;      Locals:         0       3       0       0       0
  2094 ;;      Temps:          0       4       0       0       0
  2095 ;;      Totals:         0       9       0       0       0
  2096 ;;Total ram usage:        9 bytes
  2097 ;; Hardware stack levels used:    1
  2098 ;; Hardware stack levels required when called:    4
  2099 ;; This function calls:
  2100 ;;		___awdiv
  2101 ;;		_eeprom_read
  2102 ;;		_verificarProd
  2103 ;; This function is called by:
  2104 ;;		_lecturaEtiqueta
  2105 ;; This function uses a non-reentrant model
  2106 ;;
  2107                           
  2108                           
  2109                           ;psect for function _EEPROM_search
  2110  020B                     _EEPROM_search:	
  2111                           
  2112                           ;incstack = 0
  2113                           ; Regs used in _EEPROM_search: [wreg-fsr0h+status,2+status,0+btemp+1+pclath+cstack]
  2114                           ;EEPROM_search@tp stored from wreg
  2115  020B  1283               	bcf	3,5	;RP0=0, select bank0
  2116  020C  1303               	bcf	3,6	;RP1=0, select bank0
  2117  020D  00BC               	movwf	EEPROM_search@tp
  2118  020E                     l2237:	
  2119                           
  2120                           ;lectura.c: 9:     short int precio;;lectura.c: 10:     tp--;
  2121  020E  3001               	movlw	1
  2122  020F  02BC               	subwf	EEPROM_search@tp,f
  2123  0210                     l2239:	
  2124                           
  2125                           ;lectura.c: 11:     tp = tp*2;
  2126  0210  083C               	movf	EEPROM_search@tp,w
  2127  0211  00B6               	movwf	??_EEPROM_search
  2128  0212  0736               	addwf	??_EEPROM_search,w
  2129  0213  00B7               	movwf	??_EEPROM_search+1
  2130  0214  0837               	movf	??_EEPROM_search+1,w
  2131  0215  00BC               	movwf	EEPROM_search@tp
  2132  0216                     l2241:	
  2133                           
  2134                           ;lectura.c: 12:     precio = (eeprom_read(tp) << 8) | (eeprom_read(tp+1));
  2135  0216  083C               	movf	EEPROM_search@tp,w
  2136  0217  3E01               	addlw	1
  2137  0218  120A  118A  27E5  120A  118A  	fcall	_eeprom_read
  2138  021D  1283               	bcf	3,5	;RP0=0, select bank0
  2139  021E  1303               	bcf	3,6	;RP1=0, select bank0
  2140  021F  00B6               	movwf	??_EEPROM_search
  2141  0220  01B7               	clrf	??_EEPROM_search+1
  2142  0221  083C               	movf	EEPROM_search@tp,w
  2143  0222  120A  118A  27E5  120A  118A  	fcall	_eeprom_read
  2144  0227  1283               	bcf	3,5	;RP0=0, select bank0
  2145  0228  1303               	bcf	3,6	;RP1=0, select bank0
  2146  0229  00B8               	movwf	??_EEPROM_search+2
  2147  022A  01B9               	clrf	??_EEPROM_search+3
  2148  022B  0838               	movf	??_EEPROM_search+2,w
  2149  022C  00B9               	movwf	??_EEPROM_search+3
  2150  022D  01B8               	clrf	??_EEPROM_search+2
  2151  022E  0836               	movf	??_EEPROM_search,w
  2152  022F  0438               	iorwf	??_EEPROM_search+2,w
  2153  0230  00BA               	movwf	EEPROM_search@precio
  2154  0231  0837               	movf	??_EEPROM_search+1,w
  2155  0232  0439               	iorwf	??_EEPROM_search+3,w
  2156  0233  00BB               	movwf	EEPROM_search@precio+1
  2157  0234                     l2243:	
  2158                           
  2159                           ;lectura.c: 14:     if( (precio < 0 || precio > 999) || verificarProd(tp/2)) {
  2160  0234  1BBB               	btfsc	EEPROM_search@precio+1,7
  2161  0235  2A37               	goto	u2251
  2162  0236  2A38               	goto	u2250
  2163  0237                     u2251:	
  2164  0237  2A67               	goto	l2249
  2165  0238                     u2250:	
  2166  0238                     l2245:	
  2167  0238  083B               	movf	EEPROM_search@precio+1,w
  2168  0239  3A80               	xorlw	128
  2169  023A  00FF               	movwf	btemp+1
  2170  023B  3083               	movlw	131
  2171  023C  027F               	subwf	btemp+1,w
  2172  023D  1D03               	skipz
  2173  023E  2A41               	goto	u2265
  2174  023F  30E8               	movlw	232
  2175  0240  023A               	subwf	EEPROM_search@precio,w
  2176  0241                     u2265:	
  2177  0241  1803               	skipnc
  2178  0242  2A44               	goto	u2261
  2179  0243  2A45               	goto	u2260
  2180  0244                     u2261:	
  2181  0244  2A67               	goto	l2249
  2182  0245                     u2260:	
  2183  0245                     l2247:	
  2184  0245  3002               	movlw	2
  2185  0246  1283               	bcf	3,5	;RP0=0, select bank0
  2186  0247  1303               	bcf	3,6	;RP1=0, select bank0
  2187  0248  00A0               	movwf	___awdiv@divisor
  2188  0249  3000               	movlw	0
  2189  024A  00A1               	movwf	___awdiv@divisor+1
  2190  024B  083C               	movf	EEPROM_search@tp,w
  2191  024C  00B6               	movwf	??_EEPROM_search
  2192  024D  01B7               	clrf	??_EEPROM_search+1
  2193  024E  0836               	movf	??_EEPROM_search,w
  2194  024F  00A2               	movwf	___awdiv@dividend
  2195  0250  0837               	movf	??_EEPROM_search+1,w
  2196  0251  00A3               	movwf	___awdiv@dividend+1
  2197  0252  120A  118A  2274  120A  118A  	fcall	___awdiv
  2198  0257  1283               	bcf	3,5	;RP0=0, select bank0
  2199  0258  1303               	bcf	3,6	;RP1=0, select bank0
  2200  0259  0821               	movf	?___awdiv+1,w
  2201  025A  00AD               	movwf	verificarProd@tp+1
  2202  025B  0820               	movf	?___awdiv,w
  2203  025C  00AC               	movwf	verificarProd@tp
  2204  025D  120A  118A  2344  120A  118A  	fcall	_verificarProd
  2205  0262  3A00               	xorlw	0
  2206  0263  1903               	skipnz
  2207  0264  2A66               	goto	u2271
  2208  0265  2A67               	goto	u2270
  2209  0266                     u2271:	
  2210  0266  2A6D               	goto	l120
  2211  0267                     u2270:	
  2212  0267                     l2249:	
  2213                           
  2214                           ;lectura.c: 15:         precio = -1;
  2215  0267  30FF               	movlw	255
  2216  0268  1283               	bcf	3,5	;RP0=0, select bank0
  2217  0269  1303               	bcf	3,6	;RP1=0, select bank0
  2218  026A  00BA               	movwf	EEPROM_search@precio
  2219  026B  30FF               	movlw	255
  2220  026C  00BB               	movwf	EEPROM_search@precio+1
  2221  026D                     l120:	
  2222                           ;lectura.c: 16:     }
  2223                           
  2224                           
  2225                           ;lectura.c: 19:     return precio;
  2226  026D  1283               	bcf	3,5	;RP0=0, select bank0
  2227  026E  1303               	bcf	3,6	;RP1=0, select bank0
  2228  026F  083B               	movf	EEPROM_search@precio+1,w
  2229  0270  00B5               	movwf	?_EEPROM_search+1
  2230  0271  083A               	movf	EEPROM_search@precio,w
  2231  0272  00B4               	movwf	?_EEPROM_search
  2232  0273                     l123:	
  2233  0273  0008               	return
  2234  0274                     __end_of_EEPROM_search:	
  2235                           
  2236                           	psect	text7
  2237  0344                     __ptext7:	
  2238 ;; *************** function _verificarProd *****************
  2239 ;; Defined at:
  2240 ;;		line 34 in file "manejoProductos.c"
  2241 ;; Parameters:    Size  Location     Type
  2242 ;;  tp              2   12[BANK0 ] short 
  2243 ;; Auto vars:     Size  Location     Type
  2244 ;;  i               2   18[BANK0 ] short 
  2245 ;;  ret             1   17[BANK0 ] unsigned char 
  2246 ;; Return value:  Size  Location     Type
  2247 ;;                  1    wreg      unsigned char 
  2248 ;; Registers used:
  2249 ;;		wreg, fsr0l, fsr0h, status,2, status,0, pclath, cstack
  2250 ;; Tracked objects:
  2251 ;;		On entry : 0/0
  2252 ;;		On exit  : 0/0
  2253 ;;		Unchanged: 0/0
  2254 ;; Data sizes:     COMMON   BANK0   BANK1   BANK3   BANK2
  2255 ;;      Params:         0       2       0       0       0
  2256 ;;      Locals:         0       3       0       0       0
  2257 ;;      Temps:          0       3       0       0       0
  2258 ;;      Totals:         0       8       0       0       0
  2259 ;;Total ram usage:        8 bytes
  2260 ;; Hardware stack levels used:    1
  2261 ;; Hardware stack levels required when called:    3
  2262 ;; This function calls:
  2263 ;;		_pow
  2264 ;; This function is called by:
  2265 ;;		_EEPROM_search
  2266 ;; This function uses a non-reentrant model
  2267 ;;
  2268                           
  2269                           
  2270                           ;psect for function _verificarProd
  2271  0344                     _verificarProd:	
  2272  0344                     l2089:	
  2273                           ;incstack = 0
  2274                           ; Regs used in _verificarProd: [wreg-fsr0h+status,2+status,0+pclath+cstack]
  2275                           
  2276                           
  2277                           ;manejoProductos.c: 35:     char ret = 0;
  2278  0344  1283               	bcf	3,5	;RP0=0, select bank0
  2279  0345  1303               	bcf	3,6	;RP1=0, select bank0
  2280  0346  01B1               	clrf	verificarProd@ret
  2281  0347                     l2091:	
  2282                           
  2283                           ;manejoProductos.c: 36:     for(short int i = 12; i>=0; i--) {
  2284  0347  300C               	movlw	12
  2285  0348  00B2               	movwf	verificarProd@i
  2286  0349  3000               	movlw	0
  2287  034A  00B3               	movwf	verificarProd@i+1
  2288  034B                     l2097:	
  2289                           
  2290                           ;manejoProductos.c: 37:         if( tp >= 8*i) {
  2291  034B  0833               	movf	verificarProd@i+1,w
  2292  034C  00AF               	movwf	??_verificarProd+1
  2293  034D  0832               	movf	verificarProd@i,w
  2294  034E  00AE               	movwf	??_verificarProd
  2295  034F  1003               	clrc
  2296  0350  0DAE               	rlf	??_verificarProd,f
  2297  0351  0DAF               	rlf	??_verificarProd+1,f
  2298  0352  1003               	clrc
  2299  0353  0DAE               	rlf	??_verificarProd,f
  2300  0354  0DAF               	rlf	??_verificarProd+1,f
  2301  0355  1003               	clrc
  2302  0356  0DAE               	rlf	??_verificarProd,f
  2303  0357  0DAF               	rlf	??_verificarProd+1,f
  2304  0358  082D               	movf	verificarProd@tp+1,w
  2305  0359  3A80               	xorlw	128
  2306  035A  00B0               	movwf	??_verificarProd+2
  2307  035B  082F               	movf	??_verificarProd+1,w
  2308  035C  3A80               	xorlw	128
  2309  035D  0230               	subwf	??_verificarProd+2,w
  2310  035E  1D03               	skipz
  2311  035F  2B62               	goto	u2005
  2312  0360  082E               	movf	??_verificarProd,w
  2313  0361  022C               	subwf	verificarProd@tp,w
  2314  0362                     u2005:	
  2315  0362  1C03               	skipc
  2316  0363  2B65               	goto	u2001
  2317  0364  2B66               	goto	u2000
  2318  0365                     u2001:	
  2319  0365  2B9A               	goto	l2107
  2320  0366                     u2000:	
  2321  0366                     l2099:	
  2322                           
  2323                           ;manejoProductos.c: 39:             tp = tp - 8*i;
  2324  0366  1283               	bcf	3,5	;RP0=0, select bank0
  2325  0367  1303               	bcf	3,6	;RP1=0, select bank0
  2326  0368  0833               	movf	verificarProd@i+1,w
  2327  0369  00AF               	movwf	??_verificarProd+1
  2328  036A  0832               	movf	verificarProd@i,w
  2329  036B  00AE               	movwf	??_verificarProd
  2330  036C  1003               	clrc
  2331  036D  0DAE               	rlf	??_verificarProd,f
  2332  036E  0DAF               	rlf	??_verificarProd+1,f
  2333  036F  1003               	clrc
  2334  0370  0DAE               	rlf	??_verificarProd,f
  2335  0371  0DAF               	rlf	??_verificarProd+1,f
  2336  0372  1003               	clrc
  2337  0373  0DAE               	rlf	??_verificarProd,f
  2338  0374  0DAF               	rlf	??_verificarProd+1,f
  2339  0375  082E               	movf	??_verificarProd,w
  2340  0376  022C               	subwf	verificarProd@tp,w
  2341  0377  00AC               	movwf	verificarProd@tp
  2342  0378  082F               	movf	??_verificarProd+1,w
  2343  0379  1C03               	skipc
  2344  037A  0A2F               	incf	??_verificarProd+1,w
  2345  037B  022D               	subwf	verificarProd@tp+1,w
  2346  037C  00AD               	movwf	verificarProd@tp+1
  2347  037D                     l2101:	
  2348                           
  2349                           ;manejoProductos.c: 40:             if(prodIngresados[i] & pow(2,tp)) {
  2350  037D  0832               	movf	verificarProd@i,w
  2351  037E  3E48               	addlw	(low (_prodIngresados| 0))& (0+255)
  2352  037F  0084               	movwf	4
  2353  0380  3002               	movlw	2
  2354  0381  00A4               	movwf	pow@numero
  2355  0382  3000               	movlw	0
  2356  0383  00A5               	movwf	pow@numero+1
  2357  0384  082D               	movf	verificarProd@tp+1,w
  2358  0385  00A7               	movwf	pow@potencia+1
  2359  0386  082C               	movf	verificarProd@tp,w
  2360  0387  00A6               	movwf	pow@potencia
  2361  0388  120A  118A  269F  120A  118A  	fcall	_pow
  2362  038D  1283               	bcf	3,5	;RP0=0, select bank0
  2363  038E  1303               	bcf	3,6	;RP1=0, select bank0
  2364  038F  0824               	movf	?_pow,w
  2365  0390  1383               	bcf	3,7	;select IRP bank0
  2366  0391  0500               	andwf	0,w
  2367  0392  1903               	btfsc	3,2
  2368  0393  2B95               	goto	u2011
  2369  0394  2B96               	goto	u2010
  2370  0395                     u2011:	
  2371  0395  2B98               	goto	l2105
  2372  0396                     u2010:	
  2373  0396                     l2103:	
  2374                           
  2375                           ;manejoProductos.c: 41:                 ret = 1;
  2376  0396  01B1               	clrf	verificarProd@ret
  2377  0397  0AB1               	incf	verificarProd@ret,f
  2378  0398                     l2105:	
  2379                           
  2380                           ;manejoProductos.c: 43:             i = 0;
  2381  0398  01B2               	clrf	verificarProd@i
  2382  0399  01B3               	clrf	verificarProd@i+1
  2383  039A                     l2107:	
  2384                           
  2385                           ;manejoProductos.c: 46:     }
  2386  039A  30FF               	movlw	255
  2387  039B  1283               	bcf	3,5	;RP0=0, select bank0
  2388  039C  1303               	bcf	3,6	;RP1=0, select bank0
  2389  039D  07B2               	addwf	verificarProd@i,f
  2390  039E  1803               	skipnc
  2391  039F  0AB3               	incf	verificarProd@i+1,f
  2392  03A0  30FF               	movlw	255
  2393  03A1  07B3               	addwf	verificarProd@i+1,f
  2394  03A2                     l2109:	
  2395  03A2  1FB3               	btfss	verificarProd@i+1,7
  2396  03A3  2BA5               	goto	u2021
  2397  03A4  2BA6               	goto	u2020
  2398  03A5                     u2021:	
  2399  03A5  2B4B               	goto	l2097
  2400  03A6                     u2020:	
  2401  03A6                     l2111:	
  2402                           
  2403                           ;manejoProductos.c: 48:     return ret;
  2404  03A6  0831               	movf	verificarProd@ret,w
  2405  03A7                     l210:	
  2406  03A7  0008               	return
  2407  03A8                     __end_of_verificarProd:	
  2408                           
  2409                           	psect	text8
  2410  0274                     __ptext8:	
  2411 ;; *************** function ___awdiv *****************
  2412 ;; Defined at:
  2413 ;;		line 5 in file "C:\Program Files (x86)\Microchip\xc8\v2.10\pic\sources\c90\common\awdiv.c"
  2414 ;; Parameters:    Size  Location     Type
  2415 ;;  divisor         2    0[BANK0 ] int 
  2416 ;;  dividend        2    2[BANK0 ] int 
  2417 ;; Auto vars:     Size  Location     Type
  2418 ;;  quotient        2    6[BANK0 ] int 
  2419 ;;  sign            1    5[BANK0 ] unsigned char 
  2420 ;;  counter         1    4[BANK0 ] unsigned char 
  2421 ;; Return value:  Size  Location     Type
  2422 ;;                  2    0[BANK0 ] int 
  2423 ;; Registers used:
  2424 ;;		wreg, status,2, status,0
  2425 ;; Tracked objects:
  2426 ;;		On entry : 0/0
  2427 ;;		On exit  : 0/0
  2428 ;;		Unchanged: 0/0
  2429 ;; Data sizes:     COMMON   BANK0   BANK1   BANK3   BANK2
  2430 ;;      Params:         0       4       0       0       0
  2431 ;;      Locals:         0       4       0       0       0
  2432 ;;      Temps:          1       0       0       0       0
  2433 ;;      Totals:         1       8       0       0       0
  2434 ;;Total ram usage:        9 bytes
  2435 ;; Hardware stack levels used:    1
  2436 ;; Hardware stack levels required when called:    1
  2437 ;; This function calls:
  2438 ;;		Nothing
  2439 ;; This function is called by:
  2440 ;;		_EEPROM_search
  2441 ;; This function uses a non-reentrant model
  2442 ;;
  2443                           
  2444                           
  2445                           ;psect for function ___awdiv
  2446  0274                     ___awdiv:	
  2447  0274                     l2165:	
  2448                           ;incstack = 0
  2449                           ; Regs used in ___awdiv: [wreg+status,2+status,0]
  2450                           
  2451  0274  1283               	bcf	3,5	;RP0=0, select bank0
  2452  0275  1303               	bcf	3,6	;RP1=0, select bank0
  2453  0276  01A5               	clrf	___awdiv@sign
  2454  0277                     l2167:	
  2455  0277  1FA1               	btfss	___awdiv@divisor+1,7
  2456  0278  2A7A               	goto	u2091
  2457  0279  2A7B               	goto	u2090
  2458  027A                     u2091:	
  2459  027A  2A82               	goto	l2173
  2460  027B                     u2090:	
  2461  027B                     l2169:	
  2462  027B  09A0               	comf	___awdiv@divisor,f
  2463  027C  09A1               	comf	___awdiv@divisor+1,f
  2464  027D  0AA0               	incf	___awdiv@divisor,f
  2465  027E  1903               	skipnz
  2466  027F  0AA1               	incf	___awdiv@divisor+1,f
  2467  0280                     l2171:	
  2468  0280  01A5               	clrf	___awdiv@sign
  2469  0281  0AA5               	incf	___awdiv@sign,f
  2470  0282                     l2173:	
  2471  0282  1FA3               	btfss	___awdiv@dividend+1,7
  2472  0283  2A85               	goto	u2101
  2473  0284  2A86               	goto	u2100
  2474  0285                     u2101:	
  2475  0285  2A8F               	goto	l2179
  2476  0286                     u2100:	
  2477  0286                     l2175:	
  2478  0286  09A2               	comf	___awdiv@dividend,f
  2479  0287  09A3               	comf	___awdiv@dividend+1,f
  2480  0288  0AA2               	incf	___awdiv@dividend,f
  2481  0289  1903               	skipnz
  2482  028A  0AA3               	incf	___awdiv@dividend+1,f
  2483  028B                     l2177:	
  2484  028B  3001               	movlw	1
  2485  028C  00F4               	movwf	??___awdiv
  2486  028D  0874               	movf	??___awdiv,w
  2487  028E  06A5               	xorwf	___awdiv@sign,f
  2488  028F                     l2179:	
  2489  028F  01A6               	clrf	___awdiv@quotient
  2490  0290  01A7               	clrf	___awdiv@quotient+1
  2491  0291                     l2181:	
  2492  0291  0820               	movf	___awdiv@divisor,w
  2493  0292  0421               	iorwf	___awdiv@divisor+1,w
  2494  0293  1903               	btfsc	3,2
  2495  0294  2A96               	goto	u2111
  2496  0295  2A97               	goto	u2110
  2497  0296                     u2111:	
  2498  0296  2ACE               	goto	l2201
  2499  0297                     u2110:	
  2500  0297                     l2183:	
  2501  0297  01A4               	clrf	___awdiv@counter
  2502  0298  0AA4               	incf	___awdiv@counter,f
  2503  0299  2AA5               	goto	l2189
  2504  029A                     l2185:	
  2505  029A  3001               	movlw	1
  2506  029B                     u2125:	
  2507  029B  1003               	clrc
  2508  029C  0DA0               	rlf	___awdiv@divisor,f
  2509  029D  0DA1               	rlf	___awdiv@divisor+1,f
  2510  029E  3EFF               	addlw	-1
  2511  029F  1D03               	skipz
  2512  02A0  2A9B               	goto	u2125
  2513  02A1                     l2187:	
  2514  02A1  3001               	movlw	1
  2515  02A2  00F4               	movwf	??___awdiv
  2516  02A3  0874               	movf	??___awdiv,w
  2517  02A4  07A4               	addwf	___awdiv@counter,f
  2518  02A5                     l2189:	
  2519  02A5  1FA1               	btfss	___awdiv@divisor+1,7
  2520  02A6  2AA8               	goto	u2131
  2521  02A7  2AA9               	goto	u2130
  2522  02A8                     u2131:	
  2523  02A8  2A9A               	goto	l2185
  2524  02A9                     u2130:	
  2525  02A9                     l2191:	
  2526  02A9  3001               	movlw	1
  2527  02AA                     u2145:	
  2528  02AA  1003               	clrc
  2529  02AB  0DA6               	rlf	___awdiv@quotient,f
  2530  02AC  0DA7               	rlf	___awdiv@quotient+1,f
  2531  02AD  3EFF               	addlw	-1
  2532  02AE  1D03               	skipz
  2533  02AF  2AAA               	goto	u2145
  2534  02B0  0821               	movf	___awdiv@divisor+1,w
  2535  02B1  0223               	subwf	___awdiv@dividend+1,w
  2536  02B2  1D03               	skipz
  2537  02B3  2AB6               	goto	u2155
  2538  02B4  0820               	movf	___awdiv@divisor,w
  2539  02B5  0222               	subwf	___awdiv@dividend,w
  2540  02B6                     u2155:	
  2541  02B6  1C03               	skipc
  2542  02B7  2AB9               	goto	u2151
  2543  02B8  2ABA               	goto	u2150
  2544  02B9                     u2151:	
  2545  02B9  2AC1               	goto	l2197
  2546  02BA                     u2150:	
  2547  02BA                     l2193:	
  2548  02BA  0820               	movf	___awdiv@divisor,w
  2549  02BB  02A2               	subwf	___awdiv@dividend,f
  2550  02BC  0821               	movf	___awdiv@divisor+1,w
  2551  02BD  1C03               	skipc
  2552  02BE  03A3               	decf	___awdiv@dividend+1,f
  2553  02BF  02A3               	subwf	___awdiv@dividend+1,f
  2554  02C0                     l2195:	
  2555  02C0  1426               	bsf	___awdiv@quotient,0
  2556  02C1                     l2197:	
  2557  02C1  3001               	movlw	1
  2558  02C2                     u2165:	
  2559  02C2  1003               	clrc
  2560  02C3  0CA1               	rrf	___awdiv@divisor+1,f
  2561  02C4  0CA0               	rrf	___awdiv@divisor,f
  2562  02C5  3EFF               	addlw	-1
  2563  02C6  1D03               	skipz
  2564  02C7  2AC2               	goto	u2165
  2565  02C8                     l2199:	
  2566  02C8  3001               	movlw	1
  2567  02C9  02A4               	subwf	___awdiv@counter,f
  2568  02CA  1D03               	btfss	3,2
  2569  02CB  2ACD               	goto	u2171
  2570  02CC  2ACE               	goto	u2170
  2571  02CD                     u2171:	
  2572  02CD  2AA9               	goto	l2191
  2573  02CE                     u2170:	
  2574  02CE                     l2201:	
  2575  02CE  0825               	movf	___awdiv@sign,w
  2576  02CF  1903               	btfsc	3,2
  2577  02D0  2AD2               	goto	u2181
  2578  02D1  2AD3               	goto	u2180
  2579  02D2                     u2181:	
  2580  02D2  2AD8               	goto	l2205
  2581  02D3                     u2180:	
  2582  02D3                     l2203:	
  2583  02D3  09A6               	comf	___awdiv@quotient,f
  2584  02D4  09A7               	comf	___awdiv@quotient+1,f
  2585  02D5  0AA6               	incf	___awdiv@quotient,f
  2586  02D6  1903               	skipnz
  2587  02D7  0AA7               	incf	___awdiv@quotient+1,f
  2588  02D8                     l2205:	
  2589  02D8  0827               	movf	___awdiv@quotient+1,w
  2590  02D9  00A1               	movwf	?___awdiv+1
  2591  02DA  0826               	movf	___awdiv@quotient,w
  2592  02DB  00A0               	movwf	?___awdiv
  2593  02DC                     l576:	
  2594  02DC  0008               	return
  2595  02DD                     __end_of___awdiv:	
  2596                           
  2597                           	psect	text9
  2598  0FE0                     __ptext9:	
  2599 ;; *************** function _lecturaComando *****************
  2600 ;; Defined at:
  2601 ;;		line 141 in file "lectura.c"
  2602 ;; Parameters:    Size  Location     Type
  2603 ;;		None
  2604 ;; Auto vars:     Size  Location     Type
  2605 ;;		None
  2606 ;; Return value:  Size  Location     Type
  2607 ;;                  1    wreg      void 
  2608 ;; Registers used:
  2609 ;;		wreg, fsr0l, fsr0h, status,2, status,0, btemp+1, pclath, cstack
  2610 ;; Tracked objects:
  2611 ;;		On entry : 0/0
  2612 ;;		On exit  : 0/0
  2613 ;;		Unchanged: 0/0
  2614 ;; Data sizes:     COMMON   BANK0   BANK1   BANK3   BANK2
  2615 ;;      Params:         0       0       0       0       0
  2616 ;;      Locals:         0       0       0       0       0
  2617 ;;      Temps:          0       0       0       0       0
  2618 ;;      Totals:         0       0       0       0       0
  2619 ;;Total ram usage:        0 bytes
  2620 ;; Hardware stack levels used:    1
  2621 ;; Hardware stack levels required when called:    4
  2622 ;; This function calls:
  2623 ;;		_lecturaConsulta
  2624 ;;		_lecturaMas
  2625 ;;		_lecturaMenos
  2626 ;; This function is called by:
  2627 ;;		_accionesPuertoSerial
  2628 ;; This function uses a non-reentrant model
  2629 ;;
  2630                           
  2631                           
  2632                           ;psect for function _lecturaComando
  2633  0FE0                     _lecturaComando:	
  2634  0FE0                     l2391:	
  2635                           ;incstack = 0
  2636                           ; Regs used in _lecturaComando: [wreg-fsr0h+status,2+status,0+btemp+1+pclath+cstack]
  2637                           
  2638                           
  2639                           ;lectura.c: 142:     if(codigoEntrada[0] == '?'){
  2640  0FE0  303F               	movlw	63
  2641  0FE1  1283               	bcf	3,5	;RP0=0, select bank0
  2642  0FE2  1303               	bcf	3,6	;RP1=0, select bank0
  2643  0FE3  0662               	xorwf	_codigoEntrada,w
  2644  0FE4  1D03               	btfss	3,2
  2645  0FE5  2FE7               	goto	u2531
  2646  0FE6  2FE8               	goto	u2530
  2647  0FE7                     u2531:	
  2648  0FE7  2FEE               	goto	l2395
  2649  0FE8                     u2530:	
  2650  0FE8                     l2393:	
  2651                           
  2652                           ;lectura.c: 143:         lecturaConsulta();
  2653  0FE8  120A  118A  25A7  120A  158A  	fcall	_lecturaConsulta
  2654                           
  2655                           ;lectura.c: 144:     }
  2656  0FED  2FFF               	goto	l181
  2657  0FEE                     l2395:	
  2658  0FEE  302B               	movlw	43
  2659  0FEF  0662               	xorwf	_codigoEntrada,w
  2660  0FF0  1D03               	btfss	3,2
  2661  0FF1  2FF3               	goto	u2541
  2662  0FF2  2FF4               	goto	u2540
  2663  0FF3                     u2541:	
  2664  0FF3  2FFA               	goto	l2399
  2665  0FF4                     u2540:	
  2666  0FF4                     l2397:	
  2667                           
  2668                           ;lectura.c: 146:         lecturaMas();
  2669  0FF4  120A  118A  276F  120A  158A  	fcall	_lecturaMas
  2670                           
  2671                           ;lectura.c: 147:     }
  2672  0FF9  2FFF               	goto	l181
  2673  0FFA                     l2399:	
  2674                           
  2675                           ;lectura.c: 149:         lecturaMenos();
  2676  0FFA  120A  158A  27B0  120A  158A  	fcall	_lecturaMenos
  2677  0FFF                     l181:	
  2678  0FFF  0008               	return
  2679  1000                     __end_of_lecturaComando:	
  2680                           
  2681                           	psect	text10
  2682  0FB0                     __ptext10:	
  2683 ;; *************** function _lecturaMenos *****************
  2684 ;; Defined at:
  2685 ;;		line 99 in file "lectura.c"
  2686 ;; Parameters:    Size  Location     Type
  2687 ;;		None
  2688 ;; Auto vars:     Size  Location     Type
  2689 ;;		None
  2690 ;; Return value:  Size  Location     Type
  2691 ;;                  1    wreg      void 
  2692 ;; Registers used:
  2693 ;;		wreg, status,2, status,0
  2694 ;; Tracked objects:
  2695 ;;		On entry : 0/0
  2696 ;;		On exit  : 0/0
  2697 ;;		Unchanged: 0/0
  2698 ;; Data sizes:     COMMON   BANK0   BANK1   BANK3   BANK2
  2699 ;;      Params:         0       0       0       0       0
  2700 ;;      Locals:         0       0       0       0       0
  2701 ;;      Temps:          0       0       0       0       0
  2702 ;;      Totals:         0       0       0       0       0
  2703 ;;Total ram usage:        0 bytes
  2704 ;; Hardware stack levels used:    1
  2705 ;; Hardware stack levels required when called:    1
  2706 ;; This function calls:
  2707 ;;		Nothing
  2708 ;; This function is called by:
  2709 ;;		_lecturaComando
  2710 ;; This function uses a non-reentrant model
  2711 ;;
  2712                           
  2713                           
  2714                           ;psect for function _lecturaMenos
  2715  0FB0                     _lecturaMenos:	
  2716  0FB0                     l1771:	
  2717                           ;incstack = 0
  2718                           ; Regs used in _lecturaMenos: [wreg+status,2+status,0]
  2719                           
  2720                           
  2721                           ;lectura.c: 100:     if(codigoEntrada[1] == 'D'){
  2722  0FB0  3044               	movlw	68
  2723  0FB1  1283               	bcf	3,5	;RP0=0, select bank0
  2724  0FB2  1303               	bcf	3,6	;RP1=0, select bank0
  2725  0FB3  0663               	xorwf	_codigoEntrada+1,w
  2726  0FB4  1D03               	btfss	3,2
  2727  0FB5  2FB7               	goto	u1471
  2728  0FB6  2FB8               	goto	u1470
  2729  0FB7                     u1471:	
  2730  0FB7  2FB9               	goto	l162
  2731  0FB8                     u1470:	
  2732  0FB8                     l1773:	
  2733                           
  2734                           ;lectura.c: 101:         modoDebug = 0;
  2735  0FB8  01F7               	clrf	_modoDebug
  2736  0FB9                     l162:	
  2737                           ;lectura.c: 103:     }
  2738                           
  2739  0FB9  0008               	return
  2740  0FBA                     __end_of_lecturaMenos:	
  2741                           
  2742                           	psect	text11
  2743  076F                     __ptext11:	
  2744 ;; *************** function _lecturaMas *****************
  2745 ;; Defined at:
  2746 ;;		line 84 in file "lectura.c"
  2747 ;; Parameters:    Size  Location     Type
  2748 ;;		None
  2749 ;; Auto vars:     Size  Location     Type
  2750 ;;		None
  2751 ;; Return value:  Size  Location     Type
  2752 ;;                  1    wreg      void 
  2753 ;; Registers used:
  2754 ;;		wreg, fsr0l, fsr0h, status,2, status,0, btemp+1, pclath, cstack
  2755 ;; Tracked objects:
  2756 ;;		On entry : 0/0
  2757 ;;		On exit  : 0/0
  2758 ;;		Unchanged: 0/0
  2759 ;; Data sizes:     COMMON   BANK0   BANK1   BANK3   BANK2
  2760 ;;      Params:         0       0       0       0       0
  2761 ;;      Locals:         0       0       0       0       0
  2762 ;;      Temps:          0       0       0       0       0
  2763 ;;      Totals:         0       0       0       0       0
  2764 ;;Total ram usage:        0 bytes
  2765 ;; Hardware stack levels used:    1
  2766 ;; Hardware stack levels required when called:    3
  2767 ;; This function calls:
  2768 ;;		_agregarModificarPrecio
  2769 ;;		_cierreDeLote
  2770 ;;		_verificacionEntrada
  2771 ;; This function is called by:
  2772 ;;		_lecturaComando
  2773 ;; This function uses a non-reentrant model
  2774 ;;
  2775                           
  2776                           
  2777                           ;psect for function _lecturaMas
  2778  076F                     _lecturaMas:	
  2779  076F                     l2271:	
  2780                           ;incstack = 0
  2781                           ; Regs used in _lecturaMas: [wreg-fsr0h+status,2+status,0+btemp+1+pclath+cstack]
  2782                           
  2783                           
  2784                           ;lectura.c: 85:     if (codigoEntrada[1] == 'L'){
  2785  076F  304C               	movlw	76
  2786  0770  1283               	bcf	3,5	;RP0=0, select bank0
  2787  0771  1303               	bcf	3,6	;RP1=0, select bank0
  2788  0772  0663               	xorwf	_codigoEntrada+1,w
  2789  0773  1D03               	btfss	3,2
  2790  0774  2F76               	goto	u2301
  2791  0775  2F77               	goto	u2300
  2792  0776                     u2301:	
  2793  0776  2F7D               	goto	l2275
  2794  0777                     u2300:	
  2795  0777                     l2273:	
  2796                           
  2797                           ;lectura.c: 86:         cierreDeLote();
  2798  0777  120A  158A  27A6  120A  118A  	fcall	_cierreDeLote
  2799                           
  2800                           ;lectura.c: 87:     }
  2801  077C  2F98               	goto	l157
  2802  077D                     l2275:	
  2803  077D  120A  118A  270C  120A  118A  	fcall	_verificacionEntrada
  2804  0782  3A06               	xorlw	6
  2805  0783  1D03               	skipz
  2806  0784  2F86               	goto	u2311
  2807  0785  2F87               	goto	u2310
  2808  0786                     u2311:	
  2809  0786  2F8D               	goto	l2279
  2810  0787                     u2310:	
  2811  0787                     l2277:	
  2812                           
  2813                           ;lectura.c: 89:         agregarModificarPrecio();
  2814  0787  120A  118A  2027  120A  118A  	fcall	_agregarModificarPrecio
  2815                           
  2816                           ;lectura.c: 90:     }
  2817  078C  2F98               	goto	l157
  2818  078D                     l2279:	
  2819  078D  3044               	movlw	68
  2820  078E  1283               	bcf	3,5	;RP0=0, select bank0
  2821  078F  1303               	bcf	3,6	;RP1=0, select bank0
  2822  0790  0663               	xorwf	_codigoEntrada+1,w
  2823  0791  1D03               	btfss	3,2
  2824  0792  2F94               	goto	u2321
  2825  0793  2F95               	goto	u2320
  2826  0794                     u2321:	
  2827  0794  2F98               	goto	l154
  2828  0795                     u2320:	
  2829  0795                     l2281:	
  2830                           
  2831                           ;lectura.c: 92:         modoDebug = 1;
  2832  0795  01F7               	clrf	_modoDebug
  2833  0796  0AF7               	incf	_modoDebug,f
  2834                           
  2835                           ;lectura.c: 93:     }
  2836  0797  2F98               	goto	l157
  2837  0798                     l154:	
  2838  0798                     l157:	
  2839  0798  0008               	return
  2840  0799                     __end_of_lecturaMas:	
  2841                           
  2842                           	psect	text12
  2843  070C                     __ptext12:	
  2844 ;; *************** function _verificacionEntrada *****************
  2845 ;; Defined at:
  2846 ;;		line 64 in file "lectura.c"
  2847 ;; Parameters:    Size  Location     Type
  2848 ;;		None
  2849 ;; Auto vars:     Size  Location     Type
  2850 ;;  i               1    1[BANK0 ] unsigned char 
  2851 ;;  ret             1    0[BANK0 ] unsigned char 
  2852 ;; Return value:  Size  Location     Type
  2853 ;;                  1    wreg      unsigned char 
  2854 ;; Registers used:
  2855 ;;		wreg, fsr0l, fsr0h, status,2, status,0
  2856 ;; Tracked objects:
  2857 ;;		On entry : 0/0
  2858 ;;		On exit  : 0/0
  2859 ;;		Unchanged: 0/0
  2860 ;; Data sizes:     COMMON   BANK0   BANK1   BANK3   BANK2
  2861 ;;      Params:         0       0       0       0       0
  2862 ;;      Locals:         0       2       0       0       0
  2863 ;;      Temps:          1       0       0       0       0
  2864 ;;      Totals:         1       2       0       0       0
  2865 ;;Total ram usage:        3 bytes
  2866 ;; Hardware stack levels used:    1
  2867 ;; Hardware stack levels required when called:    1
  2868 ;; This function calls:
  2869 ;;		Nothing
  2870 ;; This function is called by:
  2871 ;;		_lecturaMas
  2872 ;; This function uses a non-reentrant model
  2873 ;;
  2874                           
  2875                           
  2876                           ;psect for function _verificacionEntrada
  2877  070C                     _verificacionEntrada:	
  2878  070C                     l2115:	
  2879                           ;incstack = 0
  2880                           ; Regs used in _verificacionEntrada: [wreg-fsr0h+status,2+status,0]
  2881                           
  2882                           
  2883                           ;lectura.c: 65:     char i = 1;
  2884  070C  1283               	bcf	3,5	;RP0=0, select bank0
  2885  070D  1303               	bcf	3,6	;RP1=0, select bank0
  2886  070E  01A1               	clrf	verificacionEntrada@i
  2887  070F  0AA1               	incf	verificacionEntrada@i,f
  2888  0710                     l2117:	
  2889                           
  2890                           ;lectura.c: 66:     char ret = 0;
  2891  0710  01A0               	clrf	verificacionEntrada@ret
  2892                           
  2893                           ;lectura.c: 67:     while( (((codigoEntrada[i] <= '9') && (codigoEntrada[i] >= '0')) || 
      +                          codigoEntrada[i] == '=') && (i<=6) ) {
  2894  0711  2F1A               	goto	l2121
  2895  0712                     l2119:	
  2896                           
  2897                           ;lectura.c: 68:         i++;
  2898  0712  3001               	movlw	1
  2899  0713  00F4               	movwf	??_verificacionEntrada
  2900  0714  0874               	movf	??_verificacionEntrada,w
  2901  0715  07A1               	addwf	verificacionEntrada@i,f
  2902                           
  2903                           ;lectura.c: 69:         ret++;
  2904  0716  3001               	movlw	1
  2905  0717  00F4               	movwf	??_verificacionEntrada
  2906  0718  0874               	movf	??_verificacionEntrada,w
  2907  0719  07A0               	addwf	verificacionEntrada@ret,f
  2908  071A                     l2121:	
  2909                           
  2910                           ;lectura.c: 67:     while( (((codigoEntrada[i] <= '9') && (codigoEntrada[i] >= '0')) || 
      +                          codigoEntrada[i] == '=') && (i<=6) ) {
  2911  071A  0821               	movf	verificacionEntrada@i,w
  2912  071B  3E62               	addlw	(low (_codigoEntrada| 0))& (0+255)
  2913  071C  0084               	movwf	4
  2914  071D  303A               	movlw	58
  2915  071E  1383               	bcf	3,7	;select IRP bank0
  2916  071F  0200               	subwf	0,w
  2917  0720  1803               	skipnc
  2918  0721  2F23               	goto	u2031
  2919  0722  2F24               	goto	u2030
  2920  0723                     u2031:	
  2921  0723  2F2D               	goto	l2125
  2922  0724                     u2030:	
  2923  0724                     l2123:	
  2924  0724  0821               	movf	verificacionEntrada@i,w
  2925  0725  3E62               	addlw	(low (_codigoEntrada| 0))& (0+255)
  2926  0726  0084               	movwf	4
  2927  0727  3030               	movlw	48
  2928  0728  0200               	subwf	0,w
  2929  0729  1803               	skipnc
  2930  072A  2F2C               	goto	u2041
  2931  072B  2F2D               	goto	u2040
  2932  072C                     u2041:	
  2933  072C  2F36               	goto	l2127
  2934  072D                     u2040:	
  2935  072D                     l2125:	
  2936  072D  0821               	movf	verificacionEntrada@i,w
  2937  072E  3E62               	addlw	(low (_codigoEntrada| 0))& (0+255)
  2938  072F  0084               	movwf	4
  2939  0730  303D               	movlw	61
  2940  0731  0600               	xorwf	0,w
  2941  0732  1D03               	btfss	3,2
  2942  0733  2F35               	goto	u2051
  2943  0734  2F36               	goto	u2050
  2944  0735                     u2051:	
  2945  0735  2F3C               	goto	l2129
  2946  0736                     u2050:	
  2947  0736                     l2127:	
  2948  0736  3007               	movlw	7
  2949  0737  0221               	subwf	verificacionEntrada@i,w
  2950  0738  1C03               	skipc
  2951  0739  2F3B               	goto	u2061
  2952  073A  2F3C               	goto	u2060
  2953  073B                     u2061:	
  2954  073B  2F12               	goto	l2119
  2955  073C                     u2060:	
  2956  073C                     l2129:	
  2957                           
  2958                           ;lectura.c: 71:     return ret;
  2959  073C  0820               	movf	verificacionEntrada@ret,w
  2960  073D                     l144:	
  2961  073D  0008               	return
  2962  073E                     __end_of_verificacionEntrada:	
  2963                           
  2964                           	psect	text13
  2965  0FA6                     __ptext13:	
  2966 ;; *************** function _cierreDeLote *****************
  2967 ;; Defined at:
  2968 ;;		line 74 in file "lectura.c"
  2969 ;; Parameters:    Size  Location     Type
  2970 ;;		None
  2971 ;; Auto vars:     Size  Location     Type
  2972 ;;		None
  2973 ;; Return value:  Size  Location     Type
  2974 ;;                  1    wreg      void 
  2975 ;; Registers used:
  2976 ;;		wreg, status,2, status,0
  2977 ;; Tracked objects:
  2978 ;;		On entry : 0/0
  2979 ;;		On exit  : 0/0
  2980 ;;		Unchanged: 0/0
  2981 ;; Data sizes:     COMMON   BANK0   BANK1   BANK3   BANK2
  2982 ;;      Params:         0       0       0       0       0
  2983 ;;      Locals:         0       0       0       0       0
  2984 ;;      Temps:          1       0       0       0       0
  2985 ;;      Totals:         1       0       0       0       0
  2986 ;;Total ram usage:        1 bytes
  2987 ;; Hardware stack levels used:    1
  2988 ;; Hardware stack levels required when called:    1
  2989 ;; This function calls:
  2990 ;;		Nothing
  2991 ;; This function is called by:
  2992 ;;		_lecturaMas
  2993 ;; This function uses a non-reentrant model
  2994 ;;
  2995                           
  2996                           
  2997                           ;psect for function _cierreDeLote
  2998  0FA6                     _cierreDeLote:	
  2999  0FA6                     l147:	
  3000                           ;incstack = 0
  3001                           ; Regs used in _cierreDeLote: [wreg+status,2+status,0]
  3002                           ;lectura.c: 77:     }
  3003                           
  3004  0FA6                     l1589:	
  3005                           
  3006                           ;lectura.c: 79:     nroLote++;
  3007  0FA6  3001               	movlw	1
  3008  0FA7  00F4               	movwf	??_cierreDeLote
  3009  0FA8  0874               	movf	??_cierreDeLote,w
  3010  0FA9  07F9               	addwf	_nroLote,f
  3011  0FAA                     l1591:	
  3012                           
  3013                           ;lectura.c: 80:     ventasLote=0;
  3014  0FAA  1283               	bcf	3,5	;RP0=0, select bank0
  3015  0FAB  1303               	bcf	3,6	;RP1=0, select bank0
  3016  0FAC  01E1               	clrf	_ventasLote
  3017  0FAD                     l1593:	
  3018                           
  3019                           ;lectura.c: 81:     montosLote=0;
  3020  0FAD  01D5               	clrf	_montosLote
  3021  0FAE  01D6               	clrf	_montosLote+1
  3022  0FAF                     l148:	
  3023  0FAF  0008               	return
  3024  0FB0                     __end_of_cierreDeLote:	
  3025                           
  3026                           	psect	text14
  3027  0027                     __ptext14:	
  3028 ;; *************** function _agregarModificarPrecio *****************
  3029 ;; Defined at:
  3030 ;;		line 65 in file "manejoProductos.c"
  3031 ;; Parameters:    Size  Location     Type
  3032 ;;		None
  3033 ;; Auto vars:     Size  Location     Type
  3034 ;;  precio          2   16[BANK0 ] short 
  3035 ;;  tp              1   18[BANK0 ] unsigned char 
  3036 ;;  upper_8bits     1   15[BANK0 ] unsigned char 
  3037 ;;  lower_8bits     1   14[BANK0 ] unsigned char 
  3038 ;; Return value:  Size  Location     Type
  3039 ;;                  1    wreg      void 
  3040 ;; Registers used:
  3041 ;;		wreg, status,2, status,0, btemp+1, pclath, cstack
  3042 ;; Tracked objects:
  3043 ;;		On entry : 0/0
  3044 ;;		On exit  : 0/0
  3045 ;;		Unchanged: 0/0
  3046 ;; Data sizes:     COMMON   BANK0   BANK1   BANK3   BANK2
  3047 ;;      Params:         0       0       0       0       0
  3048 ;;      Locals:         0       5       0       0       0
  3049 ;;      Temps:          0      10       0       0       0
  3050 ;;      Totals:         0      15       0       0       0
  3051 ;;Total ram usage:       15 bytes
  3052 ;; Hardware stack levels used:    1
  3053 ;; Hardware stack levels required when called:    2
  3054 ;; This function calls:
  3055 ;;		___bmul
  3056 ;;		___wmul
  3057 ;;		_eeprom_read
  3058 ;;		_eeprom_write
  3059 ;; This function is called by:
  3060 ;;		_lecturaMas
  3061 ;; This function uses a non-reentrant model
  3062 ;;
  3063                           
  3064                           
  3065                           ;psect for function _agregarModificarPrecio
  3066  0027                     _agregarModificarPrecio:	
  3067  0027                     l2133:	
  3068                           ;incstack = 0
  3069                           ; Regs used in _agregarModificarPrecio: [wreg+status,2+status,0+btemp+1+pclath+cstack]
  3070                           
  3071                           
  3072                           ;manejoProductos.c: 66:     unsigned char tp = 10*(codigoEntrada[0]-'0') + (codigoEntrad
      +                          a[1] - '0');
  3073  0027  300A               	movlw	10
  3074  0028  1283               	bcf	3,5	;RP0=0, select bank0
  3075  0029  1303               	bcf	3,6	;RP1=0, select bank0
  3076  002A  00A4               	movwf	??_agregarModificarPrecio
  3077  002B  0824               	movf	??_agregarModificarPrecio,w
  3078  002C  00F4               	movwf	___bmul@multiplicand
  3079  002D  0862               	movf	_codigoEntrada,w
  3080  002E  120A  158A  27C9  120A  118A  	fcall	___bmul
  3081  0033  1283               	bcf	3,5	;RP0=0, select bank0
  3082  0034  1303               	bcf	3,6	;RP1=0, select bank0
  3083  0035  0763               	addwf	_codigoEntrada+1,w
  3084  0036  3EF0               	addlw	240
  3085  0037  00A5               	movwf	??_agregarModificarPrecio+1
  3086  0038  0825               	movf	??_agregarModificarPrecio+1,w
  3087  0039  00B2               	movwf	agregarModificarPrecio@tp
  3088  003A                     l2135:	
  3089                           
  3090                           ;manejoProductos.c: 67:     char lower_8bits;;manejoProductos.c: 68:     char upper_8bit
      +                          s;;manejoProductos.c: 69:     tp--;
  3091  003A  3001               	movlw	1
  3092  003B  02B2               	subwf	agregarModificarPrecio@tp,f
  3093  003C                     l2137:	
  3094                           
  3095                           ;manejoProductos.c: 70:     tp = tp * 2;
  3096  003C  0832               	movf	agregarModificarPrecio@tp,w
  3097  003D  00A4               	movwf	??_agregarModificarPrecio
  3098  003E  0724               	addwf	??_agregarModificarPrecio,w
  3099  003F  00A5               	movwf	??_agregarModificarPrecio+1
  3100  0040  0825               	movf	??_agregarModificarPrecio+1,w
  3101  0041  00B2               	movwf	agregarModificarPrecio@tp
  3102  0042                     l2139:	
  3103                           
  3104                           ;manejoProductos.c: 71:     short int precio = (eeprom_read(tp) << 8) | (eeprom_read(tp+
      +                          1));
  3105  0042  0832               	movf	agregarModificarPrecio@tp,w
  3106  0043  3E01               	addlw	1
  3107  0044  120A  118A  27E5  120A  118A  	fcall	_eeprom_read
  3108  0049  1283               	bcf	3,5	;RP0=0, select bank0
  3109  004A  1303               	bcf	3,6	;RP1=0, select bank0
  3110  004B  00A4               	movwf	??_agregarModificarPrecio
  3111  004C  01A5               	clrf	??_agregarModificarPrecio+1
  3112  004D  0832               	movf	agregarModificarPrecio@tp,w
  3113  004E  120A  118A  27E5  120A  118A  	fcall	_eeprom_read
  3114  0053  1283               	bcf	3,5	;RP0=0, select bank0
  3115  0054  1303               	bcf	3,6	;RP1=0, select bank0
  3116  0055  00A6               	movwf	??_agregarModificarPrecio+2
  3117  0056  01A7               	clrf	??_agregarModificarPrecio+3
  3118  0057  0826               	movf	??_agregarModificarPrecio+2,w
  3119  0058  00A7               	movwf	??_agregarModificarPrecio+3
  3120  0059  01A6               	clrf	??_agregarModificarPrecio+2
  3121  005A  0824               	movf	??_agregarModificarPrecio,w
  3122  005B  0426               	iorwf	??_agregarModificarPrecio+2,w
  3123  005C  00B0               	movwf	agregarModificarPrecio@precio
  3124  005D  0825               	movf	??_agregarModificarPrecio+1,w
  3125  005E  0427               	iorwf	??_agregarModificarPrecio+3,w
  3126  005F  00B1               	movwf	agregarModificarPrecio@precio+1
  3127  0060                     l2141:	
  3128                           
  3129                           ;manejoProductos.c: 73:     if( (precio < 0 || precio > 999) ) {
  3130  0060  1BB1               	btfsc	agregarModificarPrecio@precio+1,7
  3131  0061  2863               	goto	u2071
  3132  0062  2864               	goto	u2070
  3133  0063                     u2071:	
  3134  0063  2871               	goto	l2145
  3135  0064                     u2070:	
  3136  0064                     l2143:	
  3137  0064  0831               	movf	agregarModificarPrecio@precio+1,w
  3138  0065  3A80               	xorlw	128
  3139  0066  00FF               	movwf	btemp+1
  3140  0067  3083               	movlw	131
  3141  0068  027F               	subwf	btemp+1,w
  3142  0069  1D03               	skipz
  3143  006A  286D               	goto	u2085
  3144  006B  30E8               	movlw	232
  3145  006C  0230               	subwf	agregarModificarPrecio@precio,w
  3146  006D                     u2085:	
  3147  006D  1C03               	skipc
  3148  006E  2870               	goto	u2081
  3149  006F  2871               	goto	u2080
  3150  0070                     u2081:	
  3151  0070  28D3               	goto	l2155
  3152  0071                     u2080:	
  3153  0071                     l2145:	
  3154                           
  3155                           ;manejoProductos.c: 74:         precio = 100 * (codigoEntrada[3] - '0')+ 10 * (codigoEnt
      +                          rada[4] - '0') + (codigoEntrada[5] - '0');
  3156  0071  1283               	bcf	3,5	;RP0=0, select bank0
  3157  0072  1303               	bcf	3,6	;RP1=0, select bank0
  3158  0073  0865               	movf	_codigoEntrada+3,w
  3159  0074  00A4               	movwf	??_agregarModificarPrecio
  3160  0075  01A5               	clrf	??_agregarModificarPrecio+1
  3161  0076  0824               	movf	??_agregarModificarPrecio,w
  3162  0077  00A0               	movwf	___wmul@multiplier
  3163  0078  0825               	movf	??_agregarModificarPrecio+1,w
  3164  0079  00A1               	movwf	___wmul@multiplier+1
  3165  007A  3064               	movlw	100
  3166  007B  00A2               	movwf	___wmul@multiplicand
  3167  007C  3000               	movlw	0
  3168  007D  00A3               	movwf	___wmul@multiplicand+1
  3169  007E  120A  118A  2799  120A  118A  	fcall	___wmul
  3170  0083  1283               	bcf	3,5	;RP0=0, select bank0
  3171  0084  1303               	bcf	3,6	;RP1=0, select bank0
  3172  0085  0820               	movf	?___wmul,w
  3173  0086  00A6               	movwf	??_agregarModificarPrecio+2
  3174  0087  0821               	movf	?___wmul+1,w
  3175  0088  00A7               	movwf	??_agregarModificarPrecio+3
  3176  0089  0866               	movf	_codigoEntrada+4,w
  3177  008A  00A8               	movwf	??_agregarModificarPrecio+4
  3178  008B  01A9               	clrf	??_agregarModificarPrecio+5
  3179  008C  0828               	movf	??_agregarModificarPrecio+4,w
  3180  008D  00A0               	movwf	___wmul@multiplier
  3181  008E  0829               	movf	??_agregarModificarPrecio+5,w
  3182  008F  00A1               	movwf	___wmul@multiplier+1
  3183  0090  300A               	movlw	10
  3184  0091  00A2               	movwf	___wmul@multiplicand
  3185  0092  3000               	movlw	0
  3186  0093  00A3               	movwf	___wmul@multiplicand+1
  3187  0094  120A  118A  2799  120A  118A  	fcall	___wmul
  3188  0099  1283               	bcf	3,5	;RP0=0, select bank0
  3189  009A  1303               	bcf	3,6	;RP1=0, select bank0
  3190  009B  0820               	movf	?___wmul,w
  3191  009C  0726               	addwf	??_agregarModificarPrecio+2,w
  3192  009D  00AA               	movwf	??_agregarModificarPrecio+6
  3193  009E  0821               	movf	?___wmul+1,w
  3194  009F  1803               	skipnc
  3195  00A0  0A21               	incf	?___wmul+1,w
  3196  00A1  0727               	addwf	??_agregarModificarPrecio+3,w
  3197  00A2  00AB               	movwf	??_agregarModificarPrecio+7
  3198  00A3  0867               	movf	_codigoEntrada+5,w
  3199  00A4  072A               	addwf	??_agregarModificarPrecio+6,w
  3200  00A5  00AC               	movwf	??_agregarModificarPrecio+8
  3201  00A6  3000               	movlw	0
  3202  00A7  1803               	skipnc
  3203  00A8  3001               	movlw	1
  3204  00A9  072B               	addwf	??_agregarModificarPrecio+7,w
  3205  00AA  00AD               	movwf	??_agregarModificarPrecio+9
  3206  00AB  082C               	movf	??_agregarModificarPrecio+8,w
  3207  00AC  3E30               	addlw	48
  3208  00AD  00B0               	movwf	agregarModificarPrecio@precio
  3209  00AE  082D               	movf	??_agregarModificarPrecio+9,w
  3210  00AF  1803               	skipnc
  3211  00B0  3E01               	addlw	1
  3212  00B1  3EEB               	addlw	235
  3213  00B2  00B1               	movwf	agregarModificarPrecio@precio+1
  3214  00B3                     l2147:	
  3215                           
  3216                           ;manejoProductos.c: 75:         lower_8bits = precio & 0xff;
  3217  00B3  0830               	movf	agregarModificarPrecio@precio,w
  3218  00B4  00A4               	movwf	??_agregarModificarPrecio
  3219  00B5  0824               	movf	??_agregarModificarPrecio,w
  3220  00B6  00AE               	movwf	agregarModificarPrecio@lower_8bits
  3221  00B7                     l2149:	
  3222                           
  3223                           ;manejoProductos.c: 76:         upper_8bits = (precio >> 8) & 0xff;
  3224  00B7  0831               	movf	agregarModificarPrecio@precio+1,w
  3225  00B8  00A4               	movwf	??_agregarModificarPrecio
  3226  00B9  0824               	movf	??_agregarModificarPrecio,w
  3227  00BA  00AF               	movwf	agregarModificarPrecio@upper_8bits
  3228  00BB                     l2151:	
  3229                           
  3230                           ;manejoProductos.c: 77:         eeprom_write(tp ,upper_8bits);
  3231  00BB  082F               	movf	agregarModificarPrecio@upper_8bits,w
  3232  00BC  00A4               	movwf	??_agregarModificarPrecio
  3233  00BD  0824               	movf	??_agregarModificarPrecio,w
  3234  00BE  00F4               	movwf	eeprom_write@value
  3235  00BF  0832               	movf	agregarModificarPrecio@tp,w
  3236  00C0  120A  118A  273E  120A  118A  	fcall	_eeprom_write
  3237  00C5                     l2153:	
  3238                           
  3239                           ;manejoProductos.c: 78:         eeprom_write(tp + 1,lower_8bits);
  3240  00C5  1283               	bcf	3,5	;RP0=0, select bank0
  3241  00C6  1303               	bcf	3,6	;RP1=0, select bank0
  3242  00C7  082E               	movf	agregarModificarPrecio@lower_8bits,w
  3243  00C8  00A4               	movwf	??_agregarModificarPrecio
  3244  00C9  0824               	movf	??_agregarModificarPrecio,w
  3245  00CA  00F4               	movwf	eeprom_write@value
  3246  00CB  0832               	movf	agregarModificarPrecio@tp,w
  3247  00CC  3E01               	addlw	1
  3248  00CD  120A  118A  273E  120A  118A  	fcall	_eeprom_write
  3249                           
  3250                           ;manejoProductos.c: 80:     }
  3251  00D2  2934               	goto	l223
  3252  00D3                     l2155:	
  3253                           
  3254                           ;manejoProductos.c: 82:         precio = 100 * (codigoEntrada[3] - '0')+ 10 * (codigoEnt
      +                          rada[4] - '0') + (codigoEntrada[5] - '0');
  3255  00D3  1283               	bcf	3,5	;RP0=0, select bank0
  3256  00D4  1303               	bcf	3,6	;RP1=0, select bank0
  3257  00D5  0865               	movf	_codigoEntrada+3,w
  3258  00D6  00A4               	movwf	??_agregarModificarPrecio
  3259  00D7  01A5               	clrf	??_agregarModificarPrecio+1
  3260  00D8  0824               	movf	??_agregarModificarPrecio,w
  3261  00D9  00A0               	movwf	___wmul@multiplier
  3262  00DA  0825               	movf	??_agregarModificarPrecio+1,w
  3263  00DB  00A1               	movwf	___wmul@multiplier+1
  3264  00DC  3064               	movlw	100
  3265  00DD  00A2               	movwf	___wmul@multiplicand
  3266  00DE  3000               	movlw	0
  3267  00DF  00A3               	movwf	___wmul@multiplicand+1
  3268  00E0  120A  118A  2799  120A  118A  	fcall	___wmul
  3269  00E5  1283               	bcf	3,5	;RP0=0, select bank0
  3270  00E6  1303               	bcf	3,6	;RP1=0, select bank0
  3271  00E7  0820               	movf	?___wmul,w
  3272  00E8  00A6               	movwf	??_agregarModificarPrecio+2
  3273  00E9  0821               	movf	?___wmul+1,w
  3274  00EA  00A7               	movwf	??_agregarModificarPrecio+3
  3275  00EB  0866               	movf	_codigoEntrada+4,w
  3276  00EC  00A8               	movwf	??_agregarModificarPrecio+4
  3277  00ED  01A9               	clrf	??_agregarModificarPrecio+5
  3278  00EE  0828               	movf	??_agregarModificarPrecio+4,w
  3279  00EF  00A0               	movwf	___wmul@multiplier
  3280  00F0  0829               	movf	??_agregarModificarPrecio+5,w
  3281  00F1  00A1               	movwf	___wmul@multiplier+1
  3282  00F2  300A               	movlw	10
  3283  00F3  00A2               	movwf	___wmul@multiplicand
  3284  00F4  3000               	movlw	0
  3285  00F5  00A3               	movwf	___wmul@multiplicand+1
  3286  00F6  120A  118A  2799  120A  118A  	fcall	___wmul
  3287  00FB  1283               	bcf	3,5	;RP0=0, select bank0
  3288  00FC  1303               	bcf	3,6	;RP1=0, select bank0
  3289  00FD  0820               	movf	?___wmul,w
  3290  00FE  0726               	addwf	??_agregarModificarPrecio+2,w
  3291  00FF  00AA               	movwf	??_agregarModificarPrecio+6
  3292  0100  0821               	movf	?___wmul+1,w
  3293  0101  1803               	skipnc
  3294  0102  0A21               	incf	?___wmul+1,w
  3295  0103  0727               	addwf	??_agregarModificarPrecio+3,w
  3296  0104  00AB               	movwf	??_agregarModificarPrecio+7
  3297  0105  0867               	movf	_codigoEntrada+5,w
  3298  0106  072A               	addwf	??_agregarModificarPrecio+6,w
  3299  0107  00AC               	movwf	??_agregarModificarPrecio+8
  3300  0108  3000               	movlw	0
  3301  0109  1803               	skipnc
  3302  010A  3001               	movlw	1
  3303  010B  072B               	addwf	??_agregarModificarPrecio+7,w
  3304  010C  00AD               	movwf	??_agregarModificarPrecio+9
  3305  010D  082C               	movf	??_agregarModificarPrecio+8,w
  3306  010E  3E30               	addlw	48
  3307  010F  00B0               	movwf	agregarModificarPrecio@precio
  3308  0110  082D               	movf	??_agregarModificarPrecio+9,w
  3309  0111  1803               	skipnc
  3310  0112  3E01               	addlw	1
  3311  0113  3EEB               	addlw	235
  3312  0114  00B1               	movwf	agregarModificarPrecio@precio+1
  3313  0115                     l2157:	
  3314                           
  3315                           ;manejoProductos.c: 83:         lower_8bits = precio & 0xff;
  3316  0115  0830               	movf	agregarModificarPrecio@precio,w
  3317  0116  00A4               	movwf	??_agregarModificarPrecio
  3318  0117  0824               	movf	??_agregarModificarPrecio,w
  3319  0118  00AE               	movwf	agregarModificarPrecio@lower_8bits
  3320  0119                     l2159:	
  3321                           
  3322                           ;manejoProductos.c: 84:         upper_8bits = (precio >> 8) & 0xff;
  3323  0119  0831               	movf	agregarModificarPrecio@precio+1,w
  3324  011A  00A4               	movwf	??_agregarModificarPrecio
  3325  011B  0824               	movf	??_agregarModificarPrecio,w
  3326  011C  00AF               	movwf	agregarModificarPrecio@upper_8bits
  3327  011D                     l2161:	
  3328                           
  3329                           ;manejoProductos.c: 85:         eeprom_write(tp ,upper_8bits);
  3330  011D  082F               	movf	agregarModificarPrecio@upper_8bits,w
  3331  011E  00A4               	movwf	??_agregarModificarPrecio
  3332  011F  0824               	movf	??_agregarModificarPrecio,w
  3333  0120  00F4               	movwf	eeprom_write@value
  3334  0121  0832               	movf	agregarModificarPrecio@tp,w
  3335  0122  120A  118A  273E  120A  118A  	fcall	_eeprom_write
  3336  0127                     l2163:	
  3337                           
  3338                           ;manejoProductos.c: 86:         eeprom_write(tp + 1,lower_8bits);
  3339  0127  1283               	bcf	3,5	;RP0=0, select bank0
  3340  0128  1303               	bcf	3,6	;RP1=0, select bank0
  3341  0129  082E               	movf	agregarModificarPrecio@lower_8bits,w
  3342  012A  00A4               	movwf	??_agregarModificarPrecio
  3343  012B  0824               	movf	??_agregarModificarPrecio,w
  3344  012C  00F4               	movwf	eeprom_write@value
  3345  012D  0832               	movf	agregarModificarPrecio@tp,w
  3346  012E  3E01               	addlw	1
  3347  012F  120A  118A  273E  120A  118A  	fcall	_eeprom_write
  3348  0134                     l223:	
  3349  0134  0008               	return
  3350  0135                     __end_of_agregarModificarPrecio:	
  3351                           
  3352                           	psect	text15
  3353  073E                     __ptext15:	
  3354 ;; *************** function _eeprom_write *****************
  3355 ;; Defined at:
  3356 ;;		line 6 in file "C:\Program Files (x86)\Microchip\xc8\v2.10\pic\sources\c90\pic\__eewrite.c"
  3357 ;; Parameters:    Size  Location     Type
  3358 ;;  addr            1    wreg     unsigned char 
  3359 ;;  value           1    4[COMMON] unsigned char 
  3360 ;; Auto vars:     Size  Location     Type
  3361 ;;  addr            1    0[BANK0 ] unsigned char 
  3362 ;; Return value:  Size  Location     Type
  3363 ;;                  1    wreg      void 
  3364 ;; Registers used:
  3365 ;;		wreg, status,2, status,0
  3366 ;; Tracked objects:
  3367 ;;		On entry : 0/0
  3368 ;;		On exit  : 0/0
  3369 ;;		Unchanged: 0/0
  3370 ;; Data sizes:     COMMON   BANK0   BANK1   BANK3   BANK2
  3371 ;;      Params:         1       0       0       0       0
  3372 ;;      Locals:         0       1       0       0       0
  3373 ;;      Temps:          1       0       0       0       0
  3374 ;;      Totals:         2       1       0       0       0
  3375 ;;Total ram usage:        3 bytes
  3376 ;; Hardware stack levels used:    1
  3377 ;; Hardware stack levels required when called:    1
  3378 ;; This function calls:
  3379 ;;		Nothing
  3380 ;; This function is called by:
  3381 ;;		_agregarModificarPrecio
  3382 ;; This function uses a non-reentrant model
  3383 ;;
  3384                           
  3385                           
  3386                           ;psect for function _eeprom_write
  3387  073E                     _eeprom_write:	
  3388                           
  3389                           ;incstack = 0
  3390                           ; Regs used in _eeprom_write: [wreg+status,2+status,0]
  3391                           ;eeprom_write@addr stored from wreg
  3392  073E  1283               	bcf	3,5	;RP0=0, select bank0
  3393  073F  1303               	bcf	3,6	;RP1=0, select bank0
  3394  0740  00A0               	movwf	eeprom_write@addr
  3395  0741                     l412:	
  3396                           ;C:\Program Files (x86)\Microchip\xc8\v2.10\pic\sources\c90\pic\__eewrite.c: 6: eeprom_w
      +                          rite(unsigned char addr, unsigned char value);C:\Program Files (x86)\Microchip\xc8\v2.10
      +                          \pic\sources\c90\pic\__eewrite.c: 7: {;C:\Program Files (x86)\Microchip\xc8\v2.10\pic\so
      +                          urces\c90\pic\__eewrite.c: 8:  do{ while (EECON1bits.WR) { continue; } EEADR = (addr); E
      +                          EDATA = (value); EECON1 &= 0x3F; STATUSbits.CARRY = 0; if (INTCONbits.GIE) { STATUSbits.
      +                          CARRY = 1; } INTCONbits.GIE = 0; EECON1bits.WREN = 1; EECON2 = 0x55; EECON2 = 0xAA; EECO
      +                          N1bits.WR = 1; EECON1bits.WREN = 0; if (STATUSbits.CARRY) { INTCONbits.GIE = 1; } } whil
      +                          e (0);
  3397                           
  3398  0741                     l413:	
  3399  0741  1683               	bsf	3,5	;RP0=1, select bank3
  3400  0742  1703               	bsf	3,6	;RP1=1, select bank3
  3401  0743  188C               	btfsc	12,1	;volsfr
  3402  0744  2F46               	goto	u1951
  3403  0745  2F47               	goto	u1950
  3404  0746                     u1951:	
  3405  0746  2F41               	goto	l413
  3406  0747                     u1950:	
  3407  0747                     l2055:	
  3408  0747  1283               	bcf	3,5	;RP0=0, select bank0
  3409  0748  1303               	bcf	3,6	;RP1=0, select bank0
  3410  0749  0820               	movf	eeprom_write@addr,w
  3411  074A  1283               	bcf	3,5	;RP0=0, select bank2
  3412  074B  1703               	bsf	3,6	;RP1=1, select bank2
  3413  074C  008D               	movwf	13	;volatile
  3414  074D  0874               	movf	eeprom_write@value,w
  3415  074E  008C               	movwf	12	;volatile
  3416  074F                     l2057:	
  3417  074F  303F               	movlw	63
  3418  0750  00F5               	movwf	??_eeprom_write
  3419  0751  0875               	movf	??_eeprom_write,w
  3420  0752  1683               	bsf	3,5	;RP0=1, select bank3
  3421  0753  1703               	bsf	3,6	;RP1=1, select bank3
  3422  0754  058C               	andwf	12,f	;volsfr
  3423  0755                     l2059:	
  3424  0755  1283               	bcf	3,5	;RP0=0, select bank0
  3425  0756  1303               	bcf	3,6	;RP1=0, select bank0
  3426  0757  1003               	bcf	3,0	;volatile
  3427  0758                     l2061:	
  3428  0758  1F8B               	btfss	11,7	;volatile
  3429  0759  2F5B               	goto	u1961
  3430  075A  2F5C               	goto	u1960
  3431  075B                     u1961:	
  3432  075B  2F5D               	goto	l416
  3433  075C                     u1960:	
  3434  075C                     l2063:	
  3435  075C  1403               	bsf	3,0	;volatile
  3436  075D                     l416:	
  3437  075D  138B               	bcf	11,7	;volatile
  3438  075E  1683               	bsf	3,5	;RP0=1, select bank3
  3439  075F  1703               	bsf	3,6	;RP1=1, select bank3
  3440  0760  150C               	bsf	12,2	;volsfr
  3441  0761                     l2065:	
  3442  0761  3055               	movlw	85
  3443  0762  008D               	movwf	13	;volsfr
  3444  0763  30AA               	movlw	170
  3445  0764  008D               	movwf	13	;volsfr
  3446  0765                     l2067:	
  3447  0765  148C               	bsf	12,1	;volsfr
  3448  0766                     l2069:	
  3449  0766  110C               	bcf	12,2	;volsfr
  3450  0767                     l2071:	
  3451  0767  1283               	bcf	3,5	;RP0=0, select bank0
  3452  0768  1303               	bcf	3,6	;RP1=0, select bank0
  3453  0769  1C03               	btfss	3,0	;volatile
  3454  076A  2F6C               	goto	u1971
  3455  076B  2F6D               	goto	u1970
  3456  076C                     u1971:	
  3457  076C  2F6E               	goto	l419
  3458  076D                     u1970:	
  3459  076D                     l2073:	
  3460  076D  178B               	bsf	11,7	;volatile
  3461  076E                     l419:	
  3462  076E  0008               	return
  3463  076F                     __end_of_eeprom_write:	
  3464                           
  3465                           	psect	text16
  3466  07E5                     __ptext16:	
  3467 ;; *************** function _eeprom_read *****************
  3468 ;; Defined at:
  3469 ;;		line 6 in file "C:\Program Files (x86)\Microchip\xc8\v2.10\pic\sources\c90\pic\__eeread.c"
  3470 ;; Parameters:    Size  Location     Type
  3471 ;;  addr            1    wreg     unsigned char 
  3472 ;; Auto vars:     Size  Location     Type
  3473 ;;  addr            1    5[COMMON] unsigned char 
  3474 ;; Return value:  Size  Location     Type
  3475 ;;                  1    wreg      unsigned char 
  3476 ;; Registers used:
  3477 ;;		wreg, status,2, status,0
  3478 ;; Tracked objects:
  3479 ;;		On entry : 0/0
  3480 ;;		On exit  : 0/0
  3481 ;;		Unchanged: 0/0
  3482 ;; Data sizes:     COMMON   BANK0   BANK1   BANK3   BANK2
  3483 ;;      Params:         0       0       0       0       0
  3484 ;;      Locals:         1       0       0       0       0
  3485 ;;      Temps:          1       0       0       0       0
  3486 ;;      Totals:         2       0       0       0       0
  3487 ;;Total ram usage:        2 bytes
  3488 ;; Hardware stack levels used:    1
  3489 ;; Hardware stack levels required when called:    1
  3490 ;; This function calls:
  3491 ;;		Nothing
  3492 ;; This function is called by:
  3493 ;;		_EEPROM_search
  3494 ;;		_agregarModificarPrecio
  3495 ;; This function uses a non-reentrant model
  3496 ;;
  3497                           
  3498                           
  3499                           ;psect for function _eeprom_read
  3500  07E5                     _eeprom_read:	
  3501                           
  3502                           ;incstack = 0
  3503                           ; Regs used in _eeprom_read: [wreg+status,2+status,0]
  3504                           ;eeprom_read@addr stored from wreg
  3505  07E5  00F5               	movwf	eeprom_read@addr
  3506  07E6                     l393:	
  3507                           ;C:\Program Files (x86)\Microchip\xc8\v2.10\pic\sources\c90\pic\__eeread.c: 6: eeprom_re
      +                          ad(unsigned char addr);C:\Program Files (x86)\Microchip\xc8\v2.10\pic\sources\c90\pic\__
      +                          eeread.c: 7: {;C:\Program Files (x86)\Microchip\xc8\v2.10\pic\sources\c90\pic\__eeread.c
      +                          : 8:  do
  3508                           
  3509  07E6  0064               	clrwdt	;# 
  3510  07E7  1683               	bsf	3,5	;RP0=1, select bank3
  3511  07E8  1703               	bsf	3,6	;RP1=1, select bank3
  3512  07E9  188C               	btfsc	12,1	;volsfr
  3513  07EA  2FEC               	goto	u991
  3514  07EB  2FED               	goto	u990
  3515  07EC                     u991:	
  3516  07EC  2FE6               	goto	l393
  3517  07ED                     u990:	
  3518  07ED                     l1491:	
  3519                           
  3520                           ;C:\Program Files (x86)\Microchip\xc8\v2.10\pic\sources\c90\pic\__eeread.c: 18:  return 
      +                          ( EEADR = addr, EECON1 &= 0x3F, EECON1bits.RD = 1, EEDATA);
  3521  07ED  0875               	movf	eeprom_read@addr,w
  3522  07EE  1283               	bcf	3,5	;RP0=0, select bank2
  3523  07EF  1703               	bsf	3,6	;RP1=1, select bank2
  3524  07F0  008D               	movwf	13	;volatile
  3525  07F1  303F               	movlw	63
  3526  07F2  00F4               	movwf	??_eeprom_read
  3527  07F3  0874               	movf	??_eeprom_read,w
  3528  07F4  1683               	bsf	3,5	;RP0=1, select bank3
  3529  07F5  1703               	bsf	3,6	;RP1=1, select bank3
  3530  07F6  058C               	andwf	12,f	;volsfr
  3531  07F7  140C               	bsf	12,0	;volsfr
  3532  07F8  1283               	bcf	3,5	;RP0=0, select bank2
  3533  07F9  1703               	bsf	3,6	;RP1=1, select bank2
  3534  07FA  080C               	movf	12,w	;volatile
  3535  07FB                     l395:	
  3536  07FB  0008               	return
  3537  07FC                     __end_of_eeprom_read:	
  3538                           
  3539                           	psect	text17
  3540  0FC9                     __ptext17:	
  3541 ;; *************** function ___bmul *****************
  3542 ;; Defined at:
  3543 ;;		line 4 in file "C:\Program Files (x86)\Microchip\xc8\v2.10\pic\sources\c90\common\Umul8.c"
  3544 ;; Parameters:    Size  Location     Type
  3545 ;;  multiplier      1    wreg     unsigned char 
  3546 ;;  multiplicand    1    4[COMMON] unsigned char 
  3547 ;; Auto vars:     Size  Location     Type
  3548 ;;  multiplier      1    1[BANK0 ] unsigned char 
  3549 ;;  product         1    0[BANK0 ] unsigned char 
  3550 ;; Return value:  Size  Location     Type
  3551 ;;                  1    wreg      unsigned char 
  3552 ;; Registers used:
  3553 ;;		wreg, status,2, status,0
  3554 ;; Tracked objects:
  3555 ;;		On entry : 0/0
  3556 ;;		On exit  : 0/0
  3557 ;;		Unchanged: 0/0
  3558 ;; Data sizes:     COMMON   BANK0   BANK1   BANK3   BANK2
  3559 ;;      Params:         1       0       0       0       0
  3560 ;;      Locals:         0       2       0       0       0
  3561 ;;      Temps:          1       0       0       0       0
  3562 ;;      Totals:         2       2       0       0       0
  3563 ;;Total ram usage:        4 bytes
  3564 ;; Hardware stack levels used:    1
  3565 ;; Hardware stack levels required when called:    1
  3566 ;; This function calls:
  3567 ;;		Nothing
  3568 ;; This function is called by:
  3569 ;;		_lecturaEtiqueta
  3570 ;;		_agregarModificarPrecio
  3571 ;; This function uses a non-reentrant model
  3572 ;;
  3573                           
  3574                           
  3575                           ;psect for function ___bmul
  3576  0FC9                     ___bmul:	
  3577                           
  3578                           ;incstack = 0
  3579                           ; Regs used in ___bmul: [wreg+status,2+status,0]
  3580                           ;___bmul@multiplier stored from wreg
  3581  0FC9  1283               	bcf	3,5	;RP0=0, select bank0
  3582  0FCA  1303               	bcf	3,6	;RP1=0, select bank0
  3583  0FCB  00A1               	movwf	___bmul@multiplier
  3584  0FCC                     l2075:	
  3585  0FCC  01A0               	clrf	___bmul@product
  3586  0FCD                     l2077:	
  3587  0FCD  1C21               	btfss	___bmul@multiplier,0
  3588  0FCE  2FD0               	goto	u1981
  3589  0FCF  2FD1               	goto	u1980
  3590  0FD0                     u1981:	
  3591  0FD0  2FD5               	goto	l2081
  3592  0FD1                     u1980:	
  3593  0FD1                     l2079:	
  3594  0FD1  0874               	movf	___bmul@multiplicand,w
  3595  0FD2  00F5               	movwf	??___bmul
  3596  0FD3  0875               	movf	??___bmul,w
  3597  0FD4  07A0               	addwf	___bmul@product,f
  3598  0FD5                     l2081:	
  3599  0FD5  1003               	clrc
  3600  0FD6  0DF4               	rlf	___bmul@multiplicand,f
  3601  0FD7                     l2083:	
  3602  0FD7  1003               	clrc
  3603  0FD8  0CA1               	rrf	___bmul@multiplier,f
  3604  0FD9  0821               	movf	___bmul@multiplier,w
  3605  0FDA  1D03               	btfss	3,2
  3606  0FDB  2FDD               	goto	u1991
  3607  0FDC  2FDE               	goto	u1990
  3608  0FDD                     u1991:	
  3609  0FDD  2FCD               	goto	l2077
  3610  0FDE                     u1990:	
  3611  0FDE                     l2085:	
  3612  0FDE  0820               	movf	___bmul@product,w
  3613  0FDF                     l449:	
  3614  0FDF  0008               	return
  3615  0FE0                     __end_of___bmul:	
  3616                           
  3617                           	psect	text18
  3618  05A7                     __ptext18:	
  3619 ;; *************** function _lecturaConsulta *****************
  3620 ;; Defined at:
  3621 ;;		line 109 in file "lectura.c"
  3622 ;; Parameters:    Size  Location     Type
  3623 ;;		None
  3624 ;; Auto vars:     Size  Location     Type
  3625 ;;  articulo        2    0        unsigned short 
  3626 ;; Return value:  Size  Location     Type
  3627 ;;                  1    wreg      void 
  3628 ;; Registers used:
  3629 ;;		wreg, status,2, status,0, pclath, cstack
  3630 ;; Tracked objects:
  3631 ;;		On entry : 0/0
  3632 ;;		On exit  : 0/0
  3633 ;;		Unchanged: 0/0
  3634 ;; Data sizes:     COMMON   BANK0   BANK1   BANK3   BANK2
  3635 ;;      Params:         0       0       0       0       0
  3636 ;;      Locals:         0       2       0       0       0
  3637 ;;      Temps:          0       2       0       0       0
  3638 ;;      Totals:         0       4       0       0       0
  3639 ;;Total ram usage:        4 bytes
  3640 ;; Hardware stack levels used:    1
  3641 ;; Hardware stack levels required when called:    2
  3642 ;; This function calls:
  3643 ;;		___wmul
  3644 ;; This function is called by:
  3645 ;;		_lecturaComando
  3646 ;; This function uses a non-reentrant model
  3647 ;;
  3648                           
  3649                           
  3650                           ;psect for function _lecturaConsulta
  3651  05A7                     _lecturaConsulta:	
  3652  05A7                     l2283:	
  3653                           ;incstack = 0
  3654                           ; Regs used in _lecturaConsulta: [wreg+status,2+status,0+pclath+cstack]
  3655                           
  3656                           
  3657                           ;lectura.c: 111:     if (codigoEntrada[1] == 0x0D || codigoEntrada[1] == 0x0A) {
  3658  05A7  300D               	movlw	13
  3659  05A8  1283               	bcf	3,5	;RP0=0, select bank0
  3660  05A9  1303               	bcf	3,6	;RP1=0, select bank0
  3661  05AA  0663               	xorwf	_codigoEntrada+1,w
  3662  05AB  1903               	btfsc	3,2
  3663  05AC  2DAE               	goto	u2331
  3664  05AD  2DAF               	goto	u2330
  3665  05AE                     u2331:	
  3666  05AE  2DB6               	goto	l2287
  3667  05AF                     u2330:	
  3668  05AF                     l2285:	
  3669  05AF  300A               	movlw	10
  3670  05B0  0663               	xorwf	_codigoEntrada+1,w
  3671  05B1  1D03               	btfss	3,2
  3672  05B2  2DB4               	goto	u2341
  3673  05B3  2DB5               	goto	u2340
  3674  05B4                     u2341:	
  3675  05B4  2DB7               	goto	l2291
  3676  05B5                     u2340:	
  3677  05B5  2DE6               	goto	l174
  3678  05B6                     l2287:	
  3679  05B6  2DE6               	goto	l174
  3680  05B7                     l2291:	
  3681  05B7  304C               	movlw	76
  3682  05B8  0663               	xorwf	_codigoEntrada+1,w
  3683  05B9  1D03               	btfss	3,2
  3684  05BA  2DBC               	goto	u2351
  3685  05BB  2DBD               	goto	u2350
  3686  05BC                     u2351:	
  3687  05BC  2DBE               	goto	l2295
  3688  05BD                     u2350:	
  3689  05BD  2DE6               	goto	l174
  3690  05BE                     l2295:	
  3691  05BE  303A               	movlw	58
  3692  05BF  0263               	subwf	_codigoEntrada+1,w
  3693  05C0  1803               	skipnc
  3694  05C1  2DC3               	goto	u2361
  3695  05C2  2DC4               	goto	u2360
  3696  05C3                     u2361:	
  3697  05C3  2DE6               	goto	l174
  3698  05C4                     u2360:	
  3699  05C4                     l2297:	
  3700  05C4  3030               	movlw	48
  3701  05C5  0263               	subwf	_codigoEntrada+1,w
  3702  05C6  1C03               	skipc
  3703  05C7  2DC9               	goto	u2371
  3704  05C8  2DCA               	goto	u2370
  3705  05C9                     u2371:	
  3706  05C9  2DE6               	goto	l174
  3707  05CA                     u2370:	
  3708  05CA                     l2299:	
  3709  05CA  303A               	movlw	58
  3710  05CB  0264               	subwf	_codigoEntrada+2,w
  3711  05CC  1803               	skipnc
  3712  05CD  2DCF               	goto	u2381
  3713  05CE  2DD0               	goto	u2380
  3714  05CF                     u2381:	
  3715  05CF  2DE6               	goto	l174
  3716  05D0                     u2380:	
  3717  05D0                     l2301:	
  3718  05D0  3030               	movlw	48
  3719  05D1  0264               	subwf	_codigoEntrada+2,w
  3720  05D2  1C03               	skipc
  3721  05D3  2DD5               	goto	u2391
  3722  05D4  2DD6               	goto	u2390
  3723  05D5                     u2391:	
  3724  05D5  2DE6               	goto	l174
  3725  05D6                     u2390:	
  3726  05D6                     l2303:	
  3727  05D6  0863               	movf	_codigoEntrada+1,w
  3728  05D7  00A4               	movwf	??_lecturaConsulta
  3729  05D8  01A5               	clrf	??_lecturaConsulta+1
  3730  05D9  0824               	movf	??_lecturaConsulta,w
  3731  05DA  00A0               	movwf	___wmul@multiplier
  3732  05DB  0825               	movf	??_lecturaConsulta+1,w
  3733  05DC  00A1               	movwf	___wmul@multiplier+1
  3734  05DD  300A               	movlw	10
  3735  05DE  00A2               	movwf	___wmul@multiplicand
  3736  05DF  3000               	movlw	0
  3737  05E0  00A3               	movwf	___wmul@multiplicand+1
  3738  05E1  120A  118A  2799  120A  118A  	fcall	___wmul
  3739  05E6                     l174:	
  3740  05E6  0008               	return
  3741  05E7                     __end_of_lecturaConsulta:	
  3742                           
  3743                           	psect	text19
  3744  07C0                     __ptext19:	
  3745 ;; *************** function _accionesDeshacer *****************
  3746 ;; Defined at:
  3747 ;;		line 22 in file "acciones.c"
  3748 ;; Parameters:    Size  Location     Type
  3749 ;;		None
  3750 ;; Auto vars:     Size  Location     Type
  3751 ;;		None
  3752 ;; Return value:  Size  Location     Type
  3753 ;;                  1    wreg      void 
  3754 ;; Registers used:
  3755 ;;		wreg, fsr0l, fsr0h, status,2, status,0, pclath, cstack
  3756 ;; Tracked objects:
  3757 ;;		On entry : 0/0
  3758 ;;		On exit  : 0/0
  3759 ;;		Unchanged: 0/0
  3760 ;; Data sizes:     COMMON   BANK0   BANK1   BANK3   BANK2
  3761 ;;      Params:         0       0       0       0       0
  3762 ;;      Locals:         0       0       0       0       0
  3763 ;;      Temps:          0       0       0       0       0
  3764 ;;      Totals:         0       0       0       0       0
  3765 ;;Total ram usage:        0 bytes
  3766 ;; Hardware stack levels used:    1
  3767 ;; Hardware stack levels required when called:    4
  3768 ;; This function calls:
  3769 ;;		_eliminarProd
  3770 ;;		_mostrarDigitos
  3771 ;; This function is called by:
  3772 ;;		_main
  3773 ;; This function uses a non-reentrant model
  3774 ;;
  3775                           
  3776                           
  3777                           ;psect for function _accionesDeshacer
  3778  07C0                     _accionesDeshacer:	
  3779  07C0                     l2457:	
  3780                           ;incstack = 0
  3781                           ; Regs used in _accionesDeshacer: [wreg-fsr0h+status,2+status,0+pclath+cstack]
  3782                           
  3783                           
  3784                           ;acciones.c: 23:     if (cuenta != auxCuenta){
  3785  07C0  1283               	bcf	3,5	;RP0=0, select bank0
  3786  07C1  1303               	bcf	3,6	;RP1=0, select bank0
  3787  07C2  085E               	movf	_auxCuenta+1,w
  3788  07C3  0660               	xorwf	_cuenta+1,w
  3789  07C4  1D03               	skipz
  3790  07C5  2FC8               	goto	u2595
  3791  07C6  085D               	movf	_auxCuenta,w
  3792  07C7  065F               	xorwf	_cuenta,w
  3793  07C8                     u2595:	
  3794  07C8  1903               	skipnz
  3795  07C9  2FCB               	goto	u2591
  3796  07CA  2FCC               	goto	u2590
  3797  07CB                     u2591:	
  3798  07CB  2FE4               	goto	l291
  3799  07CC                     u2590:	
  3800  07CC                     l2459:	
  3801                           
  3802                           ;acciones.c: 24:         cuenta = auxCuenta;
  3803  07CC  085E               	movf	_auxCuenta+1,w
  3804  07CD  00E0               	movwf	_cuenta+1
  3805  07CE  085D               	movf	_auxCuenta,w
  3806  07CF  00DF               	movwf	_cuenta
  3807  07D0                     l2461:	
  3808                           
  3809                           ;acciones.c: 26:         eliminarProd(productoIngresado);
  3810  07D0  085A               	movf	_productoIngresado+1,w
  3811  07D1  00AD               	movwf	eliminarProd@tp+1
  3812  07D2  0859               	movf	_productoIngresado,w
  3813  07D3  00AC               	movwf	eliminarProd@tp
  3814  07D4  120A  118A  240A  120A  118A  	fcall	_eliminarProd
  3815  07D9                     l2463:	
  3816                           
  3817                           ;acciones.c: 27:         mostrarDigitos(cuenta);
  3818  07D9  1283               	bcf	3,5	;RP0=0, select bank0
  3819  07DA  1303               	bcf	3,6	;RP1=0, select bank0
  3820  07DB  0860               	movf	_cuenta+1,w
  3821  07DC  00AD               	movwf	mostrarDigitos@num+1
  3822  07DD  085F               	movf	_cuenta,w
  3823  07DE  00AC               	movwf	mostrarDigitos@num
  3824  07DF  120A  118A  22DD  120A  118A  	fcall	_mostrarDigitos
  3825  07E4                     l291:	
  3826  07E4  0008               	return
  3827  07E5                     __end_of_accionesDeshacer:	
  3828                           
  3829                           	psect	text20
  3830  040A                     __ptext20:	
  3831 ;; *************** function _eliminarProd *****************
  3832 ;; Defined at:
  3833 ;;		line 51 in file "manejoProductos.c"
  3834 ;; Parameters:    Size  Location     Type
  3835 ;;  tp              2   12[BANK0 ] short 
  3836 ;; Auto vars:     Size  Location     Type
  3837 ;;  i               2   17[BANK0 ] short 
  3838 ;; Return value:  Size  Location     Type
  3839 ;;                  1    wreg      void 
  3840 ;; Registers used:
  3841 ;;		wreg, fsr0l, fsr0h, status,2, status,0, pclath, cstack
  3842 ;; Tracked objects:
  3843 ;;		On entry : 0/0
  3844 ;;		On exit  : 0/0
  3845 ;;		Unchanged: 0/0
  3846 ;; Data sizes:     COMMON   BANK0   BANK1   BANK3   BANK2
  3847 ;;      Params:         0       2       0       0       0
  3848 ;;      Locals:         0       2       0       0       0
  3849 ;;      Temps:          0       3       0       0       0
  3850 ;;      Totals:         0       7       0       0       0
  3851 ;;Total ram usage:        7 bytes
  3852 ;; Hardware stack levels used:    1
  3853 ;; Hardware stack levels required when called:    3
  3854 ;; This function calls:
  3855 ;;		_pow
  3856 ;; This function is called by:
  3857 ;;		_accionesDeshacer
  3858 ;; This function uses a non-reentrant model
  3859 ;;
  3860                           
  3861                           
  3862                           ;psect for function _eliminarProd
  3863  040A                     _eliminarProd:	
  3864  040A                     l2401:	
  3865                           ;incstack = 0
  3866                           ; Regs used in _eliminarProd: [wreg-fsr0h+status,2+status,0+pclath+cstack]
  3867                           
  3868                           
  3869                           ;manejoProductos.c: 52:         for(short int i = 12; i>=0; i--) {
  3870  040A  300C               	movlw	12
  3871  040B  1283               	bcf	3,5	;RP0=0, select bank0
  3872  040C  1303               	bcf	3,6	;RP1=0, select bank0
  3873  040D  00B1               	movwf	eliminarProd@i
  3874  040E  3000               	movlw	0
  3875  040F  00B2               	movwf	eliminarProd@i+1
  3876  0410                     l2407:	
  3877                           
  3878                           ;manejoProductos.c: 53:         if( tp >= 8*i) {
  3879  0410  0832               	movf	eliminarProd@i+1,w
  3880  0411  00AF               	movwf	??_eliminarProd+1
  3881  0412  0831               	movf	eliminarProd@i,w
  3882  0413  00AE               	movwf	??_eliminarProd
  3883  0414  1003               	clrc
  3884  0415  0DAE               	rlf	??_eliminarProd,f
  3885  0416  0DAF               	rlf	??_eliminarProd+1,f
  3886  0417  1003               	clrc
  3887  0418  0DAE               	rlf	??_eliminarProd,f
  3888  0419  0DAF               	rlf	??_eliminarProd+1,f
  3889  041A  1003               	clrc
  3890  041B  0DAE               	rlf	??_eliminarProd,f
  3891  041C  0DAF               	rlf	??_eliminarProd+1,f
  3892  041D  082D               	movf	eliminarProd@tp+1,w
  3893  041E  3A80               	xorlw	128
  3894  041F  00B0               	movwf	??_eliminarProd+2
  3895  0420  082F               	movf	??_eliminarProd+1,w
  3896  0421  3A80               	xorlw	128
  3897  0422  0230               	subwf	??_eliminarProd+2,w
  3898  0423  1D03               	skipz
  3899  0424  2C27               	goto	u2555
  3900  0425  082E               	movf	??_eliminarProd,w
  3901  0426  022C               	subwf	eliminarProd@tp,w
  3902  0427                     u2555:	
  3903  0427  1C03               	skipc
  3904  0428  2C2A               	goto	u2551
  3905  0429  2C2B               	goto	u2550
  3906  042A                     u2551:	
  3907  042A  2C5F               	goto	l2415
  3908  042B                     u2550:	
  3909  042B                     l2409:	
  3910                           
  3911                           ;manejoProductos.c: 55:             tp = tp - 8*i;
  3912  042B  1283               	bcf	3,5	;RP0=0, select bank0
  3913  042C  1303               	bcf	3,6	;RP1=0, select bank0
  3914  042D  0832               	movf	eliminarProd@i+1,w
  3915  042E  00AF               	movwf	??_eliminarProd+1
  3916  042F  0831               	movf	eliminarProd@i,w
  3917  0430  00AE               	movwf	??_eliminarProd
  3918  0431  1003               	clrc
  3919  0432  0DAE               	rlf	??_eliminarProd,f
  3920  0433  0DAF               	rlf	??_eliminarProd+1,f
  3921  0434  1003               	clrc
  3922  0435  0DAE               	rlf	??_eliminarProd,f
  3923  0436  0DAF               	rlf	??_eliminarProd+1,f
  3924  0437  1003               	clrc
  3925  0438  0DAE               	rlf	??_eliminarProd,f
  3926  0439  0DAF               	rlf	??_eliminarProd+1,f
  3927  043A  082E               	movf	??_eliminarProd,w
  3928  043B  022C               	subwf	eliminarProd@tp,w
  3929  043C  00AC               	movwf	eliminarProd@tp
  3930  043D  082F               	movf	??_eliminarProd+1,w
  3931  043E  1C03               	skipc
  3932  043F  0A2F               	incf	??_eliminarProd+1,w
  3933  0440  022D               	subwf	eliminarProd@tp+1,w
  3934  0441  00AD               	movwf	eliminarProd@tp+1
  3935  0442                     l2411:	
  3936                           
  3937                           ;manejoProductos.c: 56:             prodIngresados[i] = prodIngresados[i] ^ pow(2,tp);
  3938  0442  0831               	movf	eliminarProd@i,w
  3939  0443  3E48               	addlw	(low (_prodIngresados| 0))& (0+255)
  3940  0444  0084               	movwf	4
  3941  0445  3002               	movlw	2
  3942  0446  00A4               	movwf	pow@numero
  3943  0447  3000               	movlw	0
  3944  0448  00A5               	movwf	pow@numero+1
  3945  0449  082D               	movf	eliminarProd@tp+1,w
  3946  044A  00A7               	movwf	pow@potencia+1
  3947  044B  082C               	movf	eliminarProd@tp,w
  3948  044C  00A6               	movwf	pow@potencia
  3949  044D  120A  118A  269F  120A  118A  	fcall	_pow
  3950  0452  1283               	bcf	3,5	;RP0=0, select bank0
  3951  0453  1303               	bcf	3,6	;RP1=0, select bank0
  3952  0454  0824               	movf	?_pow,w
  3953  0455  1383               	bcf	3,7	;select IRP bank0
  3954  0456  0600               	xorwf	0,w
  3955  0457  00AE               	movwf	??_eliminarProd
  3956  0458  0831               	movf	eliminarProd@i,w
  3957  0459  3E48               	addlw	(low (_prodIngresados| 0))& (0+255)
  3958  045A  0084               	movwf	4
  3959  045B  082E               	movf	??_eliminarProd,w
  3960  045C  0080               	movwf	0
  3961  045D                     l2413:	
  3962                           
  3963                           ;manejoProductos.c: 57:             i = 0;
  3964  045D  01B1               	clrf	eliminarProd@i
  3965  045E  01B2               	clrf	eliminarProd@i+1
  3966  045F                     l2415:	
  3967                           
  3968                           ;manejoProductos.c: 60:     }
  3969  045F  30FF               	movlw	255
  3970  0460  1283               	bcf	3,5	;RP0=0, select bank0
  3971  0461  1303               	bcf	3,6	;RP1=0, select bank0
  3972  0462  07B1               	addwf	eliminarProd@i,f
  3973  0463  1803               	skipnc
  3974  0464  0AB2               	incf	eliminarProd@i+1,f
  3975  0465  30FF               	movlw	255
  3976  0466  07B2               	addwf	eliminarProd@i+1,f
  3977  0467                     l2417:	
  3978  0467  1FB2               	btfss	eliminarProd@i+1,7
  3979  0468  2C6A               	goto	u2561
  3980  0469  2C6B               	goto	u2560
  3981  046A                     u2561:	
  3982  046A  2C10               	goto	l2407
  3983  046B                     u2560:	
  3984  046B                     l216:	
  3985  046B  0008               	return
  3986  046C                     __end_of_eliminarProd:	
  3987                           
  3988                           	psect	text21
  3989  069F                     __ptext21:	
  3990 ;; *************** function _pow *****************
  3991 ;; Defined at:
  3992 ;;		line 7 in file "manejoProductos.c"
  3993 ;; Parameters:    Size  Location     Type
  3994 ;;  numero          2    4[BANK0 ] unsigned int 
  3995 ;;  potencia        2    6[BANK0 ] unsigned int 
  3996 ;; Auto vars:     Size  Location     Type
  3997 ;;  i               2    8[BANK0 ] int 
  3998 ;;  resultado       2   10[BANK0 ] unsigned int 
  3999 ;; Return value:  Size  Location     Type
  4000 ;;                  2    4[BANK0 ] unsigned int 
  4001 ;; Registers used:
  4002 ;;		wreg, status,2, status,0, pclath, cstack
  4003 ;; Tracked objects:
  4004 ;;		On entry : 0/0
  4005 ;;		On exit  : 0/0
  4006 ;;		Unchanged: 0/0
  4007 ;; Data sizes:     COMMON   BANK0   BANK1   BANK3   BANK2
  4008 ;;      Params:         0       4       0       0       0
  4009 ;;      Locals:         0       4       0       0       0
  4010 ;;      Temps:          0       0       0       0       0
  4011 ;;      Totals:         0       8       0       0       0
  4012 ;;Total ram usage:        8 bytes
  4013 ;; Hardware stack levels used:    1
  4014 ;; Hardware stack levels required when called:    2
  4015 ;; This function calls:
  4016 ;;		___wmul
  4017 ;; This function is called by:
  4018 ;;		_ingresoProd
  4019 ;;		_verificarProd
  4020 ;;		_eliminarProd
  4021 ;; This function uses a non-reentrant model
  4022 ;;
  4023                           
  4024                           
  4025                           ;psect for function _pow
  4026  069F                     _pow:	
  4027  069F                     l2039:	
  4028                           ;incstack = 0
  4029                           ; Regs used in _pow: [wreg+status,2+status,0+pclath+cstack]
  4030                           
  4031                           
  4032                           ;manejoProductos.c: 8:     unsigned int resultado = 0;
  4033  069F  1283               	bcf	3,5	;RP0=0, select bank0
  4034  06A0  1303               	bcf	3,6	;RP1=0, select bank0
  4035  06A1  01AA               	clrf	pow@resultado
  4036  06A2  01AB               	clrf	pow@resultado+1
  4037                           
  4038                           ;manejoProductos.c: 10:     for (int i = 0; i <= potencia; i++){
  4039  06A3  01A8               	clrf	pow@i
  4040  06A4  01A9               	clrf	pow@i+1
  4041  06A5  2ECA               	goto	l2049
  4042  06A6                     l2041:	
  4043                           
  4044                           ;manejoProductos.c: 11:         if (i == 0){
  4045  06A6  0828               	movf	pow@i,w
  4046  06A7  0429               	iorwf	pow@i+1,w
  4047  06A8  1D03               	btfss	3,2
  4048  06A9  2EAB               	goto	u1931
  4049  06AA  2EAC               	goto	u1930
  4050  06AB                     u1931:	
  4051  06AB  2EB1               	goto	l2045
  4052  06AC                     u1930:	
  4053  06AC                     l2043:	
  4054                           
  4055                           ;manejoProductos.c: 12:         resultado = 1;
  4056  06AC  3001               	movlw	1
  4057  06AD  00AA               	movwf	pow@resultado
  4058  06AE  3000               	movlw	0
  4059  06AF  00AB               	movwf	pow@resultado+1
  4060                           
  4061                           ;manejoProductos.c: 13:         }
  4062  06B0  2EC4               	goto	l2047
  4063  06B1                     l2045:	
  4064                           
  4065                           ;manejoProductos.c: 15:             resultado = resultado * numero;
  4066  06B1  082B               	movf	pow@resultado+1,w
  4067  06B2  00A1               	movwf	___wmul@multiplier+1
  4068  06B3  082A               	movf	pow@resultado,w
  4069  06B4  00A0               	movwf	___wmul@multiplier
  4070  06B5  0825               	movf	pow@numero+1,w
  4071  06B6  00A3               	movwf	___wmul@multiplicand+1
  4072  06B7  0824               	movf	pow@numero,w
  4073  06B8  00A2               	movwf	___wmul@multiplicand
  4074  06B9  120A  118A  2799  120A  118A  	fcall	___wmul
  4075  06BE  1283               	bcf	3,5	;RP0=0, select bank0
  4076  06BF  1303               	bcf	3,6	;RP1=0, select bank0
  4077  06C0  0821               	movf	?___wmul+1,w
  4078  06C1  00AB               	movwf	pow@resultado+1
  4079  06C2  0820               	movf	?___wmul,w
  4080  06C3  00AA               	movwf	pow@resultado
  4081  06C4                     l2047:	
  4082                           
  4083                           ;manejoProductos.c: 17:     }
  4084  06C4  3001               	movlw	1
  4085  06C5  07A8               	addwf	pow@i,f
  4086  06C6  1803               	skipnc
  4087  06C7  0AA9               	incf	pow@i+1,f
  4088  06C8  3000               	movlw	0
  4089  06C9  07A9               	addwf	pow@i+1,f
  4090  06CA                     l2049:	
  4091  06CA  0829               	movf	pow@i+1,w
  4092  06CB  0227               	subwf	pow@potencia+1,w
  4093  06CC  1D03               	skipz
  4094  06CD  2ED0               	goto	u1945
  4095  06CE  0828               	movf	pow@i,w
  4096  06CF  0226               	subwf	pow@potencia,w
  4097  06D0                     u1945:	
  4098  06D0  1803               	skipnc
  4099  06D1  2ED3               	goto	u1941
  4100  06D2  2ED4               	goto	u1940
  4101  06D3                     u1941:	
  4102  06D3  2EA6               	goto	l2041
  4103  06D4                     u1940:	
  4104  06D4                     l2051:	
  4105                           
  4106                           ;manejoProductos.c: 18:     return resultado;
  4107  06D4  082B               	movf	pow@resultado+1,w
  4108  06D5  00A5               	movwf	?_pow+1
  4109  06D6  082A               	movf	pow@resultado,w
  4110  06D7  00A4               	movwf	?_pow
  4111  06D8                     l197:	
  4112  06D8  0008               	return
  4113  06D9                     __end_of_pow:	
  4114                           
  4115                           	psect	text22
  4116  0799                     __ptext22:	
  4117 ;; *************** function ___wmul *****************
  4118 ;; Defined at:
  4119 ;;		line 15 in file "C:\Program Files (x86)\Microchip\xc8\v2.10\pic\sources\c90\common\Umul16.c"
  4120 ;; Parameters:    Size  Location     Type
  4121 ;;  multiplier      2    0[BANK0 ] unsigned int 
  4122 ;;  multiplicand    2    2[BANK0 ] unsigned int 
  4123 ;; Auto vars:     Size  Location     Type
  4124 ;;  product         2    4[COMMON] unsigned int 
  4125 ;; Return value:  Size  Location     Type
  4126 ;;                  2    0[BANK0 ] unsigned int 
  4127 ;; Registers used:
  4128 ;;		wreg, status,2, status,0
  4129 ;; Tracked objects:
  4130 ;;		On entry : 0/0
  4131 ;;		On exit  : 0/0
  4132 ;;		Unchanged: 0/0
  4133 ;; Data sizes:     COMMON   BANK0   BANK1   BANK3   BANK2
  4134 ;;      Params:         0       4       0       0       0
  4135 ;;      Locals:         2       0       0       0       0
  4136 ;;      Temps:          0       0       0       0       0
  4137 ;;      Totals:         2       4       0       0       0
  4138 ;;Total ram usage:        6 bytes
  4139 ;; Hardware stack levels used:    1
  4140 ;; Hardware stack levels required when called:    1
  4141 ;; This function calls:
  4142 ;;		Nothing
  4143 ;; This function is called by:
  4144 ;;		_lecturaConsulta
  4145 ;;		_pow
  4146 ;;		_agregarModificarPrecio
  4147 ;; This function uses a non-reentrant model
  4148 ;;
  4149                           
  4150                           
  4151                           ;psect for function ___wmul
  4152  0799                     ___wmul:	
  4153  0799                     l2025:	
  4154                           ;incstack = 0
  4155                           ; Regs used in ___wmul: [wreg+status,2+status,0]
  4156                           
  4157  0799  01F4               	clrf	___wmul@product
  4158  079A  01F5               	clrf	___wmul@product+1
  4159  079B                     l2027:	
  4160  079B  1283               	bcf	3,5	;RP0=0, select bank0
  4161  079C  1303               	bcf	3,6	;RP1=0, select bank0
  4162  079D  1C20               	btfss	___wmul@multiplier,0
  4163  079E  2FA0               	goto	u1891
  4164  079F  2FA1               	goto	u1890
  4165  07A0                     u1891:	
  4166  07A0  2FA7               	goto	l423
  4167  07A1                     u1890:	
  4168  07A1                     l2029:	
  4169  07A1  0822               	movf	___wmul@multiplicand,w
  4170  07A2  07F4               	addwf	___wmul@product,f
  4171  07A3  1803               	skipnc
  4172  07A4  0AF5               	incf	___wmul@product+1,f
  4173  07A5  0823               	movf	___wmul@multiplicand+1,w
  4174  07A6  07F5               	addwf	___wmul@product+1,f
  4175  07A7                     l423:	
  4176  07A7  3001               	movlw	1
  4177  07A8                     u1905:	
  4178  07A8  1003               	clrc
  4179  07A9  0DA2               	rlf	___wmul@multiplicand,f
  4180  07AA  0DA3               	rlf	___wmul@multiplicand+1,f
  4181  07AB  3EFF               	addlw	-1
  4182  07AC  1D03               	skipz
  4183  07AD  2FA8               	goto	u1905
  4184  07AE                     l2031:	
  4185  07AE  3001               	movlw	1
  4186  07AF                     u1915:	
  4187  07AF  1003               	clrc
  4188  07B0  0CA1               	rrf	___wmul@multiplier+1,f
  4189  07B1  0CA0               	rrf	___wmul@multiplier,f
  4190  07B2  3EFF               	addlw	-1
  4191  07B3  1D03               	skipz
  4192  07B4  2FAF               	goto	u1915
  4193  07B5                     l2033:	
  4194  07B5  0820               	movf	___wmul@multiplier,w
  4195  07B6  0421               	iorwf	___wmul@multiplier+1,w
  4196  07B7  1D03               	btfss	3,2
  4197  07B8  2FBA               	goto	u1921
  4198  07B9  2FBB               	goto	u1920
  4199  07BA                     u1921:	
  4200  07BA  2F9B               	goto	l2027
  4201  07BB                     u1920:	
  4202  07BB                     l2035:	
  4203  07BB  0875               	movf	___wmul@product+1,w
  4204  07BC  00A1               	movwf	?___wmul+1
  4205  07BD  0874               	movf	___wmul@product,w
  4206  07BE  00A0               	movwf	?___wmul
  4207  07BF                     l425:	
  4208  07BF  0008               	return
  4209  07C0                     __end_of___wmul:	
  4210                           
  4211                           	psect	text23
  4212  0626                     __ptext23:	
  4213 ;; *************** function _accionesAceptar *****************
  4214 ;; Defined at:
  4215 ;;		line 9 in file "acciones.c"
  4216 ;; Parameters:    Size  Location     Type
  4217 ;;		None
  4218 ;; Auto vars:     Size  Location     Type
  4219 ;;  i               2   17[BANK0 ] short 
  4220 ;; Return value:  Size  Location     Type
  4221 ;;                  1    wreg      void 
  4222 ;; Registers used:
  4223 ;;		wreg, fsr0l, fsr0h, status,2, status,0, btemp+1, pclath, cstack
  4224 ;; Tracked objects:
  4225 ;;		On entry : 0/0
  4226 ;;		On exit  : 0/0
  4227 ;;		Unchanged: 0/0
  4228 ;; Data sizes:     COMMON   BANK0   BANK1   BANK3   BANK2
  4229 ;;      Params:         0       0       0       0       0
  4230 ;;      Locals:         0       2       0       0       0
  4231 ;;      Temps:          0       1       0       0       0
  4232 ;;      Totals:         0       3       0       0       0
  4233 ;;Total ram usage:        3 bytes
  4234 ;; Hardware stack levels used:    1
  4235 ;; Hardware stack levels required when called:    3
  4236 ;; This function calls:
  4237 ;;		_bailenLeds
  4238 ;;		_mostrarDigitos
  4239 ;; This function is called by:
  4240 ;;		_main
  4241 ;; This function uses a non-reentrant model
  4242 ;;
  4243                           
  4244                           
  4245                           ;psect for function _accionesAceptar
  4246  0626                     _accionesAceptar:	
  4247  0626                     l2433:	
  4248                           ;incstack = 0
  4249                           ; Regs used in _accionesAceptar: [wreg-fsr0h+status,2+status,0+btemp+1+pclath+cstack]
  4250                           
  4251                           
  4252                           ;acciones.c: 11:     ventasLote++;
  4253  0626  3001               	movlw	1
  4254  0627  1283               	bcf	3,5	;RP0=0, select bank0
  4255  0628  1303               	bcf	3,6	;RP1=0, select bank0
  4256  0629  00B0               	movwf	??_accionesAceptar
  4257  062A  0830               	movf	??_accionesAceptar,w
  4258  062B  07E1               	addwf	_ventasLote,f
  4259  062C                     l2435:	
  4260                           
  4261                           ;acciones.c: 12:     montosLote+=cuenta;
  4262  062C  085F               	movf	_cuenta,w
  4263  062D  07D5               	addwf	_montosLote,f
  4264  062E  1803               	skipnc
  4265  062F  0AD6               	incf	_montosLote+1,f
  4266  0630  0860               	movf	_cuenta+1,w
  4267  0631  07D6               	addwf	_montosLote+1,f
  4268  0632                     l2437:	
  4269                           
  4270                           ;acciones.c: 13:     cuenta = 0;
  4271  0632  01DF               	clrf	_cuenta
  4272  0633  01E0               	clrf	_cuenta+1
  4273  0634                     l2439:	
  4274                           
  4275                           ;acciones.c: 14:     auxCuenta = 0;
  4276  0634  01DD               	clrf	_auxCuenta
  4277  0635  01DE               	clrf	_auxCuenta+1
  4278  0636                     l2441:	
  4279                           
  4280                           ;acciones.c: 15:     for(short int i = 0; i < 13; i++){
  4281  0636  01B1               	clrf	accionesAceptar@i
  4282  0637  01B2               	clrf	accionesAceptar@i+1
  4283  0638                     l2447:	
  4284                           
  4285                           ;acciones.c: 16:         prodIngresados[i] = 0;
  4286  0638  1283               	bcf	3,5	;RP0=0, select bank0
  4287  0639  1303               	bcf	3,6	;RP1=0, select bank0
  4288  063A  0831               	movf	accionesAceptar@i,w
  4289  063B  3E48               	addlw	(low (_prodIngresados| 0))& (0+255)
  4290  063C  0084               	movwf	4
  4291  063D  1383               	bcf	3,7	;select IRP bank0
  4292  063E  0180               	clrf	0
  4293  063F                     l2449:	
  4294                           
  4295                           ;acciones.c: 17:     }
  4296  063F  3001               	movlw	1
  4297  0640  07B1               	addwf	accionesAceptar@i,f
  4298  0641  1803               	skipnc
  4299  0642  0AB2               	incf	accionesAceptar@i+1,f
  4300  0643  3000               	movlw	0
  4301  0644  07B2               	addwf	accionesAceptar@i+1,f
  4302  0645                     l2451:	
  4303  0645  0832               	movf	accionesAceptar@i+1,w
  4304  0646  3A80               	xorlw	128
  4305  0647  00FF               	movwf	btemp+1
  4306  0648  3080               	movlw	128
  4307  0649  027F               	subwf	btemp+1,w
  4308  064A  1D03               	skipz
  4309  064B  2E4E               	goto	u2585
  4310  064C  300D               	movlw	13
  4311  064D  0231               	subwf	accionesAceptar@i,w
  4312  064E                     u2585:	
  4313  064E  1C03               	skipc
  4314  064F  2E51               	goto	u2581
  4315  0650  2E52               	goto	u2580
  4316  0651                     u2581:	
  4317  0651  2E38               	goto	l2447
  4318  0652                     u2580:	
  4319  0652                     l2453:	
  4320                           
  4321                           ;acciones.c: 18:     mostrarDigitos(cuenta);
  4322  0652  1283               	bcf	3,5	;RP0=0, select bank0
  4323  0653  1303               	bcf	3,6	;RP1=0, select bank0
  4324  0654  0860               	movf	_cuenta+1,w
  4325  0655  00AD               	movwf	mostrarDigitos@num+1
  4326  0656  085F               	movf	_cuenta,w
  4327  0657  00AC               	movwf	mostrarDigitos@num
  4328  0658  120A  118A  22DD  120A  118A  	fcall	_mostrarDigitos
  4329  065D                     l2455:	
  4330                           
  4331                           ;acciones.c: 19:     bailenLeds();
  4332  065D  120A  118A  2516  120A  118A  	fcall	_bailenLeds
  4333  0662                     l287:	
  4334  0662  0008               	return
  4335  0663                     __end_of_accionesAceptar:	
  4336                           
  4337                           	psect	text24
  4338  02DD                     __ptext24:	
  4339 ;; *************** function _mostrarDigitos *****************
  4340 ;; Defined at:
  4341 ;;		line 17 in file "mostrarInicializar.c"
  4342 ;; Parameters:    Size  Location     Type
  4343 ;;  num             2   12[BANK0 ] unsigned int 
  4344 ;; Auto vars:     Size  Location     Type
  4345 ;;		None
  4346 ;; Return value:  Size  Location     Type
  4347 ;;                  1    wreg      void 
  4348 ;; Registers used:
  4349 ;;		wreg, fsr0l, fsr0h, status,2, status,0, pclath, cstack
  4350 ;; Tracked objects:
  4351 ;;		On entry : 0/0
  4352 ;;		On exit  : 0/0
  4353 ;;		Unchanged: 0/0
  4354 ;; Data sizes:     COMMON   BANK0   BANK1   BANK3   BANK2
  4355 ;;      Params:         0       2       0       0       0
  4356 ;;      Locals:         0       2       0       0       0
  4357 ;;      Temps:          0       0       0       0       0
  4358 ;;      Totals:         0       4       0       0       0
  4359 ;;Total ram usage:        4 bytes
  4360 ;; Hardware stack levels used:    1
  4361 ;; Hardware stack levels required when called:    2
  4362 ;; This function calls:
  4363 ;;		___lwdiv
  4364 ;;		___lwmod
  4365 ;; This function is called by:
  4366 ;;		_main
  4367 ;;		_lecturaEtiqueta
  4368 ;;		_accionesAceptar
  4369 ;;		_accionesDeshacer
  4370 ;; This function uses a non-reentrant model
  4371 ;;
  4372                           
  4373                           
  4374                           ;psect for function _mostrarDigitos
  4375  02DD                     _mostrarDigitos:	
  4376  02DD                     l2231:	
  4377                           ;incstack = 0
  4378                           ; Regs used in _mostrarDigitos: [wreg-fsr0h+status,2+status,0+pclath+cstack]
  4379                           
  4380                           
  4381                           ;mostrarInicializar.c: 19:     PORTB = BMS[num/100];
  4382  02DD  3064               	movlw	100
  4383  02DE  1283               	bcf	3,5	;RP0=0, select bank0
  4384  02DF  1303               	bcf	3,6	;RP1=0, select bank0
  4385  02E0  00A4               	movwf	___lwdiv@divisor
  4386  02E1  3000               	movlw	0
  4387  02E2  00A5               	movwf	___lwdiv@divisor+1
  4388  02E3  082D               	movf	mostrarDigitos@num+1,w
  4389  02E4  00A7               	movwf	___lwdiv@dividend+1
  4390  02E5  082C               	movf	mostrarDigitos@num,w
  4391  02E6  00A6               	movwf	___lwdiv@dividend
  4392  02E7  120A  118A  2561  120A  118A  	fcall	___lwdiv
  4393  02EC  1283               	bcf	3,5	;RP0=0, select bank0
  4394  02ED  1303               	bcf	3,6	;RP1=0, select bank0
  4395  02EE  0824               	movf	?___lwdiv,w
  4396  02EF  3E01               	addlw	low ((_BMS-__stringbase)| (0+32768))
  4397  02F0  0084               	movwf	4
  4398  02F1  120A  158A  2000  120A  118A  	fcall	stringdir
  4399  02F6  0086               	movwf	6	;volatile
  4400  02F7                     l2233:	
  4401                           
  4402                           ;mostrarInicializar.c: 20:     PORTB = PORTB | ((num%100)/10);
  4403  02F7  300A               	movlw	10
  4404  02F8  00A4               	movwf	___lwdiv@divisor
  4405  02F9  3000               	movlw	0
  4406  02FA  00A5               	movwf	___lwdiv@divisor+1
  4407  02FB  082D               	movf	mostrarDigitos@num+1,w
  4408  02FC  00A3               	movwf	___lwmod@dividend+1
  4409  02FD  082C               	movf	mostrarDigitos@num,w
  4410  02FE  00A2               	movwf	___lwmod@dividend
  4411  02FF  3064               	movlw	100
  4412  0300  00A0               	movwf	___lwmod@divisor
  4413  0301  3000               	movlw	0
  4414  0302  00A1               	movwf	___lwmod@divisor+1
  4415  0303  120A  118A  2663  120A  118A  	fcall	___lwmod
  4416  0308  1283               	bcf	3,5	;RP0=0, select bank0
  4417  0309  1303               	bcf	3,6	;RP1=0, select bank0
  4418  030A  0821               	movf	?___lwmod+1,w
  4419  030B  00A7               	movwf	___lwdiv@dividend+1
  4420  030C  0820               	movf	?___lwmod,w
  4421  030D  00A6               	movwf	___lwdiv@dividend
  4422  030E  120A  118A  2561  120A  118A  	fcall	___lwdiv
  4423  0313  1283               	bcf	3,5	;RP0=0, select bank0
  4424  0314  1303               	bcf	3,6	;RP1=0, select bank0
  4425  0315  0824               	movf	?___lwdiv,w
  4426  0316  0406               	iorwf	6,w
  4427  0317  0086               	movwf	6	;volatile
  4428  0318                     l2235:	
  4429                           
  4430                           ;mostrarInicializar.c: 21:     PORTD = BMS[(num%100)%10];
  4431  0318  082D               	movf	mostrarDigitos@num+1,w
  4432  0319  00A3               	movwf	___lwmod@dividend+1
  4433  031A  082C               	movf	mostrarDigitos@num,w
  4434  031B  00A2               	movwf	___lwmod@dividend
  4435  031C  3064               	movlw	100
  4436  031D  00A0               	movwf	___lwmod@divisor
  4437  031E  3000               	movlw	0
  4438  031F  00A1               	movwf	___lwmod@divisor+1
  4439  0320  120A  118A  2663  120A  118A  	fcall	___lwmod
  4440  0325  1283               	bcf	3,5	;RP0=0, select bank0
  4441  0326  1303               	bcf	3,6	;RP1=0, select bank0
  4442  0327  0821               	movf	?___lwmod+1,w
  4443  0328  00AF               	movwf	_mostrarDigitos$900+1
  4444  0329  0820               	movf	?___lwmod,w
  4445  032A  00AE               	movwf	_mostrarDigitos$900
  4446                           
  4447                           ;mostrarInicializar.c: 21:     PORTD = BMS[(num%100)%10];
  4448  032B  300A               	movlw	10
  4449  032C  00A0               	movwf	___lwmod@divisor
  4450  032D  3000               	movlw	0
  4451  032E  00A1               	movwf	___lwmod@divisor+1
  4452  032F  082F               	movf	_mostrarDigitos$900+1,w
  4453  0330  00A3               	movwf	___lwmod@dividend+1
  4454  0331  082E               	movf	_mostrarDigitos$900,w
  4455  0332  00A2               	movwf	___lwmod@dividend
  4456  0333  120A  118A  2663  120A  118A  	fcall	___lwmod
  4457  0338  1283               	bcf	3,5	;RP0=0, select bank0
  4458  0339  1303               	bcf	3,6	;RP1=0, select bank0
  4459  033A  0820               	movf	?___lwmod,w
  4460  033B  3E01               	addlw	low ((_BMS-__stringbase)| (0+32768))
  4461  033C  0084               	movwf	4
  4462  033D  120A  158A  2000  120A  118A  	fcall	stringdir
  4463  0342  0088               	movwf	8	;volatile
  4464  0343                     l246:	
  4465  0343  0008               	return
  4466  0344                     __end_of_mostrarDigitos:	
  4467                           
  4468                           	psect	text25
  4469  0663                     __ptext25:	
  4470 ;; *************** function ___lwmod *****************
  4471 ;; Defined at:
  4472 ;;		line 5 in file "C:\Program Files (x86)\Microchip\xc8\v2.10\pic\sources\c90\common\lwmod.c"
  4473 ;; Parameters:    Size  Location     Type
  4474 ;;  divisor         2    0[BANK0 ] unsigned int 
  4475 ;;  dividend        2    2[BANK0 ] unsigned int 
  4476 ;; Auto vars:     Size  Location     Type
  4477 ;;  counter         1    5[COMMON] unsigned char 
  4478 ;; Return value:  Size  Location     Type
  4479 ;;                  2    0[BANK0 ] unsigned int 
  4480 ;; Registers used:
  4481 ;;		wreg, status,2, status,0
  4482 ;; Tracked objects:
  4483 ;;		On entry : 0/0
  4484 ;;		On exit  : 0/0
  4485 ;;		Unchanged: 0/0
  4486 ;; Data sizes:     COMMON   BANK0   BANK1   BANK3   BANK2
  4487 ;;      Params:         0       4       0       0       0
  4488 ;;      Locals:         1       0       0       0       0
  4489 ;;      Temps:          1       0       0       0       0
  4490 ;;      Totals:         2       4       0       0       0
  4491 ;;Total ram usage:        6 bytes
  4492 ;; Hardware stack levels used:    1
  4493 ;; Hardware stack levels required when called:    1
  4494 ;; This function calls:
  4495 ;;		Nothing
  4496 ;; This function is called by:
  4497 ;;		_mostrarDigitos
  4498 ;; This function uses a non-reentrant model
  4499 ;;
  4500                           
  4501                           
  4502                           ;psect for function ___lwmod
  4503  0663                     ___lwmod:	
  4504  0663                     l2209:	
  4505                           ;incstack = 0
  4506                           ; Regs used in ___lwmod: [wreg+status,2+status,0]
  4507                           
  4508  0663  1283               	bcf	3,5	;RP0=0, select bank0
  4509  0664  1303               	bcf	3,6	;RP1=0, select bank0
  4510  0665  0820               	movf	___lwmod@divisor,w
  4511  0666  0421               	iorwf	___lwmod@divisor+1,w
  4512  0667  1903               	btfsc	3,2
  4513  0668  2E6A               	goto	u2191
  4514  0669  2E6B               	goto	u2190
  4515  066A                     u2191:	
  4516  066A  2E9A               	goto	l2227
  4517  066B                     u2190:	
  4518  066B                     l2211:	
  4519  066B  01F5               	clrf	___lwmod@counter
  4520  066C  0AF5               	incf	___lwmod@counter,f
  4521  066D  2E79               	goto	l2217
  4522  066E                     l2213:	
  4523  066E  3001               	movlw	1
  4524  066F                     u2205:	
  4525  066F  1003               	clrc
  4526  0670  0DA0               	rlf	___lwmod@divisor,f
  4527  0671  0DA1               	rlf	___lwmod@divisor+1,f
  4528  0672  3EFF               	addlw	-1
  4529  0673  1D03               	skipz
  4530  0674  2E6F               	goto	u2205
  4531  0675                     l2215:	
  4532  0675  3001               	movlw	1
  4533  0676  00F4               	movwf	??___lwmod
  4534  0677  0874               	movf	??___lwmod,w
  4535  0678  07F5               	addwf	___lwmod@counter,f
  4536  0679                     l2217:	
  4537  0679  1FA1               	btfss	___lwmod@divisor+1,7
  4538  067A  2E7C               	goto	u2211
  4539  067B  2E7D               	goto	u2210
  4540  067C                     u2211:	
  4541  067C  2E6E               	goto	l2213
  4542  067D                     u2210:	
  4543  067D                     l2219:	
  4544  067D  0821               	movf	___lwmod@divisor+1,w
  4545  067E  0223               	subwf	___lwmod@dividend+1,w
  4546  067F  1D03               	skipz
  4547  0680  2E83               	goto	u2225
  4548  0681  0820               	movf	___lwmod@divisor,w
  4549  0682  0222               	subwf	___lwmod@dividend,w
  4550  0683                     u2225:	
  4551  0683  1C03               	skipc
  4552  0684  2E86               	goto	u2221
  4553  0685  2E87               	goto	u2220
  4554  0686                     u2221:	
  4555  0686  2E8D               	goto	l2223
  4556  0687                     u2220:	
  4557  0687                     l2221:	
  4558  0687  0820               	movf	___lwmod@divisor,w
  4559  0688  02A2               	subwf	___lwmod@dividend,f
  4560  0689  0821               	movf	___lwmod@divisor+1,w
  4561  068A  1C03               	skipc
  4562  068B  03A3               	decf	___lwmod@dividend+1,f
  4563  068C  02A3               	subwf	___lwmod@dividend+1,f
  4564  068D                     l2223:	
  4565  068D  3001               	movlw	1
  4566  068E                     u2235:	
  4567  068E  1003               	clrc
  4568  068F  0CA1               	rrf	___lwmod@divisor+1,f
  4569  0690  0CA0               	rrf	___lwmod@divisor,f
  4570  0691  3EFF               	addlw	-1
  4571  0692  1D03               	skipz
  4572  0693  2E8E               	goto	u2235
  4573  0694                     l2225:	
  4574  0694  3001               	movlw	1
  4575  0695  02F5               	subwf	___lwmod@counter,f
  4576  0696  1D03               	btfss	3,2
  4577  0697  2E99               	goto	u2241
  4578  0698  2E9A               	goto	u2240
  4579  0699                     u2241:	
  4580  0699  2E7D               	goto	l2219
  4581  069A                     u2240:	
  4582  069A                     l2227:	
  4583  069A  0823               	movf	___lwmod@dividend+1,w
  4584  069B  00A1               	movwf	?___lwmod+1
  4585  069C  0822               	movf	___lwmod@dividend,w
  4586  069D  00A0               	movwf	?___lwmod
  4587  069E                     l705:	
  4588  069E  0008               	return
  4589  069F                     __end_of___lwmod:	
  4590                           
  4591                           	psect	text26
  4592  0561                     __ptext26:	
  4593 ;; *************** function ___lwdiv *****************
  4594 ;; Defined at:
  4595 ;;		line 5 in file "C:\Program Files (x86)\Microchip\xc8\v2.10\pic\sources\c90\common\lwdiv.c"
  4596 ;; Parameters:    Size  Location     Type
  4597 ;;  divisor         2    4[BANK0 ] unsigned int 
  4598 ;;  dividend        2    6[BANK0 ] unsigned int 
  4599 ;; Auto vars:     Size  Location     Type
  4600 ;;  quotient        2    9[BANK0 ] unsigned int 
  4601 ;;  counter         1   11[BANK0 ] unsigned char 
  4602 ;; Return value:  Size  Location     Type
  4603 ;;                  2    4[BANK0 ] unsigned int 
  4604 ;; Registers used:
  4605 ;;		wreg, status,2, status,0
  4606 ;; Tracked objects:
  4607 ;;		On entry : 0/0
  4608 ;;		On exit  : 0/0
  4609 ;;		Unchanged: 0/0
  4610 ;; Data sizes:     COMMON   BANK0   BANK1   BANK3   BANK2
  4611 ;;      Params:         0       4       0       0       0
  4612 ;;      Locals:         0       3       0       0       0
  4613 ;;      Temps:          0       1       0       0       0
  4614 ;;      Totals:         0       8       0       0       0
  4615 ;;Total ram usage:        8 bytes
  4616 ;; Hardware stack levels used:    1
  4617 ;; Hardware stack levels required when called:    1
  4618 ;; This function calls:
  4619 ;;		Nothing
  4620 ;; This function is called by:
  4621 ;;		_mostrarDigitos
  4622 ;; This function uses a non-reentrant model
  4623 ;;
  4624                           
  4625                           
  4626                           ;psect for function ___lwdiv
  4627  0561                     ___lwdiv:	
  4628  0561                     l1671:	
  4629                           ;incstack = 0
  4630                           ; Regs used in ___lwdiv: [wreg+status,2+status,0]
  4631                           
  4632  0561  1283               	bcf	3,5	;RP0=0, select bank0
  4633  0562  1303               	bcf	3,6	;RP1=0, select bank0
  4634  0563  01A9               	clrf	___lwdiv@quotient
  4635  0564  01AA               	clrf	___lwdiv@quotient+1
  4636  0565                     l1673:	
  4637  0565  0824               	movf	___lwdiv@divisor,w
  4638  0566  0425               	iorwf	___lwdiv@divisor+1,w
  4639  0567  1903               	btfsc	3,2
  4640  0568  2D6A               	goto	u1261
  4641  0569  2D6B               	goto	u1260
  4642  056A                     u1261:	
  4643  056A  2DA2               	goto	l1693
  4644  056B                     u1260:	
  4645  056B                     l1675:	
  4646  056B  01AB               	clrf	___lwdiv@counter
  4647  056C  0AAB               	incf	___lwdiv@counter,f
  4648  056D  2D79               	goto	l1681
  4649  056E                     l1677:	
  4650  056E  3001               	movlw	1
  4651  056F                     u1275:	
  4652  056F  1003               	clrc
  4653  0570  0DA4               	rlf	___lwdiv@divisor,f
  4654  0571  0DA5               	rlf	___lwdiv@divisor+1,f
  4655  0572  3EFF               	addlw	-1
  4656  0573  1D03               	skipz
  4657  0574  2D6F               	goto	u1275
  4658  0575                     l1679:	
  4659  0575  3001               	movlw	1
  4660  0576  00A8               	movwf	??___lwdiv
  4661  0577  0828               	movf	??___lwdiv,w
  4662  0578  07AB               	addwf	___lwdiv@counter,f
  4663  0579                     l1681:	
  4664  0579  1FA5               	btfss	___lwdiv@divisor+1,7
  4665  057A  2D7C               	goto	u1281
  4666  057B  2D7D               	goto	u1280
  4667  057C                     u1281:	
  4668  057C  2D6E               	goto	l1677
  4669  057D                     u1280:	
  4670  057D                     l1683:	
  4671  057D  3001               	movlw	1
  4672  057E                     u1295:	
  4673  057E  1003               	clrc
  4674  057F  0DA9               	rlf	___lwdiv@quotient,f
  4675  0580  0DAA               	rlf	___lwdiv@quotient+1,f
  4676  0581  3EFF               	addlw	-1
  4677  0582  1D03               	skipz
  4678  0583  2D7E               	goto	u1295
  4679  0584  0825               	movf	___lwdiv@divisor+1,w
  4680  0585  0227               	subwf	___lwdiv@dividend+1,w
  4681  0586  1D03               	skipz
  4682  0587  2D8A               	goto	u1305
  4683  0588  0824               	movf	___lwdiv@divisor,w
  4684  0589  0226               	subwf	___lwdiv@dividend,w
  4685  058A                     u1305:	
  4686  058A  1C03               	skipc
  4687  058B  2D8D               	goto	u1301
  4688  058C  2D8E               	goto	u1300
  4689  058D                     u1301:	
  4690  058D  2D95               	goto	l1689
  4691  058E                     u1300:	
  4692  058E                     l1685:	
  4693  058E  0824               	movf	___lwdiv@divisor,w
  4694  058F  02A6               	subwf	___lwdiv@dividend,f
  4695  0590  0825               	movf	___lwdiv@divisor+1,w
  4696  0591  1C03               	skipc
  4697  0592  03A7               	decf	___lwdiv@dividend+1,f
  4698  0593  02A7               	subwf	___lwdiv@dividend+1,f
  4699  0594                     l1687:	
  4700  0594  1429               	bsf	___lwdiv@quotient,0
  4701  0595                     l1689:	
  4702  0595  3001               	movlw	1
  4703  0596                     u1315:	
  4704  0596  1003               	clrc
  4705  0597  0CA5               	rrf	___lwdiv@divisor+1,f
  4706  0598  0CA4               	rrf	___lwdiv@divisor,f
  4707  0599  3EFF               	addlw	-1
  4708  059A  1D03               	skipz
  4709  059B  2D96               	goto	u1315
  4710  059C                     l1691:	
  4711  059C  3001               	movlw	1
  4712  059D  02AB               	subwf	___lwdiv@counter,f
  4713  059E  1D03               	btfss	3,2
  4714  059F  2DA1               	goto	u1321
  4715  05A0  2DA2               	goto	u1320
  4716  05A1                     u1321:	
  4717  05A1  2D7D               	goto	l1683
  4718  05A2                     u1320:	
  4719  05A2                     l1693:	
  4720  05A2  082A               	movf	___lwdiv@quotient+1,w
  4721  05A3  00A5               	movwf	?___lwdiv+1
  4722  05A4  0829               	movf	___lwdiv@quotient,w
  4723  05A5  00A4               	movwf	?___lwdiv
  4724  05A6                     l695:	
  4725  05A6  0008               	return
  4726  05A7                     __end_of___lwdiv:	
  4727                           
  4728                           	psect	text27
  4729  0516                     __ptext27:	
  4730 ;; *************** function _bailenLeds *****************
  4731 ;; Defined at:
  4732 ;;		line 32 in file "mostrarInicializar.c"
  4733 ;; Parameters:    Size  Location     Type
  4734 ;;		None
  4735 ;; Auto vars:     Size  Location     Type
  4736 ;;  i               2    4[COMMON] unsigned short 
  4737 ;; Return value:  Size  Location     Type
  4738 ;;                  1    wreg      void 
  4739 ;; Registers used:
  4740 ;;		wreg, status,2
  4741 ;; Tracked objects:
  4742 ;;		On entry : 0/0
  4743 ;;		On exit  : 0/0
  4744 ;;		Unchanged: 0/0
  4745 ;; Data sizes:     COMMON   BANK0   BANK1   BANK3   BANK2
  4746 ;;      Params:         0       0       0       0       0
  4747 ;;      Locals:         2       0       0       0       0
  4748 ;;      Temps:          0       3       0       0       0
  4749 ;;      Totals:         2       3       0       0       0
  4750 ;;Total ram usage:        5 bytes
  4751 ;; Hardware stack levels used:    1
  4752 ;; Hardware stack levels required when called:    1
  4753 ;; This function calls:
  4754 ;;		Nothing
  4755 ;; This function is called by:
  4756 ;;		_accionesAceptar
  4757 ;; This function uses a non-reentrant model
  4758 ;;
  4759                           
  4760                           
  4761                           ;psect for function _bailenLeds
  4762  0516                     _bailenLeds:	
  4763  0516                     l2419:	
  4764                           ;incstack = 0
  4765                           ; Regs used in _bailenLeds: [wreg+status,2]
  4766                           
  4767                           
  4768                           ;mostrarInicializar.c: 34:     unsigned short int i;;mostrarInicializar.c: 35:     for (
      +                          i = 0; i < 3; i++) {
  4769  0516  01F4               	clrf	bailenLeds@i
  4770  0517  01F5               	clrf	bailenLeds@i+1
  4771  0518                     l252:	
  4772                           
  4773                           ;mostrarInicializar.c: 36:         RA3 = 1;
  4774  0518  1283               	bcf	3,5	;RP0=0, select bank0
  4775  0519  1303               	bcf	3,6	;RP1=0, select bank0
  4776  051A  1585               	bsf	5,3	;volatile
  4777  051B                     l2425:	
  4778                           
  4779                           ;mostrarInicializar.c: 37:         _delay((unsigned long)((200)*(4000000/4000.0)));
  4780  051B  3002               	movlw	2
  4781  051C  1283               	bcf	3,5	;RP0=0, select bank0
  4782  051D  1303               	bcf	3,6	;RP1=0, select bank0
  4783  051E  00A2               	movwf	??_bailenLeds+2
  4784  051F  3004               	movlw	4
  4785  0520  00A1               	movwf	??_bailenLeds+1
  4786  0521  30B9               	movlw	185
  4787  0522  00A0               	movwf	??_bailenLeds
  4788  0523                     u2737:	
  4789  0523  0BA0               	decfsz	??_bailenLeds,f
  4790  0524  2D23               	goto	u2737
  4791  0525  0BA1               	decfsz	??_bailenLeds+1,f
  4792  0526  2D23               	goto	u2737
  4793  0527  0BA2               	decfsz	??_bailenLeds+2,f
  4794  0528  2D23               	goto	u2737
  4795  0529  2D2A               	nop2
  4796  052A                     l2427:	
  4797                           
  4798                           ;mostrarInicializar.c: 38:         RA5 = 1;
  4799  052A  1283               	bcf	3,5	;RP0=0, select bank0
  4800  052B  1303               	bcf	3,6	;RP1=0, select bank0
  4801  052C  1685               	bsf	5,5	;volatile
  4802                           
  4803                           ;mostrarInicializar.c: 39:         _delay((unsigned long)((200)*(4000000/4000.0)));
  4804  052D  3002               	movlw	2
  4805  052E  1283               	bcf	3,5	;RP0=0, select bank0
  4806  052F  1303               	bcf	3,6	;RP1=0, select bank0
  4807  0530  00A2               	movwf	??_bailenLeds+2
  4808  0531  3004               	movlw	4
  4809  0532  00A1               	movwf	??_bailenLeds+1
  4810  0533  30B9               	movlw	185
  4811  0534  00A0               	movwf	??_bailenLeds
  4812  0535                     u2747:	
  4813  0535  0BA0               	decfsz	??_bailenLeds,f
  4814  0536  2D35               	goto	u2747
  4815  0537  0BA1               	decfsz	??_bailenLeds+1,f
  4816  0538  2D35               	goto	u2747
  4817  0539  0BA2               	decfsz	??_bailenLeds+2,f
  4818  053A  2D35               	goto	u2747
  4819  053B  2D3C               	nop2
  4820  053C                     l2429:	
  4821                           
  4822                           ;mostrarInicializar.c: 40:         RA3 = 0;
  4823  053C  1283               	bcf	3,5	;RP0=0, select bank0
  4824  053D  1303               	bcf	3,6	;RP1=0, select bank0
  4825  053E  1185               	bcf	5,3	;volatile
  4826                           
  4827                           ;mostrarInicializar.c: 41:         _delay((unsigned long)((200)*(4000000/4000.0)));
  4828  053F  3002               	movlw	2
  4829  0540  1283               	bcf	3,5	;RP0=0, select bank0
  4830  0541  1303               	bcf	3,6	;RP1=0, select bank0
  4831  0542  00A2               	movwf	??_bailenLeds+2
  4832  0543  3004               	movlw	4
  4833  0544  00A1               	movwf	??_bailenLeds+1
  4834  0545  30B9               	movlw	185
  4835  0546  00A0               	movwf	??_bailenLeds
  4836  0547                     u2757:	
  4837  0547  0BA0               	decfsz	??_bailenLeds,f
  4838  0548  2D47               	goto	u2757
  4839  0549  0BA1               	decfsz	??_bailenLeds+1,f
  4840  054A  2D47               	goto	u2757
  4841  054B  0BA2               	decfsz	??_bailenLeds+2,f
  4842  054C  2D47               	goto	u2757
  4843  054D  2D4E               	nop2
  4844  054E                     l2431:	
  4845                           
  4846                           ;mostrarInicializar.c: 42:         RA5 = 0;
  4847  054E  1283               	bcf	3,5	;RP0=0, select bank0
  4848  054F  1303               	bcf	3,6	;RP1=0, select bank0
  4849  0550  1285               	bcf	5,5	;volatile
  4850                           
  4851                           ;mostrarInicializar.c: 43:     }
  4852  0551  3001               	movlw	1
  4853  0552  07F4               	addwf	bailenLeds@i,f
  4854  0553  1803               	skipnc
  4855  0554  0AF5               	incf	bailenLeds@i+1,f
  4856  0555  3000               	movlw	0
  4857  0556  07F5               	addwf	bailenLeds@i+1,f
  4858  0557  3000               	movlw	0
  4859  0558  0275               	subwf	bailenLeds@i+1,w
  4860  0559  3003               	movlw	3
  4861  055A  1903               	skipnz
  4862  055B  0274               	subwf	bailenLeds@i,w
  4863  055C  1C03               	skipc
  4864  055D  2D5F               	goto	u2571
  4865  055E  2D60               	goto	u2570
  4866  055F                     u2571:	
  4867  055F  2D18               	goto	l252
  4868  0560                     u2570:	
  4869  0560                     l254:	
  4870  0560  0008               	return
  4871  0561                     __end_of_bailenLeds:	
  4872                           
  4873                           	psect	text28
  4874  06D9                     __ptext28:	
  4875 ;; *************** function _int_usart *****************
  4876 ;; Defined at:
  4877 ;;		line 44 in file "main.c"
  4878 ;; Parameters:    Size  Location     Type
  4879 ;;		None
  4880 ;; Auto vars:     Size  Location     Type
  4881 ;;		None
  4882 ;; Return value:  Size  Location     Type
  4883 ;;                  1    wreg      void 
  4884 ;; Registers used:
  4885 ;;		wreg, fsr0l, fsr0h, status,2, status,0
  4886 ;; Tracked objects:
  4887 ;;		On entry : 0/0
  4888 ;;		On exit  : 0/0
  4889 ;;		Unchanged: 0/0
  4890 ;; Data sizes:     COMMON   BANK0   BANK1   BANK3   BANK2
  4891 ;;      Params:         0       0       0       0       0
  4892 ;;      Locals:         0       0       0       0       0
  4893 ;;      Temps:          4       0       0       0       0
  4894 ;;      Totals:         4       0       0       0       0
  4895 ;;Total ram usage:        4 bytes
  4896 ;; Hardware stack levels used:    1
  4897 ;; This function calls:
  4898 ;;		Nothing
  4899 ;; This function is called by:
  4900 ;;		Interrupt level 1
  4901 ;; This function uses a non-reentrant model
  4902 ;;
  4903                           
  4904                           
  4905                           ;psect for function _int_usart
  4906  06D9                     _int_usart:	
  4907  06D9                     i1l2009:	
  4908                           
  4909                           ;main.c: 46:     if(RCIF == 1) {
  4910  06D9  1283               	bcf	3,5	;RP0=0, select bank0
  4911  06DA  1303               	bcf	3,6	;RP1=0, select bank0
  4912  06DB  1E8C               	btfss	12,5	;volatile
  4913  06DC  2EDE               	goto	u185_21
  4914  06DD  2EDF               	goto	u185_20
  4915  06DE                     u185_21:	
  4916  06DE  2F03               	goto	i1l83
  4917  06DF                     u185_20:	
  4918  06DF                     i1l2011:	
  4919                           
  4920                           ;main.c: 47:         if(RCREG != 0x0D && RCREG != 0x0A && serial < (10 -1)) {
  4921  06DF  300D               	movlw	13
  4922  06E0  061A               	xorwf	26,w	;volatile
  4923  06E1  1903               	btfsc	3,2
  4924  06E2  2EE4               	goto	u186_21
  4925  06E3  2EE5               	goto	u186_20
  4926  06E4                     u186_21:	
  4927  06E4  2EFE               	goto	i1l2021
  4928  06E5                     u186_20:	
  4929  06E5                     i1l2013:	
  4930  06E5  300A               	movlw	10
  4931  06E6  061A               	xorwf	26,w	;volatile
  4932  06E7  1903               	btfsc	3,2
  4933  06E8  2EEA               	goto	u187_21
  4934  06E9  2EEB               	goto	u187_20
  4935  06EA                     u187_21:	
  4936  06EA  2EFE               	goto	i1l2021
  4937  06EB                     u187_20:	
  4938  06EB                     i1l2015:	
  4939  06EB  3009               	movlw	9
  4940  06EC  0278               	subwf	_serial,w
  4941  06ED  1803               	skipnc
  4942  06EE  2EF0               	goto	u188_21
  4943  06EF  2EF1               	goto	u188_20
  4944  06F0                     u188_21:	
  4945  06F0  2EFE               	goto	i1l2021
  4946  06F1                     u188_20:	
  4947  06F1                     i1l2017:	
  4948                           
  4949                           ;main.c: 48:             codigoEntrada[serial] = RCREG;
  4950  06F1  081A               	movf	26,w	;volatile
  4951  06F2  00F0               	movwf	??_int_usart
  4952  06F3  0878               	movf	_serial,w
  4953  06F4  3E62               	addlw	(low (_codigoEntrada| 0))& (0+255)
  4954  06F5  0084               	movwf	4
  4955  06F6  0870               	movf	??_int_usart,w
  4956  06F7  1383               	bcf	3,7	;select IRP bank0
  4957  06F8  0080               	movwf	0
  4958  06F9                     i1l2019:	
  4959                           
  4960                           ;main.c: 49:             serial++;
  4961  06F9  3001               	movlw	1
  4962  06FA  00F0               	movwf	??_int_usart
  4963  06FB  0870               	movf	??_int_usart,w
  4964  06FC  07F8               	addwf	_serial,f
  4965                           
  4966                           ;main.c: 50:         }
  4967  06FD  2F03               	goto	i1l83
  4968  06FE                     i1l2021:	
  4969                           
  4970                           ;main.c: 52:             serial = 0;
  4971  06FE  01F8               	clrf	_serial
  4972  06FF                     i1l2023:	
  4973                           
  4974                           ;main.c: 53:             huboInt = 1;
  4975  06FF  3001               	movlw	1
  4976  0700  00DB               	movwf	_huboInt
  4977  0701  3000               	movlw	0
  4978  0702  00DC               	movwf	_huboInt+1
  4979  0703                     i1l83:	
  4980  0703  0873               	movf	??_int_usart+3,w
  4981  0704  008A               	movwf	10
  4982  0705  0872               	movf	??_int_usart+2,w
  4983  0706  0084               	movwf	4
  4984  0707  0E71               	swapf	(??_int_usart+1)^(0+4294967168),w
  4985  0708  0083               	movwf	3
  4986  0709  0EFE               	swapf	btemp,f
  4987  070A  0E7E               	swapf	btemp,w
  4988  070B  0009               	retfie
  4989  070C                     __end_of_int_usart:	
  4990  007E                     btemp	set	126	;btemp
  4991  007E                     wtemp0	set	126
  4992                           
  4993                           	psect	intentry
  4994  0004                     __pintentry:	
  4995                           ;incstack = 0
  4996                           ; Regs used in _int_usart: [wreg-fsr0h+status,2+status,0]
  4997                           
  4998  0004                     interrupt_function:	
  4999  007E                     saved_w	set	btemp
  5000  0004  00FE               	movwf	btemp
  5001  0005  0E03               	swapf	3,w
  5002  0006  00F1               	movwf	??_int_usart+1
  5003  0007  0804               	movf	4,w
  5004  0008  00F2               	movwf	??_int_usart+2
  5005  0009  080A               	movf	10,w
  5006  000A  00F3               	movwf	??_int_usart+3
  5007  000B  120A  118A  2ED9   	ljmp	_int_usart


Data Sizes:
    Strings     0
    Constant    10
    Data        1
    BSS         39
    Persistent  0
    Stack       0

Auto Spaces:
    Space          Size  Autos    Used
    COMMON           14      6      10
    BANK0            80     40      76
    BANK1            80      0       0
    BANK3            96      0       0
    BANK2            96      0       0

Pointer List with Targets:

    None.

Critical Paths under _main in COMMON

    _lecturaEtiqueta->___bmul
    _EEPROM_search->_eeprom_read
    _agregarModificarPrecio->___bmul
    _agregarModificarPrecio->___wmul
    _agregarModificarPrecio->_eeprom_read
    _agregarModificarPrecio->_eeprom_write
    _lecturaConsulta->___wmul
    _pow->___wmul
    _accionesAceptar->_bailenLeds
    _mostrarDigitos->___lwmod
    ___lwdiv->___lwmod

Critical Paths under _int_usart in COMMON

    None.

Critical Paths under _main in BANK0

    _main->_accionesPuertoSerial
    _accionesPuertoSerial->_lecturaEtiqueta
    _lecturaEtiqueta->_EEPROM_search
    _ingresoProd->_pow
    _EEPROM_search->_verificarProd
    _verificarProd->_pow
    _lecturaMas->_agregarModificarPrecio
    _agregarModificarPrecio->___wmul
    _lecturaConsulta->___wmul
    _accionesDeshacer->_eliminarProd
    _eliminarProd->_pow
    _pow->___wmul
    _accionesAceptar->_mostrarDigitos
    _mostrarDigitos->___lwdiv
    ___lwdiv->___lwmod

Critical Paths under _int_usart in BANK0

    None.

Critical Paths under _main in BANK1

    None.

Critical Paths under _int_usart in BANK1

    None.

Critical Paths under _main in BANK3

    None.

Critical Paths under _int_usart in BANK3

    None.

Critical Paths under _main in BANK2

    None.

Critical Paths under _int_usart in BANK2

    None.

Call Graph Tables:

 ---------------------------------------------------------------------------------
 (Depth) Function   	        Calls       Base Space   Used Autos Params    Refs
 ---------------------------------------------------------------------------------
 (0) _main                                                 0     0      0   20142
                    _accionesAceptar
                   _accionesDeshacer
               _accionesPuertoSerial
                      _iniciar_usart
                     _mostrarDigitos
 ---------------------------------------------------------------------------------
 (1) _iniciar_usart                                        0     0      0       0
 ---------------------------------------------------------------------------------
 (1) _accionesPuertoSerial                                 3     3      0   12462
                                             37 BANK0      3     3      0
                     _lecturaComando
                    _lecturaEtiqueta
 ---------------------------------------------------------------------------------
 (2) _lecturaEtiqueta                                      8     8      0    8543
                                             29 BANK0      8     8      0
                      _EEPROM_search
                            ___awmod
                             ___bmul
                        _ingresoProd
                     _mostrarDigitos
 ---------------------------------------------------------------------------------
 (3) _ingresoProd                                          7     5      2    2338
                                             12 BANK0      7     5      2
                                _pow
 ---------------------------------------------------------------------------------
 (3) ___awmod                                              7     3      4     613
                                              4 COMMON     1     1      0
                                              0 BANK0      6     2      4
 ---------------------------------------------------------------------------------
 (3) _EEPROM_search                                        9     7      2    3220
                                             20 BANK0      9     7      2
                            ___awdiv
                        _eeprom_read
                      _verificarProd
 ---------------------------------------------------------------------------------
 (4) _verificarProd                                        8     6      2    2344
                                             12 BANK0      8     6      2
                            ___awdiv (ARG)
                                _pow
 ---------------------------------------------------------------------------------
 (4) ___awdiv                                              9     5      4     625
                                              4 COMMON     1     1      0
                                              0 BANK0      8     4      4
 ---------------------------------------------------------------------------------
 (2) _lecturaComando                                       0     0      0    3919
                    _lecturaConsulta
                         _lecturaMas
                       _lecturaMenos
 ---------------------------------------------------------------------------------
 (3) _lecturaMenos                                         0     0      0       0
 ---------------------------------------------------------------------------------
 (3) _lecturaMas                                           0     0      0    2700
             _agregarModificarPrecio
                       _cierreDeLote
                _verificacionEntrada
 ---------------------------------------------------------------------------------
 (4) _verificacionEntrada                                  3     3      0     167
                                              4 COMMON     1     1      0
                                              0 BANK0      2     2      0
 ---------------------------------------------------------------------------------
 (4) _cierreDeLote                                         1     1      0       0
                                              4 COMMON     1     1      0
 ---------------------------------------------------------------------------------
 (4) _agregarModificarPrecio                              15    15      0    2533
                                              4 BANK0     15    15      0
                             ___bmul
                             ___wmul
                        _eeprom_read
                       _eeprom_write
 ---------------------------------------------------------------------------------
 (5) _eeprom_write                                         3     2      1     422
                                              4 COMMON     2     1      1
                                              0 BANK0      1     1      0
 ---------------------------------------------------------------------------------
 (4) _eeprom_read                                          2     2      0      22
                                              4 COMMON     2     2      0
 ---------------------------------------------------------------------------------
 (3) ___bmul                                               4     3      1     316
                                              4 COMMON     2     1      1
                                              0 BANK0      2     2      0
 ---------------------------------------------------------------------------------
 (3) _lecturaConsulta                                      4     4      0    1219
                                              4 BANK0      4     4      0
                             ___wmul
 ---------------------------------------------------------------------------------
 (1) _accionesDeshacer                                     0     0      0    4063
                       _eliminarProd
                     _mostrarDigitos
 ---------------------------------------------------------------------------------
 (2) _eliminarProd                                         7     5      2    2338
                                             12 BANK0      7     5      2
                                _pow
 ---------------------------------------------------------------------------------
 (4) _pow                                                  8     4      4    1957
                                              4 BANK0      8     4      4
                             ___wmul
 ---------------------------------------------------------------------------------
 (5) ___wmul                                               6     2      4    1216
                                              4 COMMON     2     2      0
                                              0 BANK0      4     0      4
 ---------------------------------------------------------------------------------
 (1) _accionesAceptar                                      3     3      0    1892
                                             16 BANK0      3     3      0
                         _bailenLeds
                     _mostrarDigitos
 ---------------------------------------------------------------------------------
 (1) _mostrarDigitos                                       4     2      2    1725
                                             12 BANK0      4     2      2
                            ___lwdiv
                            ___lwmod
 ---------------------------------------------------------------------------------
 (2) ___lwmod                                              6     2      4     772
                                              4 COMMON     2     2      0
                                              0 BANK0      4     0      4
 ---------------------------------------------------------------------------------
 (2) ___lwdiv                                              8     4      4     466
                                              4 BANK0      8     4      4
                            ___lwmod (ARG)
 ---------------------------------------------------------------------------------
 (2) _bailenLeds                                           5     5      0      68
                                              4 COMMON     2     2      0
                                              0 BANK0      3     3      0
 ---------------------------------------------------------------------------------
 Estimated maximum stack depth 5
 ---------------------------------------------------------------------------------
 (Depth) Function   	        Calls       Base Space   Used Autos Params    Refs
 ---------------------------------------------------------------------------------
 (7) _int_usart                                            4     4      0       0
                                              0 COMMON     4     4      0
 ---------------------------------------------------------------------------------
 Estimated maximum stack depth 7
 ---------------------------------------------------------------------------------

 Call Graph Graphs:

 _main (ROOT)
   _accionesAceptar
     _bailenLeds
     _mostrarDigitos
       ___lwdiv
         ___lwmod (ARG)
       ___lwmod
   _accionesDeshacer
     _eliminarProd
       _pow
         ___wmul
     _mostrarDigitos
       ___lwdiv
         ___lwmod (ARG)
       ___lwmod
   _accionesPuertoSerial
     _lecturaComando
       _lecturaConsulta
         ___wmul
       _lecturaMas
         _agregarModificarPrecio
           ___bmul
           ___wmul
           _eeprom_read
           _eeprom_write
         _cierreDeLote
         _verificacionEntrada
       _lecturaMenos
     _lecturaEtiqueta
       _EEPROM_search
         ___awdiv
         _eeprom_read
         _verificarProd
           ___awdiv (ARG)
           _pow (ARG)
             ___wmul
       ___awmod
       ___bmul
       _ingresoProd
         _pow
           ___wmul
       _mostrarDigitos
         ___lwdiv
           ___lwmod (ARG)
         ___lwmod
   _iniciar_usart
   _mostrarDigitos
     ___lwdiv
       ___lwmod (ARG)
     ___lwmod

 _int_usart (ROOT)

 Address spaces:
Name               Size   Autos  Total    Cost      Usage
BANK3               60      0       0       9        0.0%
BITBANK3            60      0       0       8        0.0%
SFR3                 0      0       0       4        0.0%
BITSFR3              0      0       0       4        0.0%
BANK2               60      0       0      11        0.0%
BITBANK2            60      0       0      10        0.0%
SFR2                 0      0       0       5        0.0%
BITSFR2              0      0       0       5        0.0%
BANK1               50      0       0       7        0.0%
BITBANK1            50      0       0       6        0.0%
SFR1                 0      0       0       2        0.0%
BITSFR1              0      0       0       2        0.0%
BANK0               50     28      4C       5       95.0%
BITBANK0            50      0       0       4        0.0%
SFR0                 0      0       0       1        0.0%
BITSFR0              0      0       0       1        0.0%
COMMON               E      6       A       1       71.4%
BITCOMMON            E      0       0       0        0.0%
CODE                 0      0       0       0        0.0%
DATA                 0      0      56      12        0.0%
ABS                  0      0      56       3        0.0%
NULL                 0      0       0       0        0.0%
STACK                0      0       0       2        0.0%
EEDATA             100      0       0       0        0.0%


Microchip Technology PIC Macro Assembler V2.10 build 88905656 
Symbol Table                                                                                   Tue May 26 22:03:36 2020

                 ?_lecturaConsulta 0070                      ?_eliminarProd 002C  
                                pc 0002                     ___bmul@product 0020  
                 ?_lecturaEtiqueta 0070                        __CFG_CP$OFF 0000  
                               l62 04F6                                 l63 04EC  
                               l66 0512                                 l68 04FA  
                     ___awdiv@sign 0025                                 fsr 0004  
              ___wmul@multiplicand 0022                     ?_verificarProd 002C  
                              l120 026D                                l210 03A7  
                              l123 0273                                l203 0409  
                              l132 020A                                l300 0625  
                              l223 0134                                l216 046B  
                              l144 073D                                l129 01F8  
                              l154 0798                                l162 0FB9  
                              l147 0FA6                                l252 0518  
                              l412 0741                                l148 0FAF  
                              l413 0741                                l157 0798  
                              l181 0FFF                                l254 0560  
                              l246 0343                                l174 05E6  
                              l423 07A7                                l416 075D  
                              l425 07BF                                l249 0FC8  
                              l291 07E4                                l419 076E  
                              l197 06D8                                l287 0662  
                              l705 069E                                l449 0FDF  
                              l393 07E6                                l298 0613  
                              l395 07FB                                l576 02DC  
                              l589 04C6                                l695 05A6  
                              _BMS 0806                                _RA1 0029  
                              _RA2 002A                                _RA3 002B  
                              _RA5 002D                       __CFG_CPD$OFF 0000  
                              u990 07ED                                u991 07EC  
                              _pow 069F                                fsr0 0004  
                              indf 0000                       ___awmod@sign 0025  
agregarModificarPrecio@upper_8bits 002F                       __CFG_FOSC$XT 0000  
                     __CFG_LVP$OFF 0000                   ??_mostrarDigitos 0076  
                             l2101 037D                               l2031 07AE  
                             l2111 03A6                               l2103 0396  
                             l2033 07B5                               l2025 0799  
                             l2041 06A6                               l2121 071A  
                             l2201 02CE                               l2105 0398  
                             l2211 066B                               l2035 07BB  
                             l2027 079B                               l2051 06D4  
                             l2043 06AC                               l2123 0724  
                             l2115 070C                               l2203 02D3  
                             l2107 039A                               l2221 0687  
                             l2213 066E                               l2029 07A1  
                             l2045 06B1                               l2301 05D0  
                             l2061 0758                               l2141 0060  
                             l2133 0027                               l2125 072D  
                             l2117 0710                               l2205 02D8  
                             l2109 03A2                               l2223 068D  
                             l2215 0675                               l2231 02DD  
                             l2047 06C4                               l2039 069F  
                             l2303 05D6                               l2071 0767  
                             l2063 075C                               l2055 0747  
                             l2151 00BB                               l2143 0064  
                             l2135 003A                               l2127 0736  
                             l2119 0712                               l2311 0478  
                             l2225 0694                               l2217 0679  
                             l2209 0663                               l2233 02F7  
                             l2049 06CA                               l2401 040A  
                             l2081 0FD5                               l2073 076D  
                             l2065 0761                               l2057 074F  
                             l2161 011D                               l2153 00C5  
                             l2145 0071                               l2137 003C  
                             l2129 073C                               l2241 0216  
                             l2321 048C                               l2313 047A  
                             l2305 046C                               l2219 067D  
                             l2227 069A                               l2235 0318  
                             l2411 0442                               l2083 0FD7  
                             l2075 0FCC                               l2067 0765  
                             l2059 0755                               l2163 0127  
                             l2147 00B3                               l2155 00D3  
                             l2139 0042                               l2171 0280  
                             l2091 0347                               l2243 0234  
                             l2331 04AB                               l2323 0493  
                             l2315 047E                               l2307 046F  
                             l2413 045D                               l2085 0FDE  
                             l2077 0FCD                               l2069 0766  
                             l2157 0115                               l2149 00B7  
                             l2181 0291                               l2173 0282  
                             l2165 0274                               l2245 0238  
                             l2237 020E                               l2333 04B2  
                             l2325 0497                               l2317 0483  
                             l2309 0473                               l2261 03C9  
                             l2253 03A8                               l2431 054E  
                             l2415 045F                               l2407 0410  
                             l2079 0FD1                               l2159 0119  
                             l2271 076F                               l2191 02A9  
                             l2183 0297                               l2175 0286  
                             l2167 0277                               l2247 0245  
                             l2239 0210                               l2327 049B  
                             l2319 0489                               l2335 04B8  
                             l2263 03E0                               l2351 014E  
                             l2343 0135                               l2511 050A  
                             l2503 04F0                               l2425 051B  
                             l2441 0636                               l2433 0626  
                             l2417 0467                               l2409 042B  
                             l2281 0795                               l2273 0777  
                             l2193 02BA                               l2185 029A  
                             l2177 028B                               l2169 027B  
                             l2097 034B                               l2089 0344  
                             l2249 0267                               l2337 04BD  
                             l2329 04A5                               l2265 03FB  
                             l2361 01A0                               l2353 0154  
                             l2513 050C                               l2427 052A  
                             l2419 0516                               l2451 0645  
                             l2435 062C                               l2291 05B7  
                             l2283 05A7                               l1491 07ED  
                             l2275 077D                               l2195 02C0  
                             l2187 02A1                               l2179 028F  
                             l2099 0366                               l2339 04C2  
                             l2267 03FD                               l2259 03AE  
                             l2371 01D0                               l2363 01B1  
                             l2355 0161                               l2507 04FE  
                             l2429 053C                               l2453 0652  
                             l2437 0632                               l2461 07D0  
                             l2285 05AF                               l2277 0787  
                             l2197 02C1                               l2189 02A5  
                             l2269 0405                               l2381 01F4  
                             l2373 01D4                               l2365 01B9  
                             l2357 0183                               l2349 013B  
                             l2509 0504                               l1671 0561  
                             l2455 065D                               l2447 0638  
                             l2439 0634                               l2463 07D9  
                             l2295 05BE                               l2287 05B6  
                             l1591 0FAA                               l2279 078D  
                             l2391 0FE0                               l2199 02C8  
                             l2383 01F9                               l2375 01DA  
                             l2367 01BB                               l2359 0194  
                             l2471 05FB                               l1681 0579  
                             l1673 0565                               l2449 063F  
                             l2457 07C0                               l2297 05C4  
                             l1593 0FAD                               l2393 0FE8  
                             l2385 0207                               l2377 01E3  
                             l2369 01C7                               l2481 0622  
                             l2473 0601                               l2465 05E7  
                             l1691 059C                               l1683 057D  
                             l1675 056B                               l2459 07CC  
                             l2299 05CA                               l1771 0FB0  
                             l2395 0FEE                               l2379 01E6  
                             l2475 0607                               l2467 05EF  
                             l2491 04D2                               l2483 04C7  
                             l1685 058E                               l1677 056E  
                             l1693 05A2                               l1589 0FA6  
                             l1773 0FB8                               l2397 0FF4  
                             l2477 060D                               l2469 05F5  
                             l1925 0FBA                               l2493 04D7  
                             l2485 04CD                               l1687 0594  
                             l1679 0575                               l2399 0FFA  
                             l2479 0614                               l2495 04DB  
                             l2487 04CE                               l1689 0595  
                             l2497 04DD                               l2489 04D1  
                             l2499 04E6                               ?_pow 0024  
                             u2000 0366                               u2001 0365  
                             u2010 0396                               u2011 0395  
                             u1300 058E                               u2100 0286  
                             u2020 03A6                               u1301 058D  
                             u2101 0285                               u2021 03A5  
                             u2005 0362                               u2030 0724  
                             u2110 0297                               u2031 0723  
                             u2111 0296                               u1320 05A2  
                             u2040 072D                               u1321 05A1  
                             u1305 058A                               u2041 072C  
                             u2210 067D                               u2050 0736  
                             u2130 02A9                               u1315 0596  
                             u2211 067C                               u2051 0735  
                             u2131 02A8                               u1260 056B  
                             u2220 0687                               u2060 073C  
                             u2300 0777                               u1261 056A  
                             u2221 0686                               u2205 066F  
                             u2061 073B                               u2301 0776  
                             u2125 029B                               u2070 0064  
                             u2310 0787                               u2150 02BA  
                             u2071 0063                               u2311 0786  
                             u2151 02B9                               u1280 057D  
                             u2240 069A                               u2080 0071  
                             u2320 0795                               u2400 0473  
                             u1281 057C                               u2241 0699  
                             u2225 0683                               u2081 0070  
                             u2321 0794                               u2145 02AA  
                             u2401 0472                               u2330 05AF  
                             u2170 02CE                               u2090 027B  
                             u2250 0238                               u2410 047E  
                             u1275 056F                               u2235 068E  
                             u2331 05AE                               u2171 02CD  
                             u2155 02B6                               u2091 027A  
                             u2251 0237                               u2411 047D  
                             u2340 05B5                               u2180 02D3  
                             u2260 0245                               u2420 0489  
                             u2500 0183                               u2341 05B4  
                             u2085 006D                               u2181 02D2  
                             u2165 02C2                               u2261 0244  
                             u2421 0488                               u2501 0182  
                             u2190 066B                               u2350 05BD  
                             u1470 0FB8                               u2270 0267  
                             u2510 01B1                               u1295 057E  
                             u2191 066A                               u2351 05BC  
                             u1471 0FB7                               u2271 0266  
                             u2511 01B0                               u2360 05C4  
                             u2440 049B                               u2280 03C9  
                             u2520 01B9                               u2600 05EF  
                             u2361 05C3                               u2265 0241  
                             u2441 049A                               u2281 03C8  
                             u2521 01B8                               u2505 017F  
                             u2601 05EE                               u2370 05CA  
                             u2530 0FE8                               u2450 04A5  
                             u2290 0409                               u2610 05F5  
                             u2371 05C9                               u2531 0FE7  
                             u2451 04A4                               u2435 048D  
                             u2291 0408                               u2611 05F4  
                             u2380 05D0                               u2540 0FF4  
                             u2620 05FB                               u2381 05CF  
                             u2541 0FF3                               u2285 03C5  
                             u2621 05FA                               u2550 042B  
                             u2390 05D6                               u2470 04B8  
                             u2630 0607                               u2551 042A  
                             u2391 05D5                               u2471 04B7  
                             u2455 04A1                               u2631 0606  
                             u1920 07BB                               u2560 046B  
                             u2480 04BD                               u2640 060D  
                             u1921 07BA                               u1905 07A8  
                             u2561 046A                               u2481 04BC  
                             u2465 04AC                               u2641 060C  
                             u2570 0560                               u1930 06AC  
                             u2490 0161                               u2650 04EC  
                             u2571 055F                               u1915 07AF  
                             u1931 06AB                               u2555 0427  
                             u2491 0160                               u2707 061C  
                             u2651 04EB                               u2580 0652  
                             u1940 06D4                               u2660 04F0  
                             u2581 0651                               u1941 06D3  
                             u2717 01EE                               u2661 04EF  
                             u2590 07CC                               u1950 0747  
                             u2670 04FA                               u2591 07CB  
                             u1951 0746                               u2727 0201  
                             u2495 015D                               u2671 04F9  
                             u1960 075C                               u2680 04FE  
                             u2737 0523                               u2585 064E  
                             u1945 06D0                               u1961 075B  
                             u2681 04FD                               u1890 07A1  
                             u1970 076D                               u2690 050A  
                             u2747 0535                               u1891 07A0  
                             u2595 07C8                               u1971 076C  
                             u2691 0509                               u1980 0FD1  
                             u2757 0547                               u1981 0FD0  
                             u1990 0FDE                               u1991 0FDD  
                             _RCIE 0465                               _RCIF 0065  
                             i1l83 0703                     ??_eeprom_write 0075  
                     __CFG_WRT$OFF 0000                               _main 04C7  
                  _accionesAceptar 0626                               btemp 007E  
                    __CFG_BOREN$ON 0000                               pow@i 0028  
                             start 000E                  ___bmul@multiplier 0021  
                   ??_eliminarProd 002E                              ??_pow 0076  
    __size_of_accionesPuertoSerial 003F                              ?_main 0070  
                  __end_of___awdiv 02DD                              _EEADR 010D  
                    __CFG_WDTE$OFF 0000                    __end_of___awmod 04C7  
                  ___awdiv@divisor 0020                       ?_ingresoProd 002C  
                  __end_of___lwdiv 05A7                    __end_of___lwmod 069F  
                  ___awdiv@counter 0024                              _RCREG 001A  
                            _RCSTA 0018                              _SPBRG 0099  
                            _PORTB 0006                              _PORTD 0008  
                            _TRISA 0085                              _TRISB 0086  
                            _TRISC 0087                              _TRISD 0088  
                            _TXSTA 0098             __size_of_iniciar_usart 000F  
             __end_of_cierreDeLote 0FB0                              pclath 000A  
                 _accionesDeshacer 07C0                              status 0003  
                            wtemp0 007E                      ?_lecturaMenos 0070  
                  __initialization 0011                       __end_of_main 0516  
                  ??_verificarProd 002E                    EEPROM_search@tp 003C  
                           ??_main 0076              __end_of_EEPROM_search 0274  
         ??_agregarModificarPrecio 0024                      eliminarProd@i 0031  
          __end_of_accionesAceptar 0663                             _ADCON1 009F  
                           _EEDATA 010C                             _EECON1 018C  
                           _EECON2 018D                   ___awdiv@dividend 0022  
          __size_of_lecturaComando 0020                             i1l2011 06DF  
                           i1l2013 06E5                             i1l2021 06FE  
                           i1l2023 06FF                             i1l2015 06EB  
                           i1l2017 06F1                             i1l2009 06D9  
                           i1l2019 06F9                             _INTCON 000B  
                           u185_20 06DF                             u185_21 06DE  
                           u186_20 06E5                             u186_21 06E4  
                           u187_20 06EB                             u187_21 06EA  
                           u188_20 06F1                             u188_21 06F0  
                   ??_lecturaMenos 0074                   lecturaEtiqueta@i 0040  
                    _iniciar_usart 0FBA                     __CFG_PWRTE$OFF 0000  
             __size_of_eeprom_read 0017                             ___bmul 0FC9  
                           ___wmul 0799                          ??___awdiv 0074  
                        ??___awmod 0074                          ??___lwdiv 0028  
                        ??___lwmod 0074                             _cuenta 005F  
              _verificacionEntrada 070C                   ___awdiv@quotient 0026  
                  ___awmod@divisor 0020                             _serial 0078  
             __end_of_eeprom_write 076F                    ___awmod@counter 0024  
                     __pdataCOMMON 0079                             saved_w 007E  
             __end_of_eliminarProd 046C               ?_verificacionEntrada 0070  
          __end_of__initialization 0023                    eeprom_read@addr 0075  
                   ?_iniciar_usart 0070                ___bmul@multiplicand 0074  
                   __pcstackCOMMON 0070              __size_of_cierreDeLote 000A  
                       _bailenLeds 0516               __size_of_ingresoProd 0062  
                eeprom_write@value 0074    __size_of_agregarModificarPrecio 010E  
                 ?_accionesAceptar 0070              ??_verificacionEntrada 0074  
                       __pbssBANK0 0048                 __size_of_int_usart 0033  
                       __pmaintext 04C7                       _cierreDeLote 0FA6  
         agregarModificarPrecio@tp 0032                            ?___bmul 0074  
                   eliminarProd@tp 002C                            ?___wmul 0020  
                       __pintentry 0004                EEPROM_search@precio 003A  
         __end_of_accionesDeshacer 07E5           __size_of_lecturaConsulta 0040  
             __end_of_lecturaMenos 0FBA           __size_of_lecturaEtiqueta 00D6  
                   verificarProd@i 0032                     _lecturaComando 0FE0  
                 accionesAceptar@i 0031                         __stringtab 0800  
     __end_of_accionesPuertoSerial 0626                    ??_iniciar_usart 0074  
                lecturaEtiqueta@tp 0042                         _lecturaMas 076F  
           _agregarModificarPrecio 0027              __size_of_eeprom_write 0031  
                  __size_of___bmul 0017                            ___awdiv 0274  
                          ___awmod 046C                    __size_of___wmul 0027  
                          ___lwdiv 0561                            ___lwmod 0663  
                          __ptext1 0FBA                            __ptext2 05E7  
                          __ptext3 0135                            __ptext4 03A8  
                      pow@potencia 0026                            __ptext5 046C  
                          __ptext6 020B                            __ptext7 0344  
                          __ptext8 0274                            __ptext9 0FE0  
                      ?_bailenLeds 0070                            _huboInt 005B  
            __size_of_eliminarProd 0062                       __size_of_pow 003A  
             verificacionEntrada@i 0021                   ___awmod@dividend 0022  
                     ingresoProd@i 0031             __end_of_lecturaComando 1000  
                          _nroLote 0079                            _numProd 0057  
                __end_of_int_usart 070C                            clrloop0 0F9F  
     agregarModificarPrecio@precio 0030               end_of_initialization 0023  
                     _eeprom_write 073E            __size_of_mostrarDigitos 0067  
                       _montosLote 0055                       _eliminarProd 040A  
                _productoIngresado 0059                   verificarProd@ret 0031  
            __end_of_verificarProd 03A8                         _ventasLote 0061  
                  ?_lecturaComando 0070                  ??_lecturaConsulta 0024  
                 _cierreLotePedido 0076                  ??_lecturaEtiqueta 003D  
                    ??_eeprom_read 0074                __size_of_bailenLeds 004B  
                      ?_lecturaMas 0070             __size_of_EEPROM_search 0069  
                   __end_of___bmul 0FE0              __size_of_lecturaMenos 000A  
                   __end_of___wmul 07C0                      __pidataCOMMON 07FC  
             _accionesPuertoSerial 05E7                start_initialization 0011  
                      __end_of_BMS 0810                        __end_of_pow 06D9  
                     _lecturaMenos 0FB0                     _prodIngresados 0048  
                         ??___bmul 0075                 _mostrarDigitos$900 002E  
                         ??___wmul 0074                __end_of_eeprom_read 07FC  
            ?_accionesPuertoSerial 0070                      ??_ingresoProd 002E  
                ?_accionesDeshacer 0070                        __pbssCOMMON 0076  
      __end_of_verificacionEntrada 073E                          ___latbits 0002  
               ??_accionesDeshacer 0076                      __pcstackBANK0 0020  
                    _EEPROM_search 020B                __size_of_lecturaMas 002A  
                 eeprom_write@addr 0020            ?_agregarModificarPrecio 0070  
         __size_of_accionesAceptar 003D                     _mostrarDigitos 02DD  
                 ___lwdiv@dividend 0026                           ?___awdiv 0020  
                         ?___awmod 0020                           ?___lwdiv 0024  
                         ?___lwmod 0020                          _auxCuenta 005D  
                        __pstrings 0800                       ??_bailenLeds 0020  
                   ?_EEPROM_search 0034                   ___lwdiv@quotient 0029  
              __end_of_ingresoProd 040A                          _modoDebug 0077  
                        _int_usart 06D9             verificacionEntrada@ret 0020  
   __end_of_agregarModificarPrecio 0135                  interrupt_function 0004  
                   ___wmul@product 0074             __end_of_mostrarDigitos 0344  
            __end_of_iniciar_usart 0FC9                          clear_ram0 0F9E  
                      _eeprom_read 07E5                        bailenLeds@i 0074  
               __end_of_bailenLeds 0561                    verificarProd@tp 002C  
           ??_accionesPuertoSerial 0045                   ??_lecturaComando 0076  
                  _lecturaConsulta 05A7                        __stringbase 0805  
                ___wmul@multiplier 0020                    _lecturaEtiqueta 0135  
               lecturaEtiqueta@Aux 0043                      _codigoEntrada 0062  
                       ?_int_usart 0070                    ?_mostrarDigitos 002C  
                       _EECON1bits 018C                       ??_lecturaMas 0076  
                ??_accionesAceptar 0030                   __size_of___awdiv 0069  
                 __size_of___awmod 005B                   __size_of___lwdiv 0046  
                 __size_of___lwmod 003C                 __end_of__stringtab 0806  
                  ??_EEPROM_search 0036                        _ingresoProd 03A8  
                  ___lwdiv@divisor 0024                       pow@resultado 002A  
                  ___lwdiv@counter 002B                           __ptext10 0FB0  
                         __ptext11 076F                           __ptext20 040A  
                         __ptext12 070C                           __ptext21 069F  
                         __ptext13 0FA6                           __ptext22 0799  
                         __ptext14 0027                           __ptext23 0626  
                         __ptext15 073E                           __ptext24 02DD  
                         __ptext16 07E5                           __ptext25 0663  
                         __ptext17 0FC9                           __ptext26 0561  
                         __ptext18 05A7                           __ptext27 0516  
                         __ptext19 07C0                           __ptext28 06D9  
               __end_of_lecturaMas 0799                      __size_of_main 004F  
                        pow@numero 0024             __size_of_verificarProd 0064  
                    ingresoProd@tp 002C                      ?_cierreDeLote 0070  
          __end_of_lecturaConsulta 05E7            __end_of_lecturaEtiqueta 020B  
                       _INTCONbits 000B  agregarModificarPrecio@lower_8bits 002E  
                         intlevel1 0000                        ??_int_usart 0070  
                 ___lwmod@dividend 0022          __size_of_accionesDeshacer 0025  
                   ??_cierreDeLote 0074                          stringcode 0800  
                mostrarDigitos@num 002C                      _verificarProd 0344  
                  ___lwmod@divisor 0020                    ___lwmod@counter 0075  
                         stringdir 0800                           stringtab 0800  
     __size_of_verificacionEntrada 0032                      ?_eeprom_write 0074  
                       _STATUSbits 0003                       ?_eeprom_read 0070  
